
SmartRemoteController_IKHWANG220909.elf:     file format elf32-avr

Sections:
Idx Name          Size      VMA       LMA       File off  Algn
  0 .data         0000004c  00800100  00007856  000078ea  2**0
                  CONTENTS, ALLOC, LOAD, DATA
  1 .text         00007856  00000000  00000000  00000094  2**1
                  CONTENTS, ALLOC, LOAD, READONLY, CODE
  2 .bss          00000036  0080014c  0080014c  00007936  2**0
                  ALLOC
  3 .stab         00001ef0  00000000  00000000  00007938  2**2
                  CONTENTS, READONLY, DEBUGGING
  4 .stabstr      0000067d  00000000  00000000  00009828  2**0
                  CONTENTS, READONLY, DEBUGGING
  5 .comment      0000002f  00000000  00000000  00009ea5  2**0
                  CONTENTS, READONLY
  6 .debug_aranges 00000198  00000000  00000000  00009ed4  2**0
                  CONTENTS, READONLY, DEBUGGING
  7 .debug_info   00004dbd  00000000  00000000  0000a06c  2**0
                  CONTENTS, READONLY, DEBUGGING
  8 .debug_abbrev 000014a3  00000000  00000000  0000ee29  2**0
                  CONTENTS, READONLY, DEBUGGING
  9 .debug_line   0000188c  00000000  00000000  000102cc  2**0
                  CONTENTS, READONLY, DEBUGGING
 10 .debug_frame  00000b1c  00000000  00000000  00011b58  2**2
                  CONTENTS, READONLY, DEBUGGING
 11 .debug_str    0000070e  00000000  00000000  00012674  2**0
                  CONTENTS, READONLY, DEBUGGING
 12 .debug_loc    00002020  00000000  00000000  00012d82  2**0
                  CONTENTS, READONLY, DEBUGGING
 13 .debug_ranges 00000050  00000000  00000000  00014da2  2**0
                  CONTENTS, READONLY, DEBUGGING

Disassembly of section .text:

00000000 <__vectors>:
       0:	0c 94 73 00 	jmp	0xe6	; 0xe6 <__ctors_end>
       4:	0c 94 92 00 	jmp	0x124	; 0x124 <__bad_interrupt>
       8:	0c 94 92 00 	jmp	0x124	; 0x124 <__bad_interrupt>
       c:	0c 94 92 00 	jmp	0x124	; 0x124 <__bad_interrupt>
      10:	0c 94 92 00 	jmp	0x124	; 0x124 <__bad_interrupt>
      14:	0c 94 bc 01 	jmp	0x378	; 0x378 <__vector_5>
      18:	0c 94 80 01 	jmp	0x300	; 0x300 <__vector_6>
      1c:	0c 94 44 01 	jmp	0x288	; 0x288 <__vector_7>
      20:	0c 94 08 01 	jmp	0x210	; 0x210 <__vector_8>
      24:	0c 94 92 00 	jmp	0x124	; 0x124 <__bad_interrupt>
      28:	0c 94 92 00 	jmp	0x124	; 0x124 <__bad_interrupt>
      2c:	0c 94 92 00 	jmp	0x124	; 0x124 <__bad_interrupt>
      30:	0c 94 92 00 	jmp	0x124	; 0x124 <__bad_interrupt>
      34:	0c 94 92 00 	jmp	0x124	; 0x124 <__bad_interrupt>
      38:	0c 94 92 00 	jmp	0x124	; 0x124 <__bad_interrupt>
      3c:	0c 94 94 00 	jmp	0x128	; 0x128 <__vector_15>
      40:	0c 94 92 00 	jmp	0x124	; 0x124 <__bad_interrupt>
      44:	0c 94 92 00 	jmp	0x124	; 0x124 <__bad_interrupt>
      48:	0c 94 92 00 	jmp	0x124	; 0x124 <__bad_interrupt>
      4c:	0c 94 92 00 	jmp	0x124	; 0x124 <__bad_interrupt>
      50:	0c 94 92 00 	jmp	0x124	; 0x124 <__bad_interrupt>
      54:	0c 94 92 00 	jmp	0x124	; 0x124 <__bad_interrupt>
      58:	0c 94 92 00 	jmp	0x124	; 0x124 <__bad_interrupt>
      5c:	0c 94 92 00 	jmp	0x124	; 0x124 <__bad_interrupt>
      60:	0c 94 92 00 	jmp	0x124	; 0x124 <__bad_interrupt>
      64:	0c 94 92 00 	jmp	0x124	; 0x124 <__bad_interrupt>
      68:	0c 94 92 00 	jmp	0x124	; 0x124 <__bad_interrupt>
      6c:	0c 94 92 00 	jmp	0x124	; 0x124 <__bad_interrupt>
      70:	0c 94 92 00 	jmp	0x124	; 0x124 <__bad_interrupt>
      74:	0c 94 92 00 	jmp	0x124	; 0x124 <__bad_interrupt>
      78:	0c 94 92 00 	jmp	0x124	; 0x124 <__bad_interrupt>
      7c:	0c 94 92 00 	jmp	0x124	; 0x124 <__bad_interrupt>
      80:	0c 94 92 00 	jmp	0x124	; 0x124 <__bad_interrupt>
      84:	0c 94 92 00 	jmp	0x124	; 0x124 <__bad_interrupt>
      88:	0c 94 92 00 	jmp	0x124	; 0x124 <__bad_interrupt>
      8c:	08 00       	.word	0x0008	; ????
      8e:	00 00       	nop
      90:	be 92       	st	-X, r11
      92:	24 49       	sbci	r18, 0x94	; 148
      94:	12 3e       	cpi	r17, 0xE2	; 226
      96:	ab aa       	std	Y+51, r10	; 0x33
      98:	aa 2a       	or	r10, r26
      9a:	be cd       	rjmp	.-1156   	; 0xfffffc18 <__eeprom_end+0xff7efc18>
      9c:	cc cc       	rjmp	.-1640   	; 0xfffffa36 <__eeprom_end+0xff7efa36>
      9e:	4c 3e       	cpi	r20, 0xEC	; 236
      a0:	00 00       	nop
      a2:	00 80       	ld	r0, Z
      a4:	be ab       	std	Y+54, r27	; 0x36
      a6:	aa aa       	std	Y+50, r10	; 0x32
      a8:	aa 3e       	cpi	r26, 0xEA	; 234
      aa:	00 00       	nop
      ac:	00 00       	nop
      ae:	bf 00       	.word	0x00bf	; ????
      b0:	00 00       	nop
      b2:	80 3f       	cpi	r24, 0xF0	; 240
      b4:	00 00       	nop
      b6:	00 00       	nop
      b8:	00 08       	sbc	r0, r0
      ba:	41 78       	andi	r20, 0x81	; 129
      bc:	d3 bb       	out	0x13, r29	; 19
      be:	43 87       	std	Z+11, r20	; 0x0b
      c0:	d1 13       	cpse	r29, r17
      c2:	3d 19       	sub	r19, r13
      c4:	0e 3c       	cpi	r16, 0xCE	; 206
      c6:	c3 bd       	out	0x23, r28	; 35
      c8:	42 82       	std	Z+2, r4	; 0x02
      ca:	ad 2b       	or	r26, r29
      cc:	3e 68       	ori	r19, 0x8E	; 142
      ce:	ec 82       	std	Y+4, r14	; 0x04
      d0:	76 be       	out	0x36, r7	; 54
      d2:	d9 8f       	std	Y+25, r29	; 0x19
      d4:	e1 a9       	ldd	r30, Z+49	; 0x31
      d6:	3e 4c       	sbci	r19, 0xCE	; 206
      d8:	80 ef       	ldi	r24, 0xF0	; 240
      da:	ff be       	out	0x3f, r15	; 63
      dc:	01 c4       	rjmp	.+2050   	; 0x8e0 <writeChar+0xf6>
      de:	ff 7f       	andi	r31, 0xFF	; 255
      e0:	3f 00       	.word	0x003f	; ????
      e2:	00 00       	nop
	...

000000e6 <__ctors_end>:
      e6:	11 24       	eor	r1, r1
      e8:	1f be       	out	0x3f, r1	; 63
      ea:	cf ef       	ldi	r28, 0xFF	; 255
      ec:	d0 e1       	ldi	r29, 0x10	; 16
      ee:	de bf       	out	0x3e, r29	; 62
      f0:	cd bf       	out	0x3d, r28	; 61

000000f2 <__do_copy_data>:
      f2:	11 e0       	ldi	r17, 0x01	; 1
      f4:	a0 e0       	ldi	r26, 0x00	; 0
      f6:	b1 e0       	ldi	r27, 0x01	; 1
      f8:	e6 e5       	ldi	r30, 0x56	; 86
      fa:	f8 e7       	ldi	r31, 0x78	; 120
      fc:	00 e0       	ldi	r16, 0x00	; 0
      fe:	0b bf       	out	0x3b, r16	; 59
     100:	02 c0       	rjmp	.+4      	; 0x106 <__do_copy_data+0x14>
     102:	07 90       	elpm	r0, Z+
     104:	0d 92       	st	X+, r0
     106:	ac 34       	cpi	r26, 0x4C	; 76
     108:	b1 07       	cpc	r27, r17
     10a:	d9 f7       	brne	.-10     	; 0x102 <__do_copy_data+0x10>

0000010c <__do_clear_bss>:
     10c:	21 e0       	ldi	r18, 0x01	; 1
     10e:	ac e4       	ldi	r26, 0x4C	; 76
     110:	b1 e0       	ldi	r27, 0x01	; 1
     112:	01 c0       	rjmp	.+2      	; 0x116 <.do_clear_bss_start>

00000114 <.do_clear_bss_loop>:
     114:	1d 92       	st	X+, r1

00000116 <.do_clear_bss_start>:
     116:	a2 38       	cpi	r26, 0x82	; 130
     118:	b2 07       	cpc	r27, r18
     11a:	e1 f7       	brne	.-8      	; 0x114 <.do_clear_bss_loop>
     11c:	0e 94 0d 34 	call	0x681a	; 0x681a <main>
     120:	0c 94 29 3c 	jmp	0x7852	; 0x7852 <_exit>

00000124 <__bad_interrupt>:
     124:	0c 94 00 00 	jmp	0	; 0x0 <__vectors>

00000128 <__vector_15>:
	TCNT0 = 256 - (CPU_CLOCK/64/1000); //256 - 250 = 6
}
*/

ISR(TIMER0_COMP_vect) //compare match mode
{
     128:	1f 92       	push	r1
     12a:	0f 92       	push	r0
     12c:	00 90 5f 00 	lds	r0, 0x005F
     130:	0f 92       	push	r0
     132:	11 24       	eor	r1, r1
     134:	8f 93       	push	r24
     136:	9f 93       	push	r25
     138:	cf 93       	push	r28
     13a:	df 93       	push	r29
     13c:	cd b7       	in	r28, 0x3d	; 61
     13e:	de b7       	in	r29, 0x3e	; 62
	tic_time++;  
     140:	80 91 4c 01 	lds	r24, 0x014C
     144:	90 91 4d 01 	lds	r25, 0x014D
     148:	01 96       	adiw	r24, 0x01	; 1
     14a:	90 93 4d 01 	sts	0x014D, r25
     14e:	80 93 4c 01 	sts	0x014C, r24
}
     152:	df 91       	pop	r29
     154:	cf 91       	pop	r28
     156:	9f 91       	pop	r25
     158:	8f 91       	pop	r24
     15a:	0f 90       	pop	r0
     15c:	00 92 5f 00 	sts	0x005F, r0
     160:	0f 90       	pop	r0
     162:	1f 90       	pop	r1
     164:	18 95       	reti

00000166 <delay_s>:

void delay_s(unsigned int dsec) 
{
     166:	cf 93       	push	r28
     168:	df 93       	push	r29
     16a:	00 d0       	rcall	.+0      	; 0x16c <delay_s+0x6>
     16c:	cd b7       	in	r28, 0x3d	; 61
     16e:	de b7       	in	r29, 0x3e	; 62
     170:	9a 83       	std	Y+2, r25	; 0x02
     172:	89 83       	std	Y+1, r24	; 0x01
	tic_time = 0;   
     174:	10 92 4d 01 	sts	0x014D, r1
     178:	10 92 4c 01 	sts	0x014C, r1
	while(dsec > tic_time); 
     17c:	00 00       	nop
     17e:	80 91 4c 01 	lds	r24, 0x014C
     182:	90 91 4d 01 	lds	r25, 0x014D
     186:	29 81       	ldd	r18, Y+1	; 0x01
     188:	3a 81       	ldd	r19, Y+2	; 0x02
     18a:	82 17       	cp	r24, r18
     18c:	93 07       	cpc	r25, r19
     18e:	b8 f3       	brcs	.-18     	; 0x17e <delay_s+0x18>
}
     190:	0f 90       	pop	r0
     192:	0f 90       	pop	r0
     194:	df 91       	pop	r29
     196:	cf 91       	pop	r28
     198:	08 95       	ret

0000019a <Init_TIMEINT_OVF>:
 
//Timer/Counter Overflow mode Interrupt
void Init_TIMEINT_OVF()
{
     19a:	cf 93       	push	r28
     19c:	df 93       	push	r29
     19e:	cd b7       	in	r28, 0x3d	; 61
     1a0:	de b7       	in	r29, 0x3e	; 62
		
	TCCR0 = (1<<CS02) | (1<<CS01) | (1<<CS00); //1024 clock prescaler
     1a2:	83 e5       	ldi	r24, 0x53	; 83
     1a4:	90 e0       	ldi	r25, 0x00	; 0
     1a6:	27 e0       	ldi	r18, 0x07	; 7
     1a8:	fc 01       	movw	r30, r24
     1aa:	20 83       	st	Z, r18

	TCNT0 = 256 - (CPU_CLOCK/64/1000); //256 - 250 = 6
     1ac:	82 e5       	ldi	r24, 0x52	; 82
     1ae:	90 e0       	ldi	r25, 0x00	; 0
     1b0:	26 e0       	ldi	r18, 0x06	; 6
     1b2:	fc 01       	movw	r30, r24
     1b4:	20 83       	st	Z, r18

	TIMSK = (0<<OCIE0) | (1<<TOIE0); //Overflow mode enable
     1b6:	87 e5       	ldi	r24, 0x57	; 87
     1b8:	90 e0       	ldi	r25, 0x00	; 0
     1ba:	21 e0       	ldi	r18, 0x01	; 1
     1bc:	fc 01       	movw	r30, r24
     1be:	20 83       	st	Z, r18
	 
}
     1c0:	df 91       	pop	r29
     1c2:	cf 91       	pop	r28
     1c4:	08 95       	ret

000001c6 <Init_TIMEINT_CTC>:

//Timer/Counter CTC(Clear Timer on Compare Match)mode Interrupt
void Init_TIMEINT_CTC()
{
     1c6:	cf 93       	push	r28
     1c8:	df 93       	push	r29
     1ca:	cd b7       	in	r28, 0x3d	; 61
     1cc:	de b7       	in	r29, 0x3e	; 62
		
	TCCR0 = (0<<WGM00) | (1<<WGM01) | (1<<CS02) | (0<<CS01) | (0<CS00); //1024 clock prescaler
     1ce:	83 e5       	ldi	r24, 0x53	; 83
     1d0:	90 e0       	ldi	r25, 0x00	; 0
     1d2:	2c e0       	ldi	r18, 0x0C	; 12
     1d4:	fc 01       	movw	r30, r24
     1d6:	20 83       	st	Z, r18

	TIMSK = (1<<OCIE0) | (0<<TOIE0); //CompareMatch mode enable
     1d8:	87 e5       	ldi	r24, 0x57	; 87
     1da:	90 e0       	ldi	r25, 0x00	; 0
     1dc:	22 e0       	ldi	r18, 0x02	; 2
     1de:	fc 01       	movw	r30, r24
     1e0:	20 83       	st	Z, r18
	
	TCNT0 = 0;
     1e2:	82 e5       	ldi	r24, 0x52	; 82
     1e4:	90 e0       	ldi	r25, 0x00	; 0
     1e6:	fc 01       	movw	r30, r24
     1e8:	10 82       	st	Z, r1

	OCR0 = (CPU_CLOCK / 64 / 1000); //250
     1ea:	81 e5       	ldi	r24, 0x51	; 81
     1ec:	90 e0       	ldi	r25, 0x00	; 0
     1ee:	2a ef       	ldi	r18, 0xFA	; 250
     1f0:	fc 01       	movw	r30, r24
     1f2:	20 83       	st	Z, r18
}
     1f4:	df 91       	pop	r29
     1f6:	cf 91       	pop	r28
     1f8:	08 95       	ret

000001fa <Init_BUTTON>:
* EXTERNAL INTERRUPT Initial
* PORTE(0b11110000) - EICRB
*********************************************/

void Init_BUTTON()
{
     1fa:	cf 93       	push	r28
     1fc:	df 93       	push	r29
     1fe:	cd b7       	in	r28, 0x3d	; 61
     200:	de b7       	in	r29, 0x3e	; 62
	DDRE_BUTTON = 0x00;
     202:	82 e2       	ldi	r24, 0x22	; 34
     204:	90 e0       	ldi	r25, 0x00	; 0
     206:	fc 01       	movw	r30, r24
     208:	10 82       	st	Z, r1
}
     20a:	df 91       	pop	r29
     20c:	cf 91       	pop	r28
     20e:	08 95       	ret

00000210 <__vector_8>:


//External Interrupt KEY ISR
ISR(INT7_vect)//SIGNAL(SIG_INTERRUPT7) 
{	
     210:	1f 92       	push	r1
     212:	0f 92       	push	r0
     214:	00 90 5f 00 	lds	r0, 0x005F
     218:	0f 92       	push	r0
     21a:	11 24       	eor	r1, r1
     21c:	00 90 5b 00 	lds	r0, 0x005B
     220:	0f 92       	push	r0
     222:	2f 93       	push	r18
     224:	3f 93       	push	r19
     226:	4f 93       	push	r20
     228:	5f 93       	push	r21
     22a:	6f 93       	push	r22
     22c:	7f 93       	push	r23
     22e:	8f 93       	push	r24
     230:	9f 93       	push	r25
     232:	af 93       	push	r26
     234:	bf 93       	push	r27
     236:	ef 93       	push	r30
     238:	ff 93       	push	r31
     23a:	cf 93       	push	r28
     23c:	df 93       	push	r29
     23e:	cd b7       	in	r28, 0x3d	; 61
     240:	de b7       	in	r29, 0x3e	; 62
	//KEY 7 : 에어컨 LV.3

	setPosition(1,0);
     242:	60 e0       	ldi	r22, 0x00	; 0
     244:	70 e0       	ldi	r23, 0x00	; 0
     246:	81 e0       	ldi	r24, 0x01	; 1
     248:	90 e0       	ldi	r25, 0x00	; 0
     24a:	0e 94 aa 10 	call	0x2154	; 0x2154 <setPosition>
	waitBusy();
     24e:	0e 94 2c 08 	call	0x1058	; 0x1058 <waitBusy>
	writeSTR("YS Aircon LV3 ON");	
     252:	80 e0       	ldi	r24, 0x00	; 0
     254:	91 e0       	ldi	r25, 0x01	; 1
     256:	0e 94 38 06 	call	0xc70	; 0xc70 <writeSTR>
}
     25a:	df 91       	pop	r29
     25c:	cf 91       	pop	r28
     25e:	ff 91       	pop	r31
     260:	ef 91       	pop	r30
     262:	bf 91       	pop	r27
     264:	af 91       	pop	r26
     266:	9f 91       	pop	r25
     268:	8f 91       	pop	r24
     26a:	7f 91       	pop	r23
     26c:	6f 91       	pop	r22
     26e:	5f 91       	pop	r21
     270:	4f 91       	pop	r20
     272:	3f 91       	pop	r19
     274:	2f 91       	pop	r18
     276:	0f 90       	pop	r0
     278:	00 92 5b 00 	sts	0x005B, r0
     27c:	0f 90       	pop	r0
     27e:	00 92 5f 00 	sts	0x005F, r0
     282:	0f 90       	pop	r0
     284:	1f 90       	pop	r1
     286:	18 95       	reti

00000288 <__vector_7>:

ISR(INT6_vect)//SIGNAL(SIG_INTERRUPT6)  
{	
     288:	1f 92       	push	r1
     28a:	0f 92       	push	r0
     28c:	00 90 5f 00 	lds	r0, 0x005F
     290:	0f 92       	push	r0
     292:	11 24       	eor	r1, r1
     294:	00 90 5b 00 	lds	r0, 0x005B
     298:	0f 92       	push	r0
     29a:	2f 93       	push	r18
     29c:	3f 93       	push	r19
     29e:	4f 93       	push	r20
     2a0:	5f 93       	push	r21
     2a2:	6f 93       	push	r22
     2a4:	7f 93       	push	r23
     2a6:	8f 93       	push	r24
     2a8:	9f 93       	push	r25
     2aa:	af 93       	push	r26
     2ac:	bf 93       	push	r27
     2ae:	ef 93       	push	r30
     2b0:	ff 93       	push	r31
     2b2:	cf 93       	push	r28
     2b4:	df 93       	push	r29
     2b6:	cd b7       	in	r28, 0x3d	; 61
     2b8:	de b7       	in	r29, 0x3e	; 62
	//KEY 6 : 에어컨 LV.2

	setPosition(1,0);
     2ba:	60 e0       	ldi	r22, 0x00	; 0
     2bc:	70 e0       	ldi	r23, 0x00	; 0
     2be:	81 e0       	ldi	r24, 0x01	; 1
     2c0:	90 e0       	ldi	r25, 0x00	; 0
     2c2:	0e 94 aa 10 	call	0x2154	; 0x2154 <setPosition>
	waitBusy();
     2c6:	0e 94 2c 08 	call	0x1058	; 0x1058 <waitBusy>
	writeSTR("YS Aircon LV2 ON");	
     2ca:	81 e1       	ldi	r24, 0x11	; 17
     2cc:	91 e0       	ldi	r25, 0x01	; 1
     2ce:	0e 94 38 06 	call	0xc70	; 0xc70 <writeSTR>
 
}
     2d2:	df 91       	pop	r29
     2d4:	cf 91       	pop	r28
     2d6:	ff 91       	pop	r31
     2d8:	ef 91       	pop	r30
     2da:	bf 91       	pop	r27
     2dc:	af 91       	pop	r26
     2de:	9f 91       	pop	r25
     2e0:	8f 91       	pop	r24
     2e2:	7f 91       	pop	r23
     2e4:	6f 91       	pop	r22
     2e6:	5f 91       	pop	r21
     2e8:	4f 91       	pop	r20
     2ea:	3f 91       	pop	r19
     2ec:	2f 91       	pop	r18
     2ee:	0f 90       	pop	r0
     2f0:	00 92 5b 00 	sts	0x005B, r0
     2f4:	0f 90       	pop	r0
     2f6:	00 92 5f 00 	sts	0x005F, r0
     2fa:	0f 90       	pop	r0
     2fc:	1f 90       	pop	r1
     2fe:	18 95       	reti

00000300 <__vector_6>:

ISR(INT5_vect)//SIGNAL(SIG_INTERRUPT5)
{
     300:	1f 92       	push	r1
     302:	0f 92       	push	r0
     304:	00 90 5f 00 	lds	r0, 0x005F
     308:	0f 92       	push	r0
     30a:	11 24       	eor	r1, r1
     30c:	00 90 5b 00 	lds	r0, 0x005B
     310:	0f 92       	push	r0
     312:	2f 93       	push	r18
     314:	3f 93       	push	r19
     316:	4f 93       	push	r20
     318:	5f 93       	push	r21
     31a:	6f 93       	push	r22
     31c:	7f 93       	push	r23
     31e:	8f 93       	push	r24
     320:	9f 93       	push	r25
     322:	af 93       	push	r26
     324:	bf 93       	push	r27
     326:	ef 93       	push	r30
     328:	ff 93       	push	r31
     32a:	cf 93       	push	r28
     32c:	df 93       	push	r29
     32e:	cd b7       	in	r28, 0x3d	; 61
     330:	de b7       	in	r29, 0x3e	; 62
	//KEY 5 : 에어컨 LV.1
	
	setPosition(1,0);
     332:	60 e0       	ldi	r22, 0x00	; 0
     334:	70 e0       	ldi	r23, 0x00	; 0
     336:	81 e0       	ldi	r24, 0x01	; 1
     338:	90 e0       	ldi	r25, 0x00	; 0
     33a:	0e 94 aa 10 	call	0x2154	; 0x2154 <setPosition>
	waitBusy();
     33e:	0e 94 2c 08 	call	0x1058	; 0x1058 <waitBusy>
	writeSTR("YS Aircon LV1 ON");	
     342:	82 e2       	ldi	r24, 0x22	; 34
     344:	91 e0       	ldi	r25, 0x01	; 1
     346:	0e 94 38 06 	call	0xc70	; 0xc70 <writeSTR>
 
}
     34a:	df 91       	pop	r29
     34c:	cf 91       	pop	r28
     34e:	ff 91       	pop	r31
     350:	ef 91       	pop	r30
     352:	bf 91       	pop	r27
     354:	af 91       	pop	r26
     356:	9f 91       	pop	r25
     358:	8f 91       	pop	r24
     35a:	7f 91       	pop	r23
     35c:	6f 91       	pop	r22
     35e:	5f 91       	pop	r21
     360:	4f 91       	pop	r20
     362:	3f 91       	pop	r19
     364:	2f 91       	pop	r18
     366:	0f 90       	pop	r0
     368:	00 92 5b 00 	sts	0x005B, r0
     36c:	0f 90       	pop	r0
     36e:	00 92 5f 00 	sts	0x005F, r0
     372:	0f 90       	pop	r0
     374:	1f 90       	pop	r1
     376:	18 95       	reti

00000378 <__vector_5>:

ISR(INT4_vect)//SIGNAL(SIG_INTERRUPT4)
{
     378:	1f 92       	push	r1
     37a:	0f 92       	push	r0
     37c:	00 90 5f 00 	lds	r0, 0x005F
     380:	0f 92       	push	r0
     382:	11 24       	eor	r1, r1
     384:	00 90 5b 00 	lds	r0, 0x005B
     388:	0f 92       	push	r0
     38a:	2f 93       	push	r18
     38c:	3f 93       	push	r19
     38e:	4f 93       	push	r20
     390:	5f 93       	push	r21
     392:	6f 93       	push	r22
     394:	7f 93       	push	r23
     396:	8f 93       	push	r24
     398:	9f 93       	push	r25
     39a:	af 93       	push	r26
     39c:	bf 93       	push	r27
     39e:	ef 93       	push	r30
     3a0:	ff 93       	push	r31
     3a2:	cf 93       	push	r28
     3a4:	df 93       	push	r29
     3a6:	cd b7       	in	r28, 0x3d	; 61
     3a8:	de b7       	in	r29, 0x3e	; 62
	//KEY 4 : 에어컨 OFF
	
	setPosition(1,0);
     3aa:	60 e0       	ldi	r22, 0x00	; 0
     3ac:	70 e0       	ldi	r23, 0x00	; 0
     3ae:	81 e0       	ldi	r24, 0x01	; 1
     3b0:	90 e0       	ldi	r25, 0x00	; 0
     3b2:	0e 94 aa 10 	call	0x2154	; 0x2154 <setPosition>
	waitBusy();
     3b6:	0e 94 2c 08 	call	0x1058	; 0x1058 <waitBusy>
	writeSTR("YS Aircon LV OFF");
     3ba:	83 e3       	ldi	r24, 0x33	; 51
     3bc:	91 e0       	ldi	r25, 0x01	; 1
     3be:	0e 94 38 06 	call	0xc70	; 0xc70 <writeSTR>
 	
}
     3c2:	df 91       	pop	r29
     3c4:	cf 91       	pop	r28
     3c6:	ff 91       	pop	r31
     3c8:	ef 91       	pop	r30
     3ca:	bf 91       	pop	r27
     3cc:	af 91       	pop	r26
     3ce:	9f 91       	pop	r25
     3d0:	8f 91       	pop	r24
     3d2:	7f 91       	pop	r23
     3d4:	6f 91       	pop	r22
     3d6:	5f 91       	pop	r21
     3d8:	4f 91       	pop	r20
     3da:	3f 91       	pop	r19
     3dc:	2f 91       	pop	r18
     3de:	0f 90       	pop	r0
     3e0:	00 92 5b 00 	sts	0x005B, r0
     3e4:	0f 90       	pop	r0
     3e6:	00 92 5f 00 	sts	0x005F, r0
     3ea:	0f 90       	pop	r0
     3ec:	1f 90       	pop	r1
     3ee:	18 95       	reti

000003f0 <Init_EXT_ISR>:

//External Interrupt Initial
void Init_EXT_ISR()
{
     3f0:	cf 93       	push	r28
     3f2:	df 93       	push	r29
     3f4:	cd b7       	in	r28, 0x3d	; 61
     3f6:	de b7       	in	r29, 0x3e	; 62
	//External Interrupt Mask Reg.
	EIMSK = (1<<INT7) | (1<<INT6) | (1<<INT5) | (1<<INT4); 
     3f8:	89 e5       	ldi	r24, 0x59	; 89
     3fa:	90 e0       	ldi	r25, 0x00	; 0
     3fc:	20 ef       	ldi	r18, 0xF0	; 240
     3fe:	fc 01       	movw	r30, r24
     400:	20 83       	st	Z, r18
	
	//External Interrupt Control trigger Reg. B 
	EICRB = (1<<ISC71) | (1<<ISC70) | (1<<ISC61) | (1<<ISC60) | 
     402:	8a e5       	ldi	r24, 0x5A	; 90
     404:	90 e0       	ldi	r25, 0x00	; 0
     406:	2f ef       	ldi	r18, 0xFF	; 255
     408:	fc 01       	movw	r30, r24
     40a:	20 83       	st	Z, r18
			(1<<ISC51) | (1<<ISC50) | (1<<ISC41) | (1<<ISC40);	
}
     40c:	df 91       	pop	r29
     40e:	cf 91       	pop	r28
     410:	08 95       	ret

00000412 <portOut>:
#define BV(bit)			(1<<(bit))  	    //어떠한 bit를 1비트 Shift 시키는 동작
#define cbi(reg,bit)	reg &= ~(BV(bit))  //특정(reg) bit를 0으로 만드는 것     
#define sbi(reg,bit)	reg |= (BV(bit))   //특정(reg) bit를 1으로 만드는 것

void portOut(void)
{
     412:	cf 93       	push	r28
     414:	df 93       	push	r29
     416:	cd b7       	in	r28, 0x3d	; 61
     418:	de b7       	in	r29, 0x3e	; 62
      DDRA = 0xFF;	// PORTA를 출력으로
     41a:	8a e3       	ldi	r24, 0x3A	; 58
     41c:	90 e0       	ldi	r25, 0x00	; 0
     41e:	2f ef       	ldi	r18, 0xFF	; 255
     420:	fc 01       	movw	r30, r24
     422:	20 83       	st	Z, r18
      DDRC = 0x0F;	// PORTG의 하위 4비트를 출력으로 //0xFF
     424:	84 e3       	ldi	r24, 0x34	; 52
     426:	90 e0       	ldi	r25, 0x00	; 0
     428:	2f e0       	ldi	r18, 0x0F	; 15
     42a:	fc 01       	movw	r30, r24
     42c:	20 83       	st	Z, r18
}
     42e:	df 91       	pop	r29
     430:	cf 91       	pop	r28
     432:	08 95       	ret

00000434 <portIn>:

void portIn(void)
{
     434:	cf 93       	push	r28
     436:	df 93       	push	r29
     438:	cd b7       	in	r28, 0x3d	; 61
     43a:	de b7       	in	r29, 0x3e	; 62
      DDRA = 0x00;	// PORTA를 입력으로
     43c:	8a e3       	ldi	r24, 0x3A	; 58
     43e:	90 e0       	ldi	r25, 0x00	; 0
     440:	fc 01       	movw	r30, r24
     442:	10 82       	st	Z, r1
      DDRC = 0x0F;	// PORTG의 하위 4비트를 출력으로 //0xFF
     444:	84 e3       	ldi	r24, 0x34	; 52
     446:	90 e0       	ldi	r25, 0x00	; 0
     448:	2f e0       	ldi	r18, 0x0F	; 15
     44a:	fc 01       	movw	r30, r24
     44c:	20 83       	st	Z, r18
}
     44e:	df 91       	pop	r29
     450:	cf 91       	pop	r28
     452:	08 95       	ret

00000454 <writeCTRL>:

void writeCTRL(unsigned char ch)  //LCD IR에 명령어 쓰기 
{
     454:	0f 93       	push	r16
     456:	1f 93       	push	r17
     458:	cf 93       	push	r28
     45a:	df 93       	push	r29
     45c:	cd b7       	in	r28, 0x3d	; 61
     45e:	de b7       	in	r29, 0x3e	; 62
     460:	e1 97       	sbiw	r28, 0x31	; 49
     462:	0f b6       	in	r0, 0x3f	; 63
     464:	f8 94       	cli
     466:	de bf       	out	0x3e, r29	; 62
     468:	0f be       	out	0x3f, r0	; 63
     46a:	cd bf       	out	0x3d, r28	; 61
     46c:	89 ab       	std	Y+49, r24	; 0x31
	sbi(LCD_CTRL, LCD_EN);  // LCD Enable //portg = 0b00000100;
     46e:	85 e3       	ldi	r24, 0x35	; 53
     470:	90 e0       	ldi	r25, 0x00	; 0
     472:	25 e3       	ldi	r18, 0x35	; 53
     474:	30 e0       	ldi	r19, 0x00	; 0
     476:	f9 01       	movw	r30, r18
     478:	20 81       	ld	r18, Z
     47a:	24 60       	ori	r18, 0x04	; 4
     47c:	fc 01       	movw	r30, r24
     47e:	20 83       	st	Z, r18
	cbi(LCD_CTRL, LCD_RW);
     480:	85 e3       	ldi	r24, 0x35	; 53
     482:	90 e0       	ldi	r25, 0x00	; 0
     484:	25 e3       	ldi	r18, 0x35	; 53
     486:	30 e0       	ldi	r19, 0x00	; 0
     488:	f9 01       	movw	r30, r18
     48a:	20 81       	ld	r18, Z
     48c:	2d 7f       	andi	r18, 0xFD	; 253
     48e:	fc 01       	movw	r30, r24
     490:	20 83       	st	Z, r18
	cbi(LCD_CTRL, LCD_RS);  // RS==0으로 명령어 쓰기 사이클
     492:	85 e3       	ldi	r24, 0x35	; 53
     494:	90 e0       	ldi	r25, 0x00	; 0
     496:	25 e3       	ldi	r18, 0x35	; 53
     498:	30 e0       	ldi	r19, 0x00	; 0
     49a:	f9 01       	movw	r30, r18
     49c:	20 81       	ld	r18, Z
     49e:	2e 7f       	andi	r18, 0xFE	; 254
     4a0:	fc 01       	movw	r30, r24
     4a2:	20 83       	st	Z, r18
     4a4:	80 e0       	ldi	r24, 0x00	; 0
     4a6:	90 e0       	ldi	r25, 0x00	; 0
     4a8:	a8 e4       	ldi	r26, 0x48	; 72
     4aa:	b2 e4       	ldi	r27, 0x42	; 66
     4ac:	89 83       	std	Y+1, r24	; 0x01
     4ae:	9a 83       	std	Y+2, r25	; 0x02
     4b0:	ab 83       	std	Y+3, r26	; 0x03
     4b2:	bc 83       	std	Y+4, r27	; 0x04
	#endif

	__builtin_avr_delay_cycles(__ticks_dc);

#else
	__tmp = ((F_CPU) / 3e6) * __us;
     4b4:	2b ea       	ldi	r18, 0xAB	; 171
     4b6:	3a ea       	ldi	r19, 0xAA	; 170
     4b8:	4a ea       	ldi	r20, 0xAA	; 170
     4ba:	50 e4       	ldi	r21, 0x40	; 64
     4bc:	69 81       	ldd	r22, Y+1	; 0x01
     4be:	7a 81       	ldd	r23, Y+2	; 0x02
     4c0:	8b 81       	ldd	r24, Y+3	; 0x03
     4c2:	9c 81       	ldd	r25, Y+4	; 0x04
     4c4:	0e 94 2d 36 	call	0x6c5a	; 0x6c5a <__mulsf3>
     4c8:	dc 01       	movw	r26, r24
     4ca:	cb 01       	movw	r24, r22
     4cc:	8d 83       	std	Y+5, r24	; 0x05
     4ce:	9e 83       	std	Y+6, r25	; 0x06
     4d0:	af 83       	std	Y+7, r26	; 0x07
     4d2:	b8 87       	std	Y+8, r27	; 0x08
	if (__tmp < 1.0)
     4d4:	20 e0       	ldi	r18, 0x00	; 0
     4d6:	30 e0       	ldi	r19, 0x00	; 0
     4d8:	40 e8       	ldi	r20, 0x80	; 128
     4da:	5f e3       	ldi	r21, 0x3F	; 63
     4dc:	6d 81       	ldd	r22, Y+5	; 0x05
     4de:	7e 81       	ldd	r23, Y+6	; 0x06
     4e0:	8f 81       	ldd	r24, Y+7	; 0x07
     4e2:	98 85       	ldd	r25, Y+8	; 0x08
     4e4:	0e 94 13 38 	call	0x7026	; 0x7026 <__ltsf2>
     4e8:	88 23       	and	r24, r24
     4ea:	1c f4       	brge	.+6      	; 0x4f2 <writeCTRL+0x9e>
		__ticks = 1;
     4ec:	81 e0       	ldi	r24, 0x01	; 1
     4ee:	89 87       	std	Y+9, r24	; 0x09
     4f0:	97 c0       	rjmp	.+302    	; 0x620 <writeCTRL+0x1cc>
	else if (__tmp > 255)
     4f2:	20 e0       	ldi	r18, 0x00	; 0
     4f4:	30 e0       	ldi	r19, 0x00	; 0
     4f6:	4f e7       	ldi	r20, 0x7F	; 127
     4f8:	53 e4       	ldi	r21, 0x43	; 67
     4fa:	6d 81       	ldd	r22, Y+5	; 0x05
     4fc:	7e 81       	ldd	r23, Y+6	; 0x06
     4fe:	8f 81       	ldd	r24, Y+7	; 0x07
     500:	98 85       	ldd	r25, Y+8	; 0x08
     502:	0e 94 b5 37 	call	0x6f6a	; 0x6f6a <__gtsf2>
     506:	18 16       	cp	r1, r24
     508:	0c f0       	brlt	.+2      	; 0x50c <writeCTRL+0xb8>
     50a:	81 c0       	rjmp	.+258    	; 0x60e <writeCTRL+0x1ba>
	{
		_delay_ms(__us / 1000.0);
     50c:	20 e0       	ldi	r18, 0x00	; 0
     50e:	30 e0       	ldi	r19, 0x00	; 0
     510:	4a e7       	ldi	r20, 0x7A	; 122
     512:	54 e4       	ldi	r21, 0x44	; 68
     514:	69 81       	ldd	r22, Y+1	; 0x01
     516:	7a 81       	ldd	r23, Y+2	; 0x02
     518:	8b 81       	ldd	r24, Y+3	; 0x03
     51a:	9c 81       	ldd	r25, Y+4	; 0x04
     51c:	0e 94 12 37 	call	0x6e24	; 0x6e24 <__divsf3>
     520:	dc 01       	movw	r26, r24
     522:	cb 01       	movw	r24, r22
     524:	8a 87       	std	Y+10, r24	; 0x0a
     526:	9b 87       	std	Y+11, r25	; 0x0b
     528:	ac 87       	std	Y+12, r26	; 0x0c
     52a:	bd 87       	std	Y+13, r27	; 0x0d
	#endif

	__builtin_avr_delay_cycles(__ticks_dc);

#else
	__tmp = ((F_CPU) / 4e3) * __ms;
     52c:	20 e0       	ldi	r18, 0x00	; 0
     52e:	30 e0       	ldi	r19, 0x00	; 0
     530:	4a e7       	ldi	r20, 0x7A	; 122
     532:	55 e4       	ldi	r21, 0x45	; 69
     534:	6a 85       	ldd	r22, Y+10	; 0x0a
     536:	7b 85       	ldd	r23, Y+11	; 0x0b
     538:	8c 85       	ldd	r24, Y+12	; 0x0c
     53a:	9d 85       	ldd	r25, Y+13	; 0x0d
     53c:	0e 94 2d 36 	call	0x6c5a	; 0x6c5a <__mulsf3>
     540:	dc 01       	movw	r26, r24
     542:	cb 01       	movw	r24, r22
     544:	8e 87       	std	Y+14, r24	; 0x0e
     546:	9f 87       	std	Y+15, r25	; 0x0f
     548:	a8 8b       	std	Y+16, r26	; 0x10
     54a:	b9 8b       	std	Y+17, r27	; 0x11
	if (__tmp < 1.0)
     54c:	20 e0       	ldi	r18, 0x00	; 0
     54e:	30 e0       	ldi	r19, 0x00	; 0
     550:	40 e8       	ldi	r20, 0x80	; 128
     552:	5f e3       	ldi	r21, 0x3F	; 63
     554:	6e 85       	ldd	r22, Y+14	; 0x0e
     556:	7f 85       	ldd	r23, Y+15	; 0x0f
     558:	88 89       	ldd	r24, Y+16	; 0x10
     55a:	99 89       	ldd	r25, Y+17	; 0x11
     55c:	0e 94 13 38 	call	0x7026	; 0x7026 <__ltsf2>
     560:	88 23       	and	r24, r24
     562:	2c f4       	brge	.+10     	; 0x56e <writeCTRL+0x11a>
		__ticks = 1;
     564:	81 e0       	ldi	r24, 0x01	; 1
     566:	90 e0       	ldi	r25, 0x00	; 0
     568:	9b 8b       	std	Y+19, r25	; 0x13
     56a:	8a 8b       	std	Y+18, r24	; 0x12
     56c:	42 c0       	rjmp	.+132    	; 0x5f2 <writeCTRL+0x19e>
	else if (__tmp > 65535)
     56e:	20 e0       	ldi	r18, 0x00	; 0
     570:	3f ef       	ldi	r19, 0xFF	; 255
     572:	4f e7       	ldi	r20, 0x7F	; 127
     574:	57 e4       	ldi	r21, 0x47	; 71
     576:	6e 85       	ldd	r22, Y+14	; 0x0e
     578:	7f 85       	ldd	r23, Y+15	; 0x0f
     57a:	88 89       	ldd	r24, Y+16	; 0x10
     57c:	99 89       	ldd	r25, Y+17	; 0x11
     57e:	0e 94 b5 37 	call	0x6f6a	; 0x6f6a <__gtsf2>
     582:	18 16       	cp	r1, r24
     584:	64 f5       	brge	.+88     	; 0x5de <writeCTRL+0x18a>
	{
		//	__ticks = requested delay in 1/10 ms
		__ticks = (uint16_t) (__ms * 10.0);
     586:	20 e0       	ldi	r18, 0x00	; 0
     588:	30 e0       	ldi	r19, 0x00	; 0
     58a:	40 e2       	ldi	r20, 0x20	; 32
     58c:	51 e4       	ldi	r21, 0x41	; 65
     58e:	6a 85       	ldd	r22, Y+10	; 0x0a
     590:	7b 85       	ldd	r23, Y+11	; 0x0b
     592:	8c 85       	ldd	r24, Y+12	; 0x0c
     594:	9d 85       	ldd	r25, Y+13	; 0x0d
     596:	0e 94 2d 36 	call	0x6c5a	; 0x6c5a <__mulsf3>
     59a:	dc 01       	movw	r26, r24
     59c:	cb 01       	movw	r24, r22
     59e:	bc 01       	movw	r22, r24
     5a0:	cd 01       	movw	r24, r26
     5a2:	0e 94 48 34 	call	0x6890	; 0x6890 <__fixunssfsi>
     5a6:	dc 01       	movw	r26, r24
     5a8:	cb 01       	movw	r24, r22
     5aa:	9b 8b       	std	Y+19, r25	; 0x13
     5ac:	8a 8b       	std	Y+18, r24	; 0x12
     5ae:	12 c0       	rjmp	.+36     	; 0x5d4 <writeCTRL+0x180>
     5b0:	80 e9       	ldi	r24, 0x90	; 144
     5b2:	91 e0       	ldi	r25, 0x01	; 1
     5b4:	9d 8b       	std	Y+21, r25	; 0x15
     5b6:	8c 8b       	std	Y+20, r24	; 0x14
    milliseconds can be achieved.
 */
void
_delay_loop_2(uint16_t __count)
{
	__asm__ volatile (
     5b8:	8c 89       	ldd	r24, Y+20	; 0x14
     5ba:	9d 89       	ldd	r25, Y+21	; 0x15
     5bc:	8c 01       	movw	r16, r24
     5be:	c8 01       	movw	r24, r16
     5c0:	01 97       	sbiw	r24, 0x01	; 1
     5c2:	f1 f7       	brne	.-4      	; 0x5c0 <writeCTRL+0x16c>
     5c4:	8c 01       	movw	r16, r24
     5c6:	1d 8b       	std	Y+21, r17	; 0x15
     5c8:	0c 8b       	std	Y+20, r16	; 0x14
		while(__ticks)
		{
			// wait 1/10 ms
			_delay_loop_2(((F_CPU) / 4e3) / 10);
			__ticks --;
     5ca:	8a 89       	ldd	r24, Y+18	; 0x12
     5cc:	9b 89       	ldd	r25, Y+19	; 0x13
     5ce:	01 97       	sbiw	r24, 0x01	; 1
     5d0:	9b 8b       	std	Y+19, r25	; 0x13
     5d2:	8a 8b       	std	Y+18, r24	; 0x12
		__ticks = 1;
	else if (__tmp > 65535)
	{
		//	__ticks = requested delay in 1/10 ms
		__ticks = (uint16_t) (__ms * 10.0);
		while(__ticks)
     5d4:	8a 89       	ldd	r24, Y+18	; 0x12
     5d6:	9b 89       	ldd	r25, Y+19	; 0x13
     5d8:	00 97       	sbiw	r24, 0x00	; 0
     5da:	51 f7       	brne	.-44     	; 0x5b0 <writeCTRL+0x15c>
     5dc:	28 c0       	rjmp	.+80     	; 0x62e <writeCTRL+0x1da>
			__ticks --;
		}
		return;
	}
	else
		__ticks = (uint16_t)__tmp;
     5de:	6e 85       	ldd	r22, Y+14	; 0x0e
     5e0:	7f 85       	ldd	r23, Y+15	; 0x0f
     5e2:	88 89       	ldd	r24, Y+16	; 0x10
     5e4:	99 89       	ldd	r25, Y+17	; 0x11
     5e6:	0e 94 48 34 	call	0x6890	; 0x6890 <__fixunssfsi>
     5ea:	dc 01       	movw	r26, r24
     5ec:	cb 01       	movw	r24, r22
     5ee:	9b 8b       	std	Y+19, r25	; 0x13
     5f0:	8a 8b       	std	Y+18, r24	; 0x12
     5f2:	8a 89       	ldd	r24, Y+18	; 0x12
     5f4:	9b 89       	ldd	r25, Y+19	; 0x13
     5f6:	9f 8b       	std	Y+23, r25	; 0x17
     5f8:	8e 8b       	std	Y+22, r24	; 0x16
     5fa:	8e 89       	ldd	r24, Y+22	; 0x16
     5fc:	9f 89       	ldd	r25, Y+23	; 0x17
     5fe:	8c 01       	movw	r16, r24
     600:	f8 01       	movw	r30, r16
     602:	31 97       	sbiw	r30, 0x01	; 1
     604:	f1 f7       	brne	.-4      	; 0x602 <writeCTRL+0x1ae>
     606:	8f 01       	movw	r16, r30
     608:	1f 8b       	std	Y+23, r17	; 0x17
     60a:	0e 8b       	std	Y+22, r16	; 0x16
     60c:	10 c0       	rjmp	.+32     	; 0x62e <writeCTRL+0x1da>
	{
		_delay_ms(__us / 1000.0);
		return;
	}
	else
		__ticks = (uint8_t)__tmp;
     60e:	6d 81       	ldd	r22, Y+5	; 0x05
     610:	7e 81       	ldd	r23, Y+6	; 0x06
     612:	8f 81       	ldd	r24, Y+7	; 0x07
     614:	98 85       	ldd	r25, Y+8	; 0x08
     616:	0e 94 48 34 	call	0x6890	; 0x6890 <__fixunssfsi>
     61a:	dc 01       	movw	r26, r24
     61c:	cb 01       	movw	r24, r22
     61e:	89 87       	std	Y+9, r24	; 0x09
     620:	89 85       	ldd	r24, Y+9	; 0x09
     622:	88 8f       	std	Y+24, r24	; 0x18
    can be achieved.
*/
void
_delay_loop_1(uint8_t __count)
{
	__asm__ volatile (
     624:	88 8d       	ldd	r24, Y+24	; 0x18
     626:	18 2f       	mov	r17, r24
     628:	1a 95       	dec	r17
     62a:	f1 f7       	brne	.-4      	; 0x628 <writeCTRL+0x1d4>
     62c:	18 8f       	std	Y+24, r17	; 0x18
	_delay_us(50);

	LCD_INST= ch;  //PORTA = 0b00000001;
     62e:	8b e3       	ldi	r24, 0x3B	; 59
     630:	90 e0       	ldi	r25, 0x00	; 0
     632:	29 a9       	ldd	r18, Y+49	; 0x31
     634:	fc 01       	movw	r30, r24
     636:	20 83       	st	Z, r18
     638:	80 e0       	ldi	r24, 0x00	; 0
     63a:	90 e0       	ldi	r25, 0x00	; 0
     63c:	a8 e4       	ldi	r26, 0x48	; 72
     63e:	b2 e4       	ldi	r27, 0x42	; 66
     640:	89 8f       	std	Y+25, r24	; 0x19
     642:	9a 8f       	std	Y+26, r25	; 0x1a
     644:	ab 8f       	std	Y+27, r26	; 0x1b
     646:	bc 8f       	std	Y+28, r27	; 0x1c
	#endif

	__builtin_avr_delay_cycles(__ticks_dc);

#else
	__tmp = ((F_CPU) / 3e6) * __us;
     648:	2b ea       	ldi	r18, 0xAB	; 171
     64a:	3a ea       	ldi	r19, 0xAA	; 170
     64c:	4a ea       	ldi	r20, 0xAA	; 170
     64e:	50 e4       	ldi	r21, 0x40	; 64
     650:	69 8d       	ldd	r22, Y+25	; 0x19
     652:	7a 8d       	ldd	r23, Y+26	; 0x1a
     654:	8b 8d       	ldd	r24, Y+27	; 0x1b
     656:	9c 8d       	ldd	r25, Y+28	; 0x1c
     658:	0e 94 2d 36 	call	0x6c5a	; 0x6c5a <__mulsf3>
     65c:	dc 01       	movw	r26, r24
     65e:	cb 01       	movw	r24, r22
     660:	8d 8f       	std	Y+29, r24	; 0x1d
     662:	9e 8f       	std	Y+30, r25	; 0x1e
     664:	af 8f       	std	Y+31, r26	; 0x1f
     666:	b8 a3       	std	Y+32, r27	; 0x20
	if (__tmp < 1.0)
     668:	20 e0       	ldi	r18, 0x00	; 0
     66a:	30 e0       	ldi	r19, 0x00	; 0
     66c:	40 e8       	ldi	r20, 0x80	; 128
     66e:	5f e3       	ldi	r21, 0x3F	; 63
     670:	6d 8d       	ldd	r22, Y+29	; 0x1d
     672:	7e 8d       	ldd	r23, Y+30	; 0x1e
     674:	8f 8d       	ldd	r24, Y+31	; 0x1f
     676:	98 a1       	ldd	r25, Y+32	; 0x20
     678:	0e 94 13 38 	call	0x7026	; 0x7026 <__ltsf2>
     67c:	88 23       	and	r24, r24
     67e:	1c f4       	brge	.+6      	; 0x686 <writeCTRL+0x232>
		__ticks = 1;
     680:	81 e0       	ldi	r24, 0x01	; 1
     682:	89 a3       	std	Y+33, r24	; 0x21
     684:	97 c0       	rjmp	.+302    	; 0x7b4 <writeCTRL+0x360>
	else if (__tmp > 255)
     686:	20 e0       	ldi	r18, 0x00	; 0
     688:	30 e0       	ldi	r19, 0x00	; 0
     68a:	4f e7       	ldi	r20, 0x7F	; 127
     68c:	53 e4       	ldi	r21, 0x43	; 67
     68e:	6d 8d       	ldd	r22, Y+29	; 0x1d
     690:	7e 8d       	ldd	r23, Y+30	; 0x1e
     692:	8f 8d       	ldd	r24, Y+31	; 0x1f
     694:	98 a1       	ldd	r25, Y+32	; 0x20
     696:	0e 94 b5 37 	call	0x6f6a	; 0x6f6a <__gtsf2>
     69a:	18 16       	cp	r1, r24
     69c:	0c f0       	brlt	.+2      	; 0x6a0 <writeCTRL+0x24c>
     69e:	81 c0       	rjmp	.+258    	; 0x7a2 <writeCTRL+0x34e>
	{
		_delay_ms(__us / 1000.0);
     6a0:	20 e0       	ldi	r18, 0x00	; 0
     6a2:	30 e0       	ldi	r19, 0x00	; 0
     6a4:	4a e7       	ldi	r20, 0x7A	; 122
     6a6:	54 e4       	ldi	r21, 0x44	; 68
     6a8:	69 8d       	ldd	r22, Y+25	; 0x19
     6aa:	7a 8d       	ldd	r23, Y+26	; 0x1a
     6ac:	8b 8d       	ldd	r24, Y+27	; 0x1b
     6ae:	9c 8d       	ldd	r25, Y+28	; 0x1c
     6b0:	0e 94 12 37 	call	0x6e24	; 0x6e24 <__divsf3>
     6b4:	dc 01       	movw	r26, r24
     6b6:	cb 01       	movw	r24, r22
     6b8:	8a a3       	std	Y+34, r24	; 0x22
     6ba:	9b a3       	std	Y+35, r25	; 0x23
     6bc:	ac a3       	std	Y+36, r26	; 0x24
     6be:	bd a3       	std	Y+37, r27	; 0x25
	#endif

	__builtin_avr_delay_cycles(__ticks_dc);

#else
	__tmp = ((F_CPU) / 4e3) * __ms;
     6c0:	20 e0       	ldi	r18, 0x00	; 0
     6c2:	30 e0       	ldi	r19, 0x00	; 0
     6c4:	4a e7       	ldi	r20, 0x7A	; 122
     6c6:	55 e4       	ldi	r21, 0x45	; 69
     6c8:	6a a1       	ldd	r22, Y+34	; 0x22
     6ca:	7b a1       	ldd	r23, Y+35	; 0x23
     6cc:	8c a1       	ldd	r24, Y+36	; 0x24
     6ce:	9d a1       	ldd	r25, Y+37	; 0x25
     6d0:	0e 94 2d 36 	call	0x6c5a	; 0x6c5a <__mulsf3>
     6d4:	dc 01       	movw	r26, r24
     6d6:	cb 01       	movw	r24, r22
     6d8:	8e a3       	std	Y+38, r24	; 0x26
     6da:	9f a3       	std	Y+39, r25	; 0x27
     6dc:	a8 a7       	std	Y+40, r26	; 0x28
     6de:	b9 a7       	std	Y+41, r27	; 0x29
	if (__tmp < 1.0)
     6e0:	20 e0       	ldi	r18, 0x00	; 0
     6e2:	30 e0       	ldi	r19, 0x00	; 0
     6e4:	40 e8       	ldi	r20, 0x80	; 128
     6e6:	5f e3       	ldi	r21, 0x3F	; 63
     6e8:	6e a1       	ldd	r22, Y+38	; 0x26
     6ea:	7f a1       	ldd	r23, Y+39	; 0x27
     6ec:	88 a5       	ldd	r24, Y+40	; 0x28
     6ee:	99 a5       	ldd	r25, Y+41	; 0x29
     6f0:	0e 94 13 38 	call	0x7026	; 0x7026 <__ltsf2>
     6f4:	88 23       	and	r24, r24
     6f6:	2c f4       	brge	.+10     	; 0x702 <writeCTRL+0x2ae>
		__ticks = 1;
     6f8:	81 e0       	ldi	r24, 0x01	; 1
     6fa:	90 e0       	ldi	r25, 0x00	; 0
     6fc:	9b a7       	std	Y+43, r25	; 0x2b
     6fe:	8a a7       	std	Y+42, r24	; 0x2a
     700:	42 c0       	rjmp	.+132    	; 0x786 <writeCTRL+0x332>
	else if (__tmp > 65535)
     702:	20 e0       	ldi	r18, 0x00	; 0
     704:	3f ef       	ldi	r19, 0xFF	; 255
     706:	4f e7       	ldi	r20, 0x7F	; 127
     708:	57 e4       	ldi	r21, 0x47	; 71
     70a:	6e a1       	ldd	r22, Y+38	; 0x26
     70c:	7f a1       	ldd	r23, Y+39	; 0x27
     70e:	88 a5       	ldd	r24, Y+40	; 0x28
     710:	99 a5       	ldd	r25, Y+41	; 0x29
     712:	0e 94 b5 37 	call	0x6f6a	; 0x6f6a <__gtsf2>
     716:	18 16       	cp	r1, r24
     718:	64 f5       	brge	.+88     	; 0x772 <writeCTRL+0x31e>
	{
		//	__ticks = requested delay in 1/10 ms
		__ticks = (uint16_t) (__ms * 10.0);
     71a:	20 e0       	ldi	r18, 0x00	; 0
     71c:	30 e0       	ldi	r19, 0x00	; 0
     71e:	40 e2       	ldi	r20, 0x20	; 32
     720:	51 e4       	ldi	r21, 0x41	; 65
     722:	6a a1       	ldd	r22, Y+34	; 0x22
     724:	7b a1       	ldd	r23, Y+35	; 0x23
     726:	8c a1       	ldd	r24, Y+36	; 0x24
     728:	9d a1       	ldd	r25, Y+37	; 0x25
     72a:	0e 94 2d 36 	call	0x6c5a	; 0x6c5a <__mulsf3>
     72e:	dc 01       	movw	r26, r24
     730:	cb 01       	movw	r24, r22
     732:	bc 01       	movw	r22, r24
     734:	cd 01       	movw	r24, r26
     736:	0e 94 48 34 	call	0x6890	; 0x6890 <__fixunssfsi>
     73a:	dc 01       	movw	r26, r24
     73c:	cb 01       	movw	r24, r22
     73e:	9b a7       	std	Y+43, r25	; 0x2b
     740:	8a a7       	std	Y+42, r24	; 0x2a
     742:	12 c0       	rjmp	.+36     	; 0x768 <writeCTRL+0x314>
     744:	80 e9       	ldi	r24, 0x90	; 144
     746:	91 e0       	ldi	r25, 0x01	; 1
     748:	9d a7       	std	Y+45, r25	; 0x2d
     74a:	8c a7       	std	Y+44, r24	; 0x2c
    milliseconds can be achieved.
 */
void
_delay_loop_2(uint16_t __count)
{
	__asm__ volatile (
     74c:	8c a5       	ldd	r24, Y+44	; 0x2c
     74e:	9d a5       	ldd	r25, Y+45	; 0x2d
     750:	8c 01       	movw	r16, r24
     752:	c8 01       	movw	r24, r16
     754:	01 97       	sbiw	r24, 0x01	; 1
     756:	f1 f7       	brne	.-4      	; 0x754 <writeCTRL+0x300>
     758:	8c 01       	movw	r16, r24
     75a:	1d a7       	std	Y+45, r17	; 0x2d
     75c:	0c a7       	std	Y+44, r16	; 0x2c
		while(__ticks)
		{
			// wait 1/10 ms
			_delay_loop_2(((F_CPU) / 4e3) / 10);
			__ticks --;
     75e:	8a a5       	ldd	r24, Y+42	; 0x2a
     760:	9b a5       	ldd	r25, Y+43	; 0x2b
     762:	01 97       	sbiw	r24, 0x01	; 1
     764:	9b a7       	std	Y+43, r25	; 0x2b
     766:	8a a7       	std	Y+42, r24	; 0x2a
		__ticks = 1;
	else if (__tmp > 65535)
	{
		//	__ticks = requested delay in 1/10 ms
		__ticks = (uint16_t) (__ms * 10.0);
		while(__ticks)
     768:	8a a5       	ldd	r24, Y+42	; 0x2a
     76a:	9b a5       	ldd	r25, Y+43	; 0x2b
     76c:	00 97       	sbiw	r24, 0x00	; 0
     76e:	51 f7       	brne	.-44     	; 0x744 <writeCTRL+0x2f0>
     770:	28 c0       	rjmp	.+80     	; 0x7c2 <writeCTRL+0x36e>
			__ticks --;
		}
		return;
	}
	else
		__ticks = (uint16_t)__tmp;
     772:	6e a1       	ldd	r22, Y+38	; 0x26
     774:	7f a1       	ldd	r23, Y+39	; 0x27
     776:	88 a5       	ldd	r24, Y+40	; 0x28
     778:	99 a5       	ldd	r25, Y+41	; 0x29
     77a:	0e 94 48 34 	call	0x6890	; 0x6890 <__fixunssfsi>
     77e:	dc 01       	movw	r26, r24
     780:	cb 01       	movw	r24, r22
     782:	9b a7       	std	Y+43, r25	; 0x2b
     784:	8a a7       	std	Y+42, r24	; 0x2a
     786:	8a a5       	ldd	r24, Y+42	; 0x2a
     788:	9b a5       	ldd	r25, Y+43	; 0x2b
     78a:	9f a7       	std	Y+47, r25	; 0x2f
     78c:	8e a7       	std	Y+46, r24	; 0x2e
     78e:	8e a5       	ldd	r24, Y+46	; 0x2e
     790:	9f a5       	ldd	r25, Y+47	; 0x2f
     792:	8c 01       	movw	r16, r24
     794:	f8 01       	movw	r30, r16
     796:	31 97       	sbiw	r30, 0x01	; 1
     798:	f1 f7       	brne	.-4      	; 0x796 <writeCTRL+0x342>
     79a:	8f 01       	movw	r16, r30
     79c:	1f a7       	std	Y+47, r17	; 0x2f
     79e:	0e a7       	std	Y+46, r16	; 0x2e
     7a0:	10 c0       	rjmp	.+32     	; 0x7c2 <writeCTRL+0x36e>
	{
		_delay_ms(__us / 1000.0);
		return;
	}
	else
		__ticks = (uint8_t)__tmp;
     7a2:	6d 8d       	ldd	r22, Y+29	; 0x1d
     7a4:	7e 8d       	ldd	r23, Y+30	; 0x1e
     7a6:	8f 8d       	ldd	r24, Y+31	; 0x1f
     7a8:	98 a1       	ldd	r25, Y+32	; 0x20
     7aa:	0e 94 48 34 	call	0x6890	; 0x6890 <__fixunssfsi>
     7ae:	dc 01       	movw	r26, r24
     7b0:	cb 01       	movw	r24, r22
     7b2:	89 a3       	std	Y+33, r24	; 0x21
     7b4:	89 a1       	ldd	r24, Y+33	; 0x21
     7b6:	88 ab       	std	Y+48, r24	; 0x30
    can be achieved.
*/
void
_delay_loop_1(uint8_t __count)
{
	__asm__ volatile (
     7b8:	88 a9       	ldd	r24, Y+48	; 0x30
     7ba:	18 2f       	mov	r17, r24
     7bc:	1a 95       	dec	r17
     7be:	f1 f7       	brne	.-4      	; 0x7bc <writeCTRL+0x368>
     7c0:	18 ab       	std	Y+48, r17	; 0x30
	_delay_us(50);

	cbi(LCD_CTRL, LCD_EN);  //LCD Disable	 
     7c2:	85 e3       	ldi	r24, 0x35	; 53
     7c4:	90 e0       	ldi	r25, 0x00	; 0
     7c6:	25 e3       	ldi	r18, 0x35	; 53
     7c8:	30 e0       	ldi	r19, 0x00	; 0
     7ca:	f9 01       	movw	r30, r18
     7cc:	20 81       	ld	r18, Z
     7ce:	2b 7f       	andi	r18, 0xFB	; 251
     7d0:	fc 01       	movw	r30, r24
     7d2:	20 83       	st	Z, r18
}
     7d4:	e1 96       	adiw	r28, 0x31	; 49
     7d6:	0f b6       	in	r0, 0x3f	; 63
     7d8:	f8 94       	cli
     7da:	de bf       	out	0x3e, r29	; 62
     7dc:	0f be       	out	0x3f, r0	; 63
     7de:	cd bf       	out	0x3d, r28	; 61
     7e0:	df 91       	pop	r29
     7e2:	cf 91       	pop	r28
     7e4:	1f 91       	pop	r17
     7e6:	0f 91       	pop	r16
     7e8:	08 95       	ret

000007ea <writeChar>:

void writeChar(unsigned char ch)  //LCD DR에 데이터 출력
{
     7ea:	0f 93       	push	r16
     7ec:	1f 93       	push	r17
     7ee:	cf 93       	push	r28
     7f0:	df 93       	push	r29
     7f2:	cd b7       	in	r28, 0x3d	; 61
     7f4:	de b7       	in	r29, 0x3e	; 62
     7f6:	ef 97       	sbiw	r28, 0x3f	; 63
     7f8:	0f b6       	in	r0, 0x3f	; 63
     7fa:	f8 94       	cli
     7fc:	de bf       	out	0x3e, r29	; 62
     7fe:	0f be       	out	0x3f, r0	; 63
     800:	cd bf       	out	0x3d, r28	; 61
     802:	8f af       	std	Y+63, r24	; 0x3f
	sbi(LCD_CTRL, LCD_EN);  //LCD Enable //PORTC = 0b00010;
     804:	85 e3       	ldi	r24, 0x35	; 53
     806:	90 e0       	ldi	r25, 0x00	; 0
     808:	25 e3       	ldi	r18, 0x35	; 53
     80a:	30 e0       	ldi	r19, 0x00	; 0
     80c:	f9 01       	movw	r30, r18
     80e:	20 81       	ld	r18, Z
     810:	24 60       	ori	r18, 0x04	; 4
     812:	fc 01       	movw	r30, r24
     814:	20 83       	st	Z, r18
	cbi(LCD_CTRL, LCD_RW);
     816:	85 e3       	ldi	r24, 0x35	; 53
     818:	90 e0       	ldi	r25, 0x00	; 0
     81a:	25 e3       	ldi	r18, 0x35	; 53
     81c:	30 e0       	ldi	r19, 0x00	; 0
     81e:	f9 01       	movw	r30, r18
     820:	20 81       	ld	r18, Z
     822:	2d 7f       	andi	r18, 0xFD	; 253
     824:	fc 01       	movw	r30, r24
     826:	20 83       	st	Z, r18
	sbi(LCD_CTRL, LCD_RS);  //RS=1, RW=0으로 데이터 쓰기 사이클
     828:	85 e3       	ldi	r24, 0x35	; 53
     82a:	90 e0       	ldi	r25, 0x00	; 0
     82c:	25 e3       	ldi	r18, 0x35	; 53
     82e:	30 e0       	ldi	r19, 0x00	; 0
     830:	f9 01       	movw	r30, r18
     832:	20 81       	ld	r18, Z
     834:	21 60       	ori	r18, 0x01	; 1
     836:	fc 01       	movw	r30, r24
     838:	20 83       	st	Z, r18
     83a:	80 e0       	ldi	r24, 0x00	; 0
     83c:	90 e0       	ldi	r25, 0x00	; 0
     83e:	a8 e4       	ldi	r26, 0x48	; 72
     840:	b2 e4       	ldi	r27, 0x42	; 66
     842:	89 83       	std	Y+1, r24	; 0x01
     844:	9a 83       	std	Y+2, r25	; 0x02
     846:	ab 83       	std	Y+3, r26	; 0x03
     848:	bc 83       	std	Y+4, r27	; 0x04
	#endif

	__builtin_avr_delay_cycles(__ticks_dc);

#else
	__tmp = ((F_CPU) / 3e6) * __us;
     84a:	2b ea       	ldi	r18, 0xAB	; 171
     84c:	3a ea       	ldi	r19, 0xAA	; 170
     84e:	4a ea       	ldi	r20, 0xAA	; 170
     850:	50 e4       	ldi	r21, 0x40	; 64
     852:	69 81       	ldd	r22, Y+1	; 0x01
     854:	7a 81       	ldd	r23, Y+2	; 0x02
     856:	8b 81       	ldd	r24, Y+3	; 0x03
     858:	9c 81       	ldd	r25, Y+4	; 0x04
     85a:	0e 94 2d 36 	call	0x6c5a	; 0x6c5a <__mulsf3>
     85e:	dc 01       	movw	r26, r24
     860:	cb 01       	movw	r24, r22
     862:	8d 83       	std	Y+5, r24	; 0x05
     864:	9e 83       	std	Y+6, r25	; 0x06
     866:	af 83       	std	Y+7, r26	; 0x07
     868:	b8 87       	std	Y+8, r27	; 0x08
	if (__tmp < 1.0)
     86a:	20 e0       	ldi	r18, 0x00	; 0
     86c:	30 e0       	ldi	r19, 0x00	; 0
     86e:	40 e8       	ldi	r20, 0x80	; 128
     870:	5f e3       	ldi	r21, 0x3F	; 63
     872:	6d 81       	ldd	r22, Y+5	; 0x05
     874:	7e 81       	ldd	r23, Y+6	; 0x06
     876:	8f 81       	ldd	r24, Y+7	; 0x07
     878:	98 85       	ldd	r25, Y+8	; 0x08
     87a:	0e 94 13 38 	call	0x7026	; 0x7026 <__ltsf2>
     87e:	88 23       	and	r24, r24
     880:	1c f4       	brge	.+6      	; 0x888 <writeChar+0x9e>
		__ticks = 1;
     882:	81 e0       	ldi	r24, 0x01	; 1
     884:	89 87       	std	Y+9, r24	; 0x09
     886:	97 c0       	rjmp	.+302    	; 0x9b6 <writeChar+0x1cc>
	else if (__tmp > 255)
     888:	20 e0       	ldi	r18, 0x00	; 0
     88a:	30 e0       	ldi	r19, 0x00	; 0
     88c:	4f e7       	ldi	r20, 0x7F	; 127
     88e:	53 e4       	ldi	r21, 0x43	; 67
     890:	6d 81       	ldd	r22, Y+5	; 0x05
     892:	7e 81       	ldd	r23, Y+6	; 0x06
     894:	8f 81       	ldd	r24, Y+7	; 0x07
     896:	98 85       	ldd	r25, Y+8	; 0x08
     898:	0e 94 b5 37 	call	0x6f6a	; 0x6f6a <__gtsf2>
     89c:	18 16       	cp	r1, r24
     89e:	0c f0       	brlt	.+2      	; 0x8a2 <writeChar+0xb8>
     8a0:	81 c0       	rjmp	.+258    	; 0x9a4 <writeChar+0x1ba>
	{
		_delay_ms(__us / 1000.0);
     8a2:	20 e0       	ldi	r18, 0x00	; 0
     8a4:	30 e0       	ldi	r19, 0x00	; 0
     8a6:	4a e7       	ldi	r20, 0x7A	; 122
     8a8:	54 e4       	ldi	r21, 0x44	; 68
     8aa:	69 81       	ldd	r22, Y+1	; 0x01
     8ac:	7a 81       	ldd	r23, Y+2	; 0x02
     8ae:	8b 81       	ldd	r24, Y+3	; 0x03
     8b0:	9c 81       	ldd	r25, Y+4	; 0x04
     8b2:	0e 94 12 37 	call	0x6e24	; 0x6e24 <__divsf3>
     8b6:	dc 01       	movw	r26, r24
     8b8:	cb 01       	movw	r24, r22
     8ba:	8a 87       	std	Y+10, r24	; 0x0a
     8bc:	9b 87       	std	Y+11, r25	; 0x0b
     8be:	ac 87       	std	Y+12, r26	; 0x0c
     8c0:	bd 87       	std	Y+13, r27	; 0x0d
	#endif

	__builtin_avr_delay_cycles(__ticks_dc);

#else
	__tmp = ((F_CPU) / 4e3) * __ms;
     8c2:	20 e0       	ldi	r18, 0x00	; 0
     8c4:	30 e0       	ldi	r19, 0x00	; 0
     8c6:	4a e7       	ldi	r20, 0x7A	; 122
     8c8:	55 e4       	ldi	r21, 0x45	; 69
     8ca:	6a 85       	ldd	r22, Y+10	; 0x0a
     8cc:	7b 85       	ldd	r23, Y+11	; 0x0b
     8ce:	8c 85       	ldd	r24, Y+12	; 0x0c
     8d0:	9d 85       	ldd	r25, Y+13	; 0x0d
     8d2:	0e 94 2d 36 	call	0x6c5a	; 0x6c5a <__mulsf3>
     8d6:	dc 01       	movw	r26, r24
     8d8:	cb 01       	movw	r24, r22
     8da:	8e 87       	std	Y+14, r24	; 0x0e
     8dc:	9f 87       	std	Y+15, r25	; 0x0f
     8de:	a8 8b       	std	Y+16, r26	; 0x10
     8e0:	b9 8b       	std	Y+17, r27	; 0x11
	if (__tmp < 1.0)
     8e2:	20 e0       	ldi	r18, 0x00	; 0
     8e4:	30 e0       	ldi	r19, 0x00	; 0
     8e6:	40 e8       	ldi	r20, 0x80	; 128
     8e8:	5f e3       	ldi	r21, 0x3F	; 63
     8ea:	6e 85       	ldd	r22, Y+14	; 0x0e
     8ec:	7f 85       	ldd	r23, Y+15	; 0x0f
     8ee:	88 89       	ldd	r24, Y+16	; 0x10
     8f0:	99 89       	ldd	r25, Y+17	; 0x11
     8f2:	0e 94 13 38 	call	0x7026	; 0x7026 <__ltsf2>
     8f6:	88 23       	and	r24, r24
     8f8:	2c f4       	brge	.+10     	; 0x904 <writeChar+0x11a>
		__ticks = 1;
     8fa:	81 e0       	ldi	r24, 0x01	; 1
     8fc:	90 e0       	ldi	r25, 0x00	; 0
     8fe:	9b 8b       	std	Y+19, r25	; 0x13
     900:	8a 8b       	std	Y+18, r24	; 0x12
     902:	42 c0       	rjmp	.+132    	; 0x988 <writeChar+0x19e>
	else if (__tmp > 65535)
     904:	20 e0       	ldi	r18, 0x00	; 0
     906:	3f ef       	ldi	r19, 0xFF	; 255
     908:	4f e7       	ldi	r20, 0x7F	; 127
     90a:	57 e4       	ldi	r21, 0x47	; 71
     90c:	6e 85       	ldd	r22, Y+14	; 0x0e
     90e:	7f 85       	ldd	r23, Y+15	; 0x0f
     910:	88 89       	ldd	r24, Y+16	; 0x10
     912:	99 89       	ldd	r25, Y+17	; 0x11
     914:	0e 94 b5 37 	call	0x6f6a	; 0x6f6a <__gtsf2>
     918:	18 16       	cp	r1, r24
     91a:	64 f5       	brge	.+88     	; 0x974 <writeChar+0x18a>
	{
		//	__ticks = requested delay in 1/10 ms
		__ticks = (uint16_t) (__ms * 10.0);
     91c:	20 e0       	ldi	r18, 0x00	; 0
     91e:	30 e0       	ldi	r19, 0x00	; 0
     920:	40 e2       	ldi	r20, 0x20	; 32
     922:	51 e4       	ldi	r21, 0x41	; 65
     924:	6a 85       	ldd	r22, Y+10	; 0x0a
     926:	7b 85       	ldd	r23, Y+11	; 0x0b
     928:	8c 85       	ldd	r24, Y+12	; 0x0c
     92a:	9d 85       	ldd	r25, Y+13	; 0x0d
     92c:	0e 94 2d 36 	call	0x6c5a	; 0x6c5a <__mulsf3>
     930:	dc 01       	movw	r26, r24
     932:	cb 01       	movw	r24, r22
     934:	bc 01       	movw	r22, r24
     936:	cd 01       	movw	r24, r26
     938:	0e 94 48 34 	call	0x6890	; 0x6890 <__fixunssfsi>
     93c:	dc 01       	movw	r26, r24
     93e:	cb 01       	movw	r24, r22
     940:	9b 8b       	std	Y+19, r25	; 0x13
     942:	8a 8b       	std	Y+18, r24	; 0x12
     944:	12 c0       	rjmp	.+36     	; 0x96a <writeChar+0x180>
     946:	80 e9       	ldi	r24, 0x90	; 144
     948:	91 e0       	ldi	r25, 0x01	; 1
     94a:	9d 8b       	std	Y+21, r25	; 0x15
     94c:	8c 8b       	std	Y+20, r24	; 0x14
    milliseconds can be achieved.
 */
void
_delay_loop_2(uint16_t __count)
{
	__asm__ volatile (
     94e:	8c 89       	ldd	r24, Y+20	; 0x14
     950:	9d 89       	ldd	r25, Y+21	; 0x15
     952:	8c 01       	movw	r16, r24
     954:	c8 01       	movw	r24, r16
     956:	01 97       	sbiw	r24, 0x01	; 1
     958:	f1 f7       	brne	.-4      	; 0x956 <writeChar+0x16c>
     95a:	8c 01       	movw	r16, r24
     95c:	1d 8b       	std	Y+21, r17	; 0x15
     95e:	0c 8b       	std	Y+20, r16	; 0x14
		while(__ticks)
		{
			// wait 1/10 ms
			_delay_loop_2(((F_CPU) / 4e3) / 10);
			__ticks --;
     960:	8a 89       	ldd	r24, Y+18	; 0x12
     962:	9b 89       	ldd	r25, Y+19	; 0x13
     964:	01 97       	sbiw	r24, 0x01	; 1
     966:	9b 8b       	std	Y+19, r25	; 0x13
     968:	8a 8b       	std	Y+18, r24	; 0x12
		__ticks = 1;
	else if (__tmp > 65535)
	{
		//	__ticks = requested delay in 1/10 ms
		__ticks = (uint16_t) (__ms * 10.0);
		while(__ticks)
     96a:	8a 89       	ldd	r24, Y+18	; 0x12
     96c:	9b 89       	ldd	r25, Y+19	; 0x13
     96e:	00 97       	sbiw	r24, 0x00	; 0
     970:	51 f7       	brne	.-44     	; 0x946 <writeChar+0x15c>
     972:	28 c0       	rjmp	.+80     	; 0x9c4 <writeChar+0x1da>
			__ticks --;
		}
		return;
	}
	else
		__ticks = (uint16_t)__tmp;
     974:	6e 85       	ldd	r22, Y+14	; 0x0e
     976:	7f 85       	ldd	r23, Y+15	; 0x0f
     978:	88 89       	ldd	r24, Y+16	; 0x10
     97a:	99 89       	ldd	r25, Y+17	; 0x11
     97c:	0e 94 48 34 	call	0x6890	; 0x6890 <__fixunssfsi>
     980:	dc 01       	movw	r26, r24
     982:	cb 01       	movw	r24, r22
     984:	9b 8b       	std	Y+19, r25	; 0x13
     986:	8a 8b       	std	Y+18, r24	; 0x12
     988:	8a 89       	ldd	r24, Y+18	; 0x12
     98a:	9b 89       	ldd	r25, Y+19	; 0x13
     98c:	9f 8b       	std	Y+23, r25	; 0x17
     98e:	8e 8b       	std	Y+22, r24	; 0x16
     990:	8e 89       	ldd	r24, Y+22	; 0x16
     992:	9f 89       	ldd	r25, Y+23	; 0x17
     994:	8c 01       	movw	r16, r24
     996:	f8 01       	movw	r30, r16
     998:	31 97       	sbiw	r30, 0x01	; 1
     99a:	f1 f7       	brne	.-4      	; 0x998 <writeChar+0x1ae>
     99c:	8f 01       	movw	r16, r30
     99e:	1f 8b       	std	Y+23, r17	; 0x17
     9a0:	0e 8b       	std	Y+22, r16	; 0x16
     9a2:	10 c0       	rjmp	.+32     	; 0x9c4 <writeChar+0x1da>
	{
		_delay_ms(__us / 1000.0);
		return;
	}
	else
		__ticks = (uint8_t)__tmp;
     9a4:	6d 81       	ldd	r22, Y+5	; 0x05
     9a6:	7e 81       	ldd	r23, Y+6	; 0x06
     9a8:	8f 81       	ldd	r24, Y+7	; 0x07
     9aa:	98 85       	ldd	r25, Y+8	; 0x08
     9ac:	0e 94 48 34 	call	0x6890	; 0x6890 <__fixunssfsi>
     9b0:	dc 01       	movw	r26, r24
     9b2:	cb 01       	movw	r24, r22
     9b4:	89 87       	std	Y+9, r24	; 0x09
     9b6:	89 85       	ldd	r24, Y+9	; 0x09
     9b8:	88 8f       	std	Y+24, r24	; 0x18
    can be achieved.
*/
void
_delay_loop_1(uint8_t __count)
{
	__asm__ volatile (
     9ba:	88 8d       	ldd	r24, Y+24	; 0x18
     9bc:	18 2f       	mov	r17, r24
     9be:	1a 95       	dec	r17
     9c0:	f1 f7       	brne	.-4      	; 0x9be <writeChar+0x1d4>
     9c2:	18 8f       	std	Y+24, r17	; 0x18
	_delay_us(50);

	LCD_DATA = ch;  //데이터 출력
     9c4:	8b e3       	ldi	r24, 0x3B	; 59
     9c6:	90 e0       	ldi	r25, 0x00	; 0
     9c8:	2f ad       	ldd	r18, Y+63	; 0x3f
     9ca:	fc 01       	movw	r30, r24
     9cc:	20 83       	st	Z, r18
     9ce:	80 e0       	ldi	r24, 0x00	; 0
     9d0:	90 e0       	ldi	r25, 0x00	; 0
     9d2:	a8 e4       	ldi	r26, 0x48	; 72
     9d4:	b2 e4       	ldi	r27, 0x42	; 66
     9d6:	89 8f       	std	Y+25, r24	; 0x19
     9d8:	9a 8f       	std	Y+26, r25	; 0x1a
     9da:	ab 8f       	std	Y+27, r26	; 0x1b
     9dc:	bc 8f       	std	Y+28, r27	; 0x1c
	#endif

	__builtin_avr_delay_cycles(__ticks_dc);

#else
	__tmp = ((F_CPU) / 3e6) * __us;
     9de:	2b ea       	ldi	r18, 0xAB	; 171
     9e0:	3a ea       	ldi	r19, 0xAA	; 170
     9e2:	4a ea       	ldi	r20, 0xAA	; 170
     9e4:	50 e4       	ldi	r21, 0x40	; 64
     9e6:	69 8d       	ldd	r22, Y+25	; 0x19
     9e8:	7a 8d       	ldd	r23, Y+26	; 0x1a
     9ea:	8b 8d       	ldd	r24, Y+27	; 0x1b
     9ec:	9c 8d       	ldd	r25, Y+28	; 0x1c
     9ee:	0e 94 2d 36 	call	0x6c5a	; 0x6c5a <__mulsf3>
     9f2:	dc 01       	movw	r26, r24
     9f4:	cb 01       	movw	r24, r22
     9f6:	8d 8f       	std	Y+29, r24	; 0x1d
     9f8:	9e 8f       	std	Y+30, r25	; 0x1e
     9fa:	af 8f       	std	Y+31, r26	; 0x1f
     9fc:	b8 a3       	std	Y+32, r27	; 0x20
	if (__tmp < 1.0)
     9fe:	20 e0       	ldi	r18, 0x00	; 0
     a00:	30 e0       	ldi	r19, 0x00	; 0
     a02:	40 e8       	ldi	r20, 0x80	; 128
     a04:	5f e3       	ldi	r21, 0x3F	; 63
     a06:	6d 8d       	ldd	r22, Y+29	; 0x1d
     a08:	7e 8d       	ldd	r23, Y+30	; 0x1e
     a0a:	8f 8d       	ldd	r24, Y+31	; 0x1f
     a0c:	98 a1       	ldd	r25, Y+32	; 0x20
     a0e:	0e 94 13 38 	call	0x7026	; 0x7026 <__ltsf2>
     a12:	88 23       	and	r24, r24
     a14:	1c f4       	brge	.+6      	; 0xa1c <writeChar+0x232>
		__ticks = 1;
     a16:	81 e0       	ldi	r24, 0x01	; 1
     a18:	89 a3       	std	Y+33, r24	; 0x21
     a1a:	97 c0       	rjmp	.+302    	; 0xb4a <writeChar+0x360>
	else if (__tmp > 255)
     a1c:	20 e0       	ldi	r18, 0x00	; 0
     a1e:	30 e0       	ldi	r19, 0x00	; 0
     a20:	4f e7       	ldi	r20, 0x7F	; 127
     a22:	53 e4       	ldi	r21, 0x43	; 67
     a24:	6d 8d       	ldd	r22, Y+29	; 0x1d
     a26:	7e 8d       	ldd	r23, Y+30	; 0x1e
     a28:	8f 8d       	ldd	r24, Y+31	; 0x1f
     a2a:	98 a1       	ldd	r25, Y+32	; 0x20
     a2c:	0e 94 b5 37 	call	0x6f6a	; 0x6f6a <__gtsf2>
     a30:	18 16       	cp	r1, r24
     a32:	0c f0       	brlt	.+2      	; 0xa36 <writeChar+0x24c>
     a34:	81 c0       	rjmp	.+258    	; 0xb38 <writeChar+0x34e>
	{
		_delay_ms(__us / 1000.0);
     a36:	20 e0       	ldi	r18, 0x00	; 0
     a38:	30 e0       	ldi	r19, 0x00	; 0
     a3a:	4a e7       	ldi	r20, 0x7A	; 122
     a3c:	54 e4       	ldi	r21, 0x44	; 68
     a3e:	69 8d       	ldd	r22, Y+25	; 0x19
     a40:	7a 8d       	ldd	r23, Y+26	; 0x1a
     a42:	8b 8d       	ldd	r24, Y+27	; 0x1b
     a44:	9c 8d       	ldd	r25, Y+28	; 0x1c
     a46:	0e 94 12 37 	call	0x6e24	; 0x6e24 <__divsf3>
     a4a:	dc 01       	movw	r26, r24
     a4c:	cb 01       	movw	r24, r22
     a4e:	8a a3       	std	Y+34, r24	; 0x22
     a50:	9b a3       	std	Y+35, r25	; 0x23
     a52:	ac a3       	std	Y+36, r26	; 0x24
     a54:	bd a3       	std	Y+37, r27	; 0x25
	#endif

	__builtin_avr_delay_cycles(__ticks_dc);

#else
	__tmp = ((F_CPU) / 4e3) * __ms;
     a56:	20 e0       	ldi	r18, 0x00	; 0
     a58:	30 e0       	ldi	r19, 0x00	; 0
     a5a:	4a e7       	ldi	r20, 0x7A	; 122
     a5c:	55 e4       	ldi	r21, 0x45	; 69
     a5e:	6a a1       	ldd	r22, Y+34	; 0x22
     a60:	7b a1       	ldd	r23, Y+35	; 0x23
     a62:	8c a1       	ldd	r24, Y+36	; 0x24
     a64:	9d a1       	ldd	r25, Y+37	; 0x25
     a66:	0e 94 2d 36 	call	0x6c5a	; 0x6c5a <__mulsf3>
     a6a:	dc 01       	movw	r26, r24
     a6c:	cb 01       	movw	r24, r22
     a6e:	8e a3       	std	Y+38, r24	; 0x26
     a70:	9f a3       	std	Y+39, r25	; 0x27
     a72:	a8 a7       	std	Y+40, r26	; 0x28
     a74:	b9 a7       	std	Y+41, r27	; 0x29
	if (__tmp < 1.0)
     a76:	20 e0       	ldi	r18, 0x00	; 0
     a78:	30 e0       	ldi	r19, 0x00	; 0
     a7a:	40 e8       	ldi	r20, 0x80	; 128
     a7c:	5f e3       	ldi	r21, 0x3F	; 63
     a7e:	6e a1       	ldd	r22, Y+38	; 0x26
     a80:	7f a1       	ldd	r23, Y+39	; 0x27
     a82:	88 a5       	ldd	r24, Y+40	; 0x28
     a84:	99 a5       	ldd	r25, Y+41	; 0x29
     a86:	0e 94 13 38 	call	0x7026	; 0x7026 <__ltsf2>
     a8a:	88 23       	and	r24, r24
     a8c:	2c f4       	brge	.+10     	; 0xa98 <writeChar+0x2ae>
		__ticks = 1;
     a8e:	81 e0       	ldi	r24, 0x01	; 1
     a90:	90 e0       	ldi	r25, 0x00	; 0
     a92:	9b a7       	std	Y+43, r25	; 0x2b
     a94:	8a a7       	std	Y+42, r24	; 0x2a
     a96:	42 c0       	rjmp	.+132    	; 0xb1c <writeChar+0x332>
	else if (__tmp > 65535)
     a98:	20 e0       	ldi	r18, 0x00	; 0
     a9a:	3f ef       	ldi	r19, 0xFF	; 255
     a9c:	4f e7       	ldi	r20, 0x7F	; 127
     a9e:	57 e4       	ldi	r21, 0x47	; 71
     aa0:	6e a1       	ldd	r22, Y+38	; 0x26
     aa2:	7f a1       	ldd	r23, Y+39	; 0x27
     aa4:	88 a5       	ldd	r24, Y+40	; 0x28
     aa6:	99 a5       	ldd	r25, Y+41	; 0x29
     aa8:	0e 94 b5 37 	call	0x6f6a	; 0x6f6a <__gtsf2>
     aac:	18 16       	cp	r1, r24
     aae:	64 f5       	brge	.+88     	; 0xb08 <writeChar+0x31e>
	{
		//	__ticks = requested delay in 1/10 ms
		__ticks = (uint16_t) (__ms * 10.0);
     ab0:	20 e0       	ldi	r18, 0x00	; 0
     ab2:	30 e0       	ldi	r19, 0x00	; 0
     ab4:	40 e2       	ldi	r20, 0x20	; 32
     ab6:	51 e4       	ldi	r21, 0x41	; 65
     ab8:	6a a1       	ldd	r22, Y+34	; 0x22
     aba:	7b a1       	ldd	r23, Y+35	; 0x23
     abc:	8c a1       	ldd	r24, Y+36	; 0x24
     abe:	9d a1       	ldd	r25, Y+37	; 0x25
     ac0:	0e 94 2d 36 	call	0x6c5a	; 0x6c5a <__mulsf3>
     ac4:	dc 01       	movw	r26, r24
     ac6:	cb 01       	movw	r24, r22
     ac8:	bc 01       	movw	r22, r24
     aca:	cd 01       	movw	r24, r26
     acc:	0e 94 48 34 	call	0x6890	; 0x6890 <__fixunssfsi>
     ad0:	dc 01       	movw	r26, r24
     ad2:	cb 01       	movw	r24, r22
     ad4:	9b a7       	std	Y+43, r25	; 0x2b
     ad6:	8a a7       	std	Y+42, r24	; 0x2a
     ad8:	12 c0       	rjmp	.+36     	; 0xafe <writeChar+0x314>
     ada:	80 e9       	ldi	r24, 0x90	; 144
     adc:	91 e0       	ldi	r25, 0x01	; 1
     ade:	9d a7       	std	Y+45, r25	; 0x2d
     ae0:	8c a7       	std	Y+44, r24	; 0x2c
    milliseconds can be achieved.
 */
void
_delay_loop_2(uint16_t __count)
{
	__asm__ volatile (
     ae2:	8c a5       	ldd	r24, Y+44	; 0x2c
     ae4:	9d a5       	ldd	r25, Y+45	; 0x2d
     ae6:	8c 01       	movw	r16, r24
     ae8:	c8 01       	movw	r24, r16
     aea:	01 97       	sbiw	r24, 0x01	; 1
     aec:	f1 f7       	brne	.-4      	; 0xaea <writeChar+0x300>
     aee:	8c 01       	movw	r16, r24
     af0:	1d a7       	std	Y+45, r17	; 0x2d
     af2:	0c a7       	std	Y+44, r16	; 0x2c
		while(__ticks)
		{
			// wait 1/10 ms
			_delay_loop_2(((F_CPU) / 4e3) / 10);
			__ticks --;
     af4:	8a a5       	ldd	r24, Y+42	; 0x2a
     af6:	9b a5       	ldd	r25, Y+43	; 0x2b
     af8:	01 97       	sbiw	r24, 0x01	; 1
     afa:	9b a7       	std	Y+43, r25	; 0x2b
     afc:	8a a7       	std	Y+42, r24	; 0x2a
		__ticks = 1;
	else if (__tmp > 65535)
	{
		//	__ticks = requested delay in 1/10 ms
		__ticks = (uint16_t) (__ms * 10.0);
		while(__ticks)
     afe:	8a a5       	ldd	r24, Y+42	; 0x2a
     b00:	9b a5       	ldd	r25, Y+43	; 0x2b
     b02:	00 97       	sbiw	r24, 0x00	; 0
     b04:	51 f7       	brne	.-44     	; 0xada <writeChar+0x2f0>
     b06:	28 c0       	rjmp	.+80     	; 0xb58 <writeChar+0x36e>
			__ticks --;
		}
		return;
	}
	else
		__ticks = (uint16_t)__tmp;
     b08:	6e a1       	ldd	r22, Y+38	; 0x26
     b0a:	7f a1       	ldd	r23, Y+39	; 0x27
     b0c:	88 a5       	ldd	r24, Y+40	; 0x28
     b0e:	99 a5       	ldd	r25, Y+41	; 0x29
     b10:	0e 94 48 34 	call	0x6890	; 0x6890 <__fixunssfsi>
     b14:	dc 01       	movw	r26, r24
     b16:	cb 01       	movw	r24, r22
     b18:	9b a7       	std	Y+43, r25	; 0x2b
     b1a:	8a a7       	std	Y+42, r24	; 0x2a
     b1c:	8a a5       	ldd	r24, Y+42	; 0x2a
     b1e:	9b a5       	ldd	r25, Y+43	; 0x2b
     b20:	9f a7       	std	Y+47, r25	; 0x2f
     b22:	8e a7       	std	Y+46, r24	; 0x2e
     b24:	8e a5       	ldd	r24, Y+46	; 0x2e
     b26:	9f a5       	ldd	r25, Y+47	; 0x2f
     b28:	8c 01       	movw	r16, r24
     b2a:	f8 01       	movw	r30, r16
     b2c:	31 97       	sbiw	r30, 0x01	; 1
     b2e:	f1 f7       	brne	.-4      	; 0xb2c <writeChar+0x342>
     b30:	8f 01       	movw	r16, r30
     b32:	1f a7       	std	Y+47, r17	; 0x2f
     b34:	0e a7       	std	Y+46, r16	; 0x2e
     b36:	10 c0       	rjmp	.+32     	; 0xb58 <writeChar+0x36e>
	{
		_delay_ms(__us / 1000.0);
		return;
	}
	else
		__ticks = (uint8_t)__tmp;
     b38:	6d 8d       	ldd	r22, Y+29	; 0x1d
     b3a:	7e 8d       	ldd	r23, Y+30	; 0x1e
     b3c:	8f 8d       	ldd	r24, Y+31	; 0x1f
     b3e:	98 a1       	ldd	r25, Y+32	; 0x20
     b40:	0e 94 48 34 	call	0x6890	; 0x6890 <__fixunssfsi>
     b44:	dc 01       	movw	r26, r24
     b46:	cb 01       	movw	r24, r22
     b48:	89 a3       	std	Y+33, r24	; 0x21
     b4a:	89 a1       	ldd	r24, Y+33	; 0x21
     b4c:	88 ab       	std	Y+48, r24	; 0x30
    can be achieved.
*/
void
_delay_loop_1(uint8_t __count)
{
	__asm__ volatile (
     b4e:	88 a9       	ldd	r24, Y+48	; 0x30
     b50:	18 2f       	mov	r17, r24
     b52:	1a 95       	dec	r17
     b54:	f1 f7       	brne	.-4      	; 0xb52 <writeChar+0x368>
     b56:	18 ab       	std	Y+48, r17	; 0x30
	_delay_us(50);

	cbi(LCD_CTRL, LCD_EN);
     b58:	85 e3       	ldi	r24, 0x35	; 53
     b5a:	90 e0       	ldi	r25, 0x00	; 0
     b5c:	25 e3       	ldi	r18, 0x35	; 53
     b5e:	30 e0       	ldi	r19, 0x00	; 0
     b60:	f9 01       	movw	r30, r18
     b62:	20 81       	ld	r18, Z
     b64:	2b 7f       	andi	r18, 0xFB	; 251
     b66:	fc 01       	movw	r30, r24
     b68:	20 83       	st	Z, r18
     b6a:	80 e0       	ldi	r24, 0x00	; 0
     b6c:	90 e0       	ldi	r25, 0x00	; 0
     b6e:	a0 e8       	ldi	r26, 0x80	; 128
     b70:	bf e3       	ldi	r27, 0x3F	; 63
     b72:	89 ab       	std	Y+49, r24	; 0x31
     b74:	9a ab       	std	Y+50, r25	; 0x32
     b76:	ab ab       	std	Y+51, r26	; 0x33
     b78:	bc ab       	std	Y+52, r27	; 0x34
	#endif

	__builtin_avr_delay_cycles(__ticks_dc);

#else
	__tmp = ((F_CPU) / 4e3) * __ms;
     b7a:	20 e0       	ldi	r18, 0x00	; 0
     b7c:	30 e0       	ldi	r19, 0x00	; 0
     b7e:	4a e7       	ldi	r20, 0x7A	; 122
     b80:	55 e4       	ldi	r21, 0x45	; 69
     b82:	69 a9       	ldd	r22, Y+49	; 0x31
     b84:	7a a9       	ldd	r23, Y+50	; 0x32
     b86:	8b a9       	ldd	r24, Y+51	; 0x33
     b88:	9c a9       	ldd	r25, Y+52	; 0x34
     b8a:	0e 94 2d 36 	call	0x6c5a	; 0x6c5a <__mulsf3>
     b8e:	dc 01       	movw	r26, r24
     b90:	cb 01       	movw	r24, r22
     b92:	8d ab       	std	Y+53, r24	; 0x35
     b94:	9e ab       	std	Y+54, r25	; 0x36
     b96:	af ab       	std	Y+55, r26	; 0x37
     b98:	b8 af       	std	Y+56, r27	; 0x38
	if (__tmp < 1.0)
     b9a:	20 e0       	ldi	r18, 0x00	; 0
     b9c:	30 e0       	ldi	r19, 0x00	; 0
     b9e:	40 e8       	ldi	r20, 0x80	; 128
     ba0:	5f e3       	ldi	r21, 0x3F	; 63
     ba2:	6d a9       	ldd	r22, Y+53	; 0x35
     ba4:	7e a9       	ldd	r23, Y+54	; 0x36
     ba6:	8f a9       	ldd	r24, Y+55	; 0x37
     ba8:	98 ad       	ldd	r25, Y+56	; 0x38
     baa:	0e 94 13 38 	call	0x7026	; 0x7026 <__ltsf2>
     bae:	88 23       	and	r24, r24
     bb0:	2c f4       	brge	.+10     	; 0xbbc <writeChar+0x3d2>
		__ticks = 1;
     bb2:	81 e0       	ldi	r24, 0x01	; 1
     bb4:	90 e0       	ldi	r25, 0x00	; 0
     bb6:	9a af       	std	Y+58, r25	; 0x3a
     bb8:	89 af       	std	Y+57, r24	; 0x39
     bba:	42 c0       	rjmp	.+132    	; 0xc40 <writeChar+0x456>
	else if (__tmp > 65535)
     bbc:	20 e0       	ldi	r18, 0x00	; 0
     bbe:	3f ef       	ldi	r19, 0xFF	; 255
     bc0:	4f e7       	ldi	r20, 0x7F	; 127
     bc2:	57 e4       	ldi	r21, 0x47	; 71
     bc4:	6d a9       	ldd	r22, Y+53	; 0x35
     bc6:	7e a9       	ldd	r23, Y+54	; 0x36
     bc8:	8f a9       	ldd	r24, Y+55	; 0x37
     bca:	98 ad       	ldd	r25, Y+56	; 0x38
     bcc:	0e 94 b5 37 	call	0x6f6a	; 0x6f6a <__gtsf2>
     bd0:	18 16       	cp	r1, r24
     bd2:	64 f5       	brge	.+88     	; 0xc2c <writeChar+0x442>
	{
		//	__ticks = requested delay in 1/10 ms
		__ticks = (uint16_t) (__ms * 10.0);
     bd4:	20 e0       	ldi	r18, 0x00	; 0
     bd6:	30 e0       	ldi	r19, 0x00	; 0
     bd8:	40 e2       	ldi	r20, 0x20	; 32
     bda:	51 e4       	ldi	r21, 0x41	; 65
     bdc:	69 a9       	ldd	r22, Y+49	; 0x31
     bde:	7a a9       	ldd	r23, Y+50	; 0x32
     be0:	8b a9       	ldd	r24, Y+51	; 0x33
     be2:	9c a9       	ldd	r25, Y+52	; 0x34
     be4:	0e 94 2d 36 	call	0x6c5a	; 0x6c5a <__mulsf3>
     be8:	dc 01       	movw	r26, r24
     bea:	cb 01       	movw	r24, r22
     bec:	bc 01       	movw	r22, r24
     bee:	cd 01       	movw	r24, r26
     bf0:	0e 94 48 34 	call	0x6890	; 0x6890 <__fixunssfsi>
     bf4:	dc 01       	movw	r26, r24
     bf6:	cb 01       	movw	r24, r22
     bf8:	9a af       	std	Y+58, r25	; 0x3a
     bfa:	89 af       	std	Y+57, r24	; 0x39
     bfc:	12 c0       	rjmp	.+36     	; 0xc22 <writeChar+0x438>
     bfe:	80 e9       	ldi	r24, 0x90	; 144
     c00:	91 e0       	ldi	r25, 0x01	; 1
     c02:	9c af       	std	Y+60, r25	; 0x3c
     c04:	8b af       	std	Y+59, r24	; 0x3b
    milliseconds can be achieved.
 */
void
_delay_loop_2(uint16_t __count)
{
	__asm__ volatile (
     c06:	8b ad       	ldd	r24, Y+59	; 0x3b
     c08:	9c ad       	ldd	r25, Y+60	; 0x3c
     c0a:	8c 01       	movw	r16, r24
     c0c:	c8 01       	movw	r24, r16
     c0e:	01 97       	sbiw	r24, 0x01	; 1
     c10:	f1 f7       	brne	.-4      	; 0xc0e <writeChar+0x424>
     c12:	8c 01       	movw	r16, r24
     c14:	1c af       	std	Y+60, r17	; 0x3c
     c16:	0b af       	std	Y+59, r16	; 0x3b
		while(__ticks)
		{
			// wait 1/10 ms
			_delay_loop_2(((F_CPU) / 4e3) / 10);
			__ticks --;
     c18:	89 ad       	ldd	r24, Y+57	; 0x39
     c1a:	9a ad       	ldd	r25, Y+58	; 0x3a
     c1c:	01 97       	sbiw	r24, 0x01	; 1
     c1e:	9a af       	std	Y+58, r25	; 0x3a
     c20:	89 af       	std	Y+57, r24	; 0x39
		__ticks = 1;
	else if (__tmp > 65535)
	{
		//	__ticks = requested delay in 1/10 ms
		__ticks = (uint16_t) (__ms * 10.0);
		while(__ticks)
     c22:	89 ad       	ldd	r24, Y+57	; 0x39
     c24:	9a ad       	ldd	r25, Y+58	; 0x3a
     c26:	00 97       	sbiw	r24, 0x00	; 0
     c28:	51 f7       	brne	.-44     	; 0xbfe <writeChar+0x414>
     c2a:	17 c0       	rjmp	.+46     	; 0xc5a <writeChar+0x470>
			__ticks --;
		}
		return;
	}
	else
		__ticks = (uint16_t)__tmp;
     c2c:	6d a9       	ldd	r22, Y+53	; 0x35
     c2e:	7e a9       	ldd	r23, Y+54	; 0x36
     c30:	8f a9       	ldd	r24, Y+55	; 0x37
     c32:	98 ad       	ldd	r25, Y+56	; 0x38
     c34:	0e 94 48 34 	call	0x6890	; 0x6890 <__fixunssfsi>
     c38:	dc 01       	movw	r26, r24
     c3a:	cb 01       	movw	r24, r22
     c3c:	9a af       	std	Y+58, r25	; 0x3a
     c3e:	89 af       	std	Y+57, r24	; 0x39
     c40:	89 ad       	ldd	r24, Y+57	; 0x39
     c42:	9a ad       	ldd	r25, Y+58	; 0x3a
     c44:	9e af       	std	Y+62, r25	; 0x3e
     c46:	8d af       	std	Y+61, r24	; 0x3d
     c48:	8d ad       	ldd	r24, Y+61	; 0x3d
     c4a:	9e ad       	ldd	r25, Y+62	; 0x3e
     c4c:	8c 01       	movw	r16, r24
     c4e:	f8 01       	movw	r30, r16
     c50:	31 97       	sbiw	r30, 0x01	; 1
     c52:	f1 f7       	brne	.-4      	; 0xc50 <writeChar+0x466>
     c54:	8f 01       	movw	r16, r30
     c56:	1e af       	std	Y+62, r17	; 0x3e
     c58:	0d af       	std	Y+61, r16	; 0x3d
	_delay_ms(1);
}
     c5a:	ef 96       	adiw	r28, 0x3f	; 63
     c5c:	0f b6       	in	r0, 0x3f	; 63
     c5e:	f8 94       	cli
     c60:	de bf       	out	0x3e, r29	; 62
     c62:	0f be       	out	0x3f, r0	; 63
     c64:	cd bf       	out	0x3d, r28	; 61
     c66:	df 91       	pop	r29
     c68:	cf 91       	pop	r28
     c6a:	1f 91       	pop	r17
     c6c:	0f 91       	pop	r16
     c6e:	08 95       	ret

00000c70 <writeSTR>:

void writeSTR(unsigned char str[])  //문자열 출력함수 
{
     c70:	cf 93       	push	r28
     c72:	df 93       	push	r29
     c74:	00 d0       	rcall	.+0      	; 0xc76 <writeSTR+0x6>
     c76:	1f 92       	push	r1
     c78:	cd b7       	in	r28, 0x3d	; 61
     c7a:	de b7       	in	r29, 0x3e	; 62
     c7c:	9b 83       	std	Y+3, r25	; 0x03
     c7e:	8a 83       	std	Y+2, r24	; 0x02
	unsigned char i = 0;
     c80:	19 82       	std	Y+1, r1	; 0x01
	
	while(str[i] != 0)  
     c82:	0e c0       	rjmp	.+28     	; 0xca0 <writeSTR+0x30>
	{
		writeChar(str[i]);
     c84:	89 81       	ldd	r24, Y+1	; 0x01
     c86:	88 2f       	mov	r24, r24
     c88:	90 e0       	ldi	r25, 0x00	; 0
     c8a:	2a 81       	ldd	r18, Y+2	; 0x02
     c8c:	3b 81       	ldd	r19, Y+3	; 0x03
     c8e:	82 0f       	add	r24, r18
     c90:	93 1f       	adc	r25, r19
     c92:	fc 01       	movw	r30, r24
     c94:	80 81       	ld	r24, Z
     c96:	0e 94 f5 03 	call	0x7ea	; 0x7ea <writeChar>
		i++;
     c9a:	89 81       	ldd	r24, Y+1	; 0x01
     c9c:	8f 5f       	subi	r24, 0xFF	; 255
     c9e:	89 83       	std	Y+1, r24	; 0x01

void writeSTR(unsigned char str[])  //문자열 출력함수 
{
	unsigned char i = 0;
	
	while(str[i] != 0)  
     ca0:	89 81       	ldd	r24, Y+1	; 0x01
     ca2:	88 2f       	mov	r24, r24
     ca4:	90 e0       	ldi	r25, 0x00	; 0
     ca6:	2a 81       	ldd	r18, Y+2	; 0x02
     ca8:	3b 81       	ldd	r19, Y+3	; 0x03
     caa:	82 0f       	add	r24, r18
     cac:	93 1f       	adc	r25, r19
     cae:	fc 01       	movw	r30, r24
     cb0:	80 81       	ld	r24, Z
     cb2:	88 23       	and	r24, r24
     cb4:	39 f7       	brne	.-50     	; 0xc84 <writeSTR+0x14>
	{
		writeChar(str[i]);
		i++;
	}

}
     cb6:	0f 90       	pop	r0
     cb8:	0f 90       	pop	r0
     cba:	0f 90       	pop	r0
     cbc:	df 91       	pop	r29
     cbe:	cf 91       	pop	r28
     cc0:	08 95       	ret

00000cc2 <readBF>:
    }
}
*/

unsigned char readBF()
{
     cc2:	0f 93       	push	r16
     cc4:	1f 93       	push	r17
     cc6:	cf 93       	push	r28
     cc8:	df 93       	push	r29
     cca:	cd b7       	in	r28, 0x3d	; 61
     ccc:	de b7       	in	r29, 0x3e	; 62
     cce:	e1 97       	sbiw	r28, 0x31	; 49
     cd0:	0f b6       	in	r0, 0x3f	; 63
     cd2:	f8 94       	cli
     cd4:	de bf       	out	0x3e, r29	; 62
     cd6:	0f be       	out	0x3f, r0	; 63
     cd8:	cd bf       	out	0x3d, r28	; 61
	unsigned char ch;

	sbi(LCD_CTRL, LCD_EN);  //PORTG = 0b00000110;
     cda:	85 e3       	ldi	r24, 0x35	; 53
     cdc:	90 e0       	ldi	r25, 0x00	; 0
     cde:	25 e3       	ldi	r18, 0x35	; 53
     ce0:	30 e0       	ldi	r19, 0x00	; 0
     ce2:	f9 01       	movw	r30, r18
     ce4:	20 81       	ld	r18, Z
     ce6:	24 60       	ori	r18, 0x04	; 4
     ce8:	fc 01       	movw	r30, r24
     cea:	20 83       	st	Z, r18
	sbi(LCD_CTRL, LCD_RW);
     cec:	85 e3       	ldi	r24, 0x35	; 53
     cee:	90 e0       	ldi	r25, 0x00	; 0
     cf0:	25 e3       	ldi	r18, 0x35	; 53
     cf2:	30 e0       	ldi	r19, 0x00	; 0
     cf4:	f9 01       	movw	r30, r18
     cf6:	20 81       	ld	r18, Z
     cf8:	22 60       	ori	r18, 0x02	; 2
     cfa:	fc 01       	movw	r30, r24
     cfc:	20 83       	st	Z, r18
	cbi(LCD_CTRL, LCD_RS);  //LCD Enable
     cfe:	85 e3       	ldi	r24, 0x35	; 53
     d00:	90 e0       	ldi	r25, 0x00	; 0
     d02:	25 e3       	ldi	r18, 0x35	; 53
     d04:	30 e0       	ldi	r19, 0x00	; 0
     d06:	f9 01       	movw	r30, r18
     d08:	20 81       	ld	r18, Z
     d0a:	2e 7f       	andi	r18, 0xFE	; 254
     d0c:	fc 01       	movw	r30, r24
     d0e:	20 83       	st	Z, r18
     d10:	80 e0       	ldi	r24, 0x00	; 0
     d12:	90 e0       	ldi	r25, 0x00	; 0
     d14:	a8 e4       	ldi	r26, 0x48	; 72
     d16:	b2 e4       	ldi	r27, 0x42	; 66
     d18:	8a 83       	std	Y+2, r24	; 0x02
     d1a:	9b 83       	std	Y+3, r25	; 0x03
     d1c:	ac 83       	std	Y+4, r26	; 0x04
     d1e:	bd 83       	std	Y+5, r27	; 0x05
	#endif

	__builtin_avr_delay_cycles(__ticks_dc);

#else
	__tmp = ((F_CPU) / 3e6) * __us;
     d20:	2b ea       	ldi	r18, 0xAB	; 171
     d22:	3a ea       	ldi	r19, 0xAA	; 170
     d24:	4a ea       	ldi	r20, 0xAA	; 170
     d26:	50 e4       	ldi	r21, 0x40	; 64
     d28:	6a 81       	ldd	r22, Y+2	; 0x02
     d2a:	7b 81       	ldd	r23, Y+3	; 0x03
     d2c:	8c 81       	ldd	r24, Y+4	; 0x04
     d2e:	9d 81       	ldd	r25, Y+5	; 0x05
     d30:	0e 94 2d 36 	call	0x6c5a	; 0x6c5a <__mulsf3>
     d34:	dc 01       	movw	r26, r24
     d36:	cb 01       	movw	r24, r22
     d38:	8e 83       	std	Y+6, r24	; 0x06
     d3a:	9f 83       	std	Y+7, r25	; 0x07
     d3c:	a8 87       	std	Y+8, r26	; 0x08
     d3e:	b9 87       	std	Y+9, r27	; 0x09
	if (__tmp < 1.0)
     d40:	20 e0       	ldi	r18, 0x00	; 0
     d42:	30 e0       	ldi	r19, 0x00	; 0
     d44:	40 e8       	ldi	r20, 0x80	; 128
     d46:	5f e3       	ldi	r21, 0x3F	; 63
     d48:	6e 81       	ldd	r22, Y+6	; 0x06
     d4a:	7f 81       	ldd	r23, Y+7	; 0x07
     d4c:	88 85       	ldd	r24, Y+8	; 0x08
     d4e:	99 85       	ldd	r25, Y+9	; 0x09
     d50:	0e 94 13 38 	call	0x7026	; 0x7026 <__ltsf2>
     d54:	88 23       	and	r24, r24
     d56:	1c f4       	brge	.+6      	; 0xd5e <readBF+0x9c>
		__ticks = 1;
     d58:	81 e0       	ldi	r24, 0x01	; 1
     d5a:	8a 87       	std	Y+10, r24	; 0x0a
     d5c:	97 c0       	rjmp	.+302    	; 0xe8c <readBF+0x1ca>
	else if (__tmp > 255)
     d5e:	20 e0       	ldi	r18, 0x00	; 0
     d60:	30 e0       	ldi	r19, 0x00	; 0
     d62:	4f e7       	ldi	r20, 0x7F	; 127
     d64:	53 e4       	ldi	r21, 0x43	; 67
     d66:	6e 81       	ldd	r22, Y+6	; 0x06
     d68:	7f 81       	ldd	r23, Y+7	; 0x07
     d6a:	88 85       	ldd	r24, Y+8	; 0x08
     d6c:	99 85       	ldd	r25, Y+9	; 0x09
     d6e:	0e 94 b5 37 	call	0x6f6a	; 0x6f6a <__gtsf2>
     d72:	18 16       	cp	r1, r24
     d74:	0c f0       	brlt	.+2      	; 0xd78 <readBF+0xb6>
     d76:	81 c0       	rjmp	.+258    	; 0xe7a <readBF+0x1b8>
	{
		_delay_ms(__us / 1000.0);
     d78:	20 e0       	ldi	r18, 0x00	; 0
     d7a:	30 e0       	ldi	r19, 0x00	; 0
     d7c:	4a e7       	ldi	r20, 0x7A	; 122
     d7e:	54 e4       	ldi	r21, 0x44	; 68
     d80:	6a 81       	ldd	r22, Y+2	; 0x02
     d82:	7b 81       	ldd	r23, Y+3	; 0x03
     d84:	8c 81       	ldd	r24, Y+4	; 0x04
     d86:	9d 81       	ldd	r25, Y+5	; 0x05
     d88:	0e 94 12 37 	call	0x6e24	; 0x6e24 <__divsf3>
     d8c:	dc 01       	movw	r26, r24
     d8e:	cb 01       	movw	r24, r22
     d90:	8b 87       	std	Y+11, r24	; 0x0b
     d92:	9c 87       	std	Y+12, r25	; 0x0c
     d94:	ad 87       	std	Y+13, r26	; 0x0d
     d96:	be 87       	std	Y+14, r27	; 0x0e
	#endif

	__builtin_avr_delay_cycles(__ticks_dc);

#else
	__tmp = ((F_CPU) / 4e3) * __ms;
     d98:	20 e0       	ldi	r18, 0x00	; 0
     d9a:	30 e0       	ldi	r19, 0x00	; 0
     d9c:	4a e7       	ldi	r20, 0x7A	; 122
     d9e:	55 e4       	ldi	r21, 0x45	; 69
     da0:	6b 85       	ldd	r22, Y+11	; 0x0b
     da2:	7c 85       	ldd	r23, Y+12	; 0x0c
     da4:	8d 85       	ldd	r24, Y+13	; 0x0d
     da6:	9e 85       	ldd	r25, Y+14	; 0x0e
     da8:	0e 94 2d 36 	call	0x6c5a	; 0x6c5a <__mulsf3>
     dac:	dc 01       	movw	r26, r24
     dae:	cb 01       	movw	r24, r22
     db0:	8f 87       	std	Y+15, r24	; 0x0f
     db2:	98 8b       	std	Y+16, r25	; 0x10
     db4:	a9 8b       	std	Y+17, r26	; 0x11
     db6:	ba 8b       	std	Y+18, r27	; 0x12
	if (__tmp < 1.0)
     db8:	20 e0       	ldi	r18, 0x00	; 0
     dba:	30 e0       	ldi	r19, 0x00	; 0
     dbc:	40 e8       	ldi	r20, 0x80	; 128
     dbe:	5f e3       	ldi	r21, 0x3F	; 63
     dc0:	6f 85       	ldd	r22, Y+15	; 0x0f
     dc2:	78 89       	ldd	r23, Y+16	; 0x10
     dc4:	89 89       	ldd	r24, Y+17	; 0x11
     dc6:	9a 89       	ldd	r25, Y+18	; 0x12
     dc8:	0e 94 13 38 	call	0x7026	; 0x7026 <__ltsf2>
     dcc:	88 23       	and	r24, r24
     dce:	2c f4       	brge	.+10     	; 0xdda <readBF+0x118>
		__ticks = 1;
     dd0:	81 e0       	ldi	r24, 0x01	; 1
     dd2:	90 e0       	ldi	r25, 0x00	; 0
     dd4:	9c 8b       	std	Y+20, r25	; 0x14
     dd6:	8b 8b       	std	Y+19, r24	; 0x13
     dd8:	42 c0       	rjmp	.+132    	; 0xe5e <readBF+0x19c>
	else if (__tmp > 65535)
     dda:	20 e0       	ldi	r18, 0x00	; 0
     ddc:	3f ef       	ldi	r19, 0xFF	; 255
     dde:	4f e7       	ldi	r20, 0x7F	; 127
     de0:	57 e4       	ldi	r21, 0x47	; 71
     de2:	6f 85       	ldd	r22, Y+15	; 0x0f
     de4:	78 89       	ldd	r23, Y+16	; 0x10
     de6:	89 89       	ldd	r24, Y+17	; 0x11
     de8:	9a 89       	ldd	r25, Y+18	; 0x12
     dea:	0e 94 b5 37 	call	0x6f6a	; 0x6f6a <__gtsf2>
     dee:	18 16       	cp	r1, r24
     df0:	64 f5       	brge	.+88     	; 0xe4a <readBF+0x188>
	{
		//	__ticks = requested delay in 1/10 ms
		__ticks = (uint16_t) (__ms * 10.0);
     df2:	20 e0       	ldi	r18, 0x00	; 0
     df4:	30 e0       	ldi	r19, 0x00	; 0
     df6:	40 e2       	ldi	r20, 0x20	; 32
     df8:	51 e4       	ldi	r21, 0x41	; 65
     dfa:	6b 85       	ldd	r22, Y+11	; 0x0b
     dfc:	7c 85       	ldd	r23, Y+12	; 0x0c
     dfe:	8d 85       	ldd	r24, Y+13	; 0x0d
     e00:	9e 85       	ldd	r25, Y+14	; 0x0e
     e02:	0e 94 2d 36 	call	0x6c5a	; 0x6c5a <__mulsf3>
     e06:	dc 01       	movw	r26, r24
     e08:	cb 01       	movw	r24, r22
     e0a:	bc 01       	movw	r22, r24
     e0c:	cd 01       	movw	r24, r26
     e0e:	0e 94 48 34 	call	0x6890	; 0x6890 <__fixunssfsi>
     e12:	dc 01       	movw	r26, r24
     e14:	cb 01       	movw	r24, r22
     e16:	9c 8b       	std	Y+20, r25	; 0x14
     e18:	8b 8b       	std	Y+19, r24	; 0x13
     e1a:	12 c0       	rjmp	.+36     	; 0xe40 <readBF+0x17e>
     e1c:	80 e9       	ldi	r24, 0x90	; 144
     e1e:	91 e0       	ldi	r25, 0x01	; 1
     e20:	9e 8b       	std	Y+22, r25	; 0x16
     e22:	8d 8b       	std	Y+21, r24	; 0x15
     e24:	8d 89       	ldd	r24, Y+21	; 0x15
     e26:	9e 89       	ldd	r25, Y+22	; 0x16
     e28:	8c 01       	movw	r16, r24
     e2a:	c8 01       	movw	r24, r16
     e2c:	01 97       	sbiw	r24, 0x01	; 1
     e2e:	f1 f7       	brne	.-4      	; 0xe2c <readBF+0x16a>
     e30:	8c 01       	movw	r16, r24
     e32:	1e 8b       	std	Y+22, r17	; 0x16
     e34:	0d 8b       	std	Y+21, r16	; 0x15
		while(__ticks)
		{
			// wait 1/10 ms
			_delay_loop_2(((F_CPU) / 4e3) / 10);
			__ticks --;
     e36:	8b 89       	ldd	r24, Y+19	; 0x13
     e38:	9c 89       	ldd	r25, Y+20	; 0x14
     e3a:	01 97       	sbiw	r24, 0x01	; 1
     e3c:	9c 8b       	std	Y+20, r25	; 0x14
     e3e:	8b 8b       	std	Y+19, r24	; 0x13
		__ticks = 1;
	else if (__tmp > 65535)
	{
		//	__ticks = requested delay in 1/10 ms
		__ticks = (uint16_t) (__ms * 10.0);
		while(__ticks)
     e40:	8b 89       	ldd	r24, Y+19	; 0x13
     e42:	9c 89       	ldd	r25, Y+20	; 0x14
     e44:	00 97       	sbiw	r24, 0x00	; 0
     e46:	51 f7       	brne	.-44     	; 0xe1c <readBF+0x15a>
     e48:	28 c0       	rjmp	.+80     	; 0xe9a <readBF+0x1d8>
			__ticks --;
		}
		return;
	}
	else
		__ticks = (uint16_t)__tmp;
     e4a:	6f 85       	ldd	r22, Y+15	; 0x0f
     e4c:	78 89       	ldd	r23, Y+16	; 0x10
     e4e:	89 89       	ldd	r24, Y+17	; 0x11
     e50:	9a 89       	ldd	r25, Y+18	; 0x12
     e52:	0e 94 48 34 	call	0x6890	; 0x6890 <__fixunssfsi>
     e56:	dc 01       	movw	r26, r24
     e58:	cb 01       	movw	r24, r22
     e5a:	9c 8b       	std	Y+20, r25	; 0x14
     e5c:	8b 8b       	std	Y+19, r24	; 0x13
     e5e:	8b 89       	ldd	r24, Y+19	; 0x13
     e60:	9c 89       	ldd	r25, Y+20	; 0x14
     e62:	98 8f       	std	Y+24, r25	; 0x18
     e64:	8f 8b       	std	Y+23, r24	; 0x17
     e66:	8f 89       	ldd	r24, Y+23	; 0x17
     e68:	98 8d       	ldd	r25, Y+24	; 0x18
     e6a:	8c 01       	movw	r16, r24
     e6c:	f8 01       	movw	r30, r16
     e6e:	31 97       	sbiw	r30, 0x01	; 1
     e70:	f1 f7       	brne	.-4      	; 0xe6e <readBF+0x1ac>
     e72:	8f 01       	movw	r16, r30
     e74:	18 8f       	std	Y+24, r17	; 0x18
     e76:	0f 8b       	std	Y+23, r16	; 0x17
     e78:	10 c0       	rjmp	.+32     	; 0xe9a <readBF+0x1d8>
	{
		_delay_ms(__us / 1000.0);
		return;
	}
	else
		__ticks = (uint8_t)__tmp;
     e7a:	6e 81       	ldd	r22, Y+6	; 0x06
     e7c:	7f 81       	ldd	r23, Y+7	; 0x07
     e7e:	88 85       	ldd	r24, Y+8	; 0x08
     e80:	99 85       	ldd	r25, Y+9	; 0x09
     e82:	0e 94 48 34 	call	0x6890	; 0x6890 <__fixunssfsi>
     e86:	dc 01       	movw	r26, r24
     e88:	cb 01       	movw	r24, r22
     e8a:	8a 87       	std	Y+10, r24	; 0x0a
     e8c:	8a 85       	ldd	r24, Y+10	; 0x0a
     e8e:	89 8f       	std	Y+25, r24	; 0x19
    can be achieved.
*/
void
_delay_loop_1(uint8_t __count)
{
	__asm__ volatile (
     e90:	89 8d       	ldd	r24, Y+25	; 0x19
     e92:	18 2f       	mov	r17, r24
     e94:	1a 95       	dec	r17
     e96:	f1 f7       	brne	.-4      	; 0xe94 <readBF+0x1d2>
     e98:	19 8f       	std	Y+25, r17	; 0x19
	_delay_us(50);

	ch = LCD_PIN;
     e9a:	89 e3       	ldi	r24, 0x39	; 57
     e9c:	90 e0       	ldi	r25, 0x00	; 0
     e9e:	fc 01       	movw	r30, r24
     ea0:	80 81       	ld	r24, Z
     ea2:	89 83       	std	Y+1, r24	; 0x01
     ea4:	80 e0       	ldi	r24, 0x00	; 0
     ea6:	90 e0       	ldi	r25, 0x00	; 0
     ea8:	a8 e4       	ldi	r26, 0x48	; 72
     eaa:	b2 e4       	ldi	r27, 0x42	; 66
     eac:	8a 8f       	std	Y+26, r24	; 0x1a
     eae:	9b 8f       	std	Y+27, r25	; 0x1b
     eb0:	ac 8f       	std	Y+28, r26	; 0x1c
     eb2:	bd 8f       	std	Y+29, r27	; 0x1d
	#endif

	__builtin_avr_delay_cycles(__ticks_dc);

#else
	__tmp = ((F_CPU) / 3e6) * __us;
     eb4:	2b ea       	ldi	r18, 0xAB	; 171
     eb6:	3a ea       	ldi	r19, 0xAA	; 170
     eb8:	4a ea       	ldi	r20, 0xAA	; 170
     eba:	50 e4       	ldi	r21, 0x40	; 64
     ebc:	6a 8d       	ldd	r22, Y+26	; 0x1a
     ebe:	7b 8d       	ldd	r23, Y+27	; 0x1b
     ec0:	8c 8d       	ldd	r24, Y+28	; 0x1c
     ec2:	9d 8d       	ldd	r25, Y+29	; 0x1d
     ec4:	0e 94 2d 36 	call	0x6c5a	; 0x6c5a <__mulsf3>
     ec8:	dc 01       	movw	r26, r24
     eca:	cb 01       	movw	r24, r22
     ecc:	8e 8f       	std	Y+30, r24	; 0x1e
     ece:	9f 8f       	std	Y+31, r25	; 0x1f
     ed0:	a8 a3       	std	Y+32, r26	; 0x20
     ed2:	b9 a3       	std	Y+33, r27	; 0x21
	if (__tmp < 1.0)
     ed4:	20 e0       	ldi	r18, 0x00	; 0
     ed6:	30 e0       	ldi	r19, 0x00	; 0
     ed8:	40 e8       	ldi	r20, 0x80	; 128
     eda:	5f e3       	ldi	r21, 0x3F	; 63
     edc:	6e 8d       	ldd	r22, Y+30	; 0x1e
     ede:	7f 8d       	ldd	r23, Y+31	; 0x1f
     ee0:	88 a1       	ldd	r24, Y+32	; 0x20
     ee2:	99 a1       	ldd	r25, Y+33	; 0x21
     ee4:	0e 94 13 38 	call	0x7026	; 0x7026 <__ltsf2>
     ee8:	88 23       	and	r24, r24
     eea:	1c f4       	brge	.+6      	; 0xef2 <readBF+0x230>
		__ticks = 1;
     eec:	81 e0       	ldi	r24, 0x01	; 1
     eee:	8a a3       	std	Y+34, r24	; 0x22
     ef0:	97 c0       	rjmp	.+302    	; 0x1020 <readBF+0x35e>
	else if (__tmp > 255)
     ef2:	20 e0       	ldi	r18, 0x00	; 0
     ef4:	30 e0       	ldi	r19, 0x00	; 0
     ef6:	4f e7       	ldi	r20, 0x7F	; 127
     ef8:	53 e4       	ldi	r21, 0x43	; 67
     efa:	6e 8d       	ldd	r22, Y+30	; 0x1e
     efc:	7f 8d       	ldd	r23, Y+31	; 0x1f
     efe:	88 a1       	ldd	r24, Y+32	; 0x20
     f00:	99 a1       	ldd	r25, Y+33	; 0x21
     f02:	0e 94 b5 37 	call	0x6f6a	; 0x6f6a <__gtsf2>
     f06:	18 16       	cp	r1, r24
     f08:	0c f0       	brlt	.+2      	; 0xf0c <readBF+0x24a>
     f0a:	81 c0       	rjmp	.+258    	; 0x100e <readBF+0x34c>
	{
		_delay_ms(__us / 1000.0);
     f0c:	20 e0       	ldi	r18, 0x00	; 0
     f0e:	30 e0       	ldi	r19, 0x00	; 0
     f10:	4a e7       	ldi	r20, 0x7A	; 122
     f12:	54 e4       	ldi	r21, 0x44	; 68
     f14:	6a 8d       	ldd	r22, Y+26	; 0x1a
     f16:	7b 8d       	ldd	r23, Y+27	; 0x1b
     f18:	8c 8d       	ldd	r24, Y+28	; 0x1c
     f1a:	9d 8d       	ldd	r25, Y+29	; 0x1d
     f1c:	0e 94 12 37 	call	0x6e24	; 0x6e24 <__divsf3>
     f20:	dc 01       	movw	r26, r24
     f22:	cb 01       	movw	r24, r22
     f24:	8b a3       	std	Y+35, r24	; 0x23
     f26:	9c a3       	std	Y+36, r25	; 0x24
     f28:	ad a3       	std	Y+37, r26	; 0x25
     f2a:	be a3       	std	Y+38, r27	; 0x26
	#endif

	__builtin_avr_delay_cycles(__ticks_dc);

#else
	__tmp = ((F_CPU) / 4e3) * __ms;
     f2c:	20 e0       	ldi	r18, 0x00	; 0
     f2e:	30 e0       	ldi	r19, 0x00	; 0
     f30:	4a e7       	ldi	r20, 0x7A	; 122
     f32:	55 e4       	ldi	r21, 0x45	; 69
     f34:	6b a1       	ldd	r22, Y+35	; 0x23
     f36:	7c a1       	ldd	r23, Y+36	; 0x24
     f38:	8d a1       	ldd	r24, Y+37	; 0x25
     f3a:	9e a1       	ldd	r25, Y+38	; 0x26
     f3c:	0e 94 2d 36 	call	0x6c5a	; 0x6c5a <__mulsf3>
     f40:	dc 01       	movw	r26, r24
     f42:	cb 01       	movw	r24, r22
     f44:	8f a3       	std	Y+39, r24	; 0x27
     f46:	98 a7       	std	Y+40, r25	; 0x28
     f48:	a9 a7       	std	Y+41, r26	; 0x29
     f4a:	ba a7       	std	Y+42, r27	; 0x2a
	if (__tmp < 1.0)
     f4c:	20 e0       	ldi	r18, 0x00	; 0
     f4e:	30 e0       	ldi	r19, 0x00	; 0
     f50:	40 e8       	ldi	r20, 0x80	; 128
     f52:	5f e3       	ldi	r21, 0x3F	; 63
     f54:	6f a1       	ldd	r22, Y+39	; 0x27
     f56:	78 a5       	ldd	r23, Y+40	; 0x28
     f58:	89 a5       	ldd	r24, Y+41	; 0x29
     f5a:	9a a5       	ldd	r25, Y+42	; 0x2a
     f5c:	0e 94 13 38 	call	0x7026	; 0x7026 <__ltsf2>
     f60:	88 23       	and	r24, r24
     f62:	2c f4       	brge	.+10     	; 0xf6e <readBF+0x2ac>
		__ticks = 1;
     f64:	81 e0       	ldi	r24, 0x01	; 1
     f66:	90 e0       	ldi	r25, 0x00	; 0
     f68:	9c a7       	std	Y+44, r25	; 0x2c
     f6a:	8b a7       	std	Y+43, r24	; 0x2b
     f6c:	42 c0       	rjmp	.+132    	; 0xff2 <readBF+0x330>
	else if (__tmp > 65535)
     f6e:	20 e0       	ldi	r18, 0x00	; 0
     f70:	3f ef       	ldi	r19, 0xFF	; 255
     f72:	4f e7       	ldi	r20, 0x7F	; 127
     f74:	57 e4       	ldi	r21, 0x47	; 71
     f76:	6f a1       	ldd	r22, Y+39	; 0x27
     f78:	78 a5       	ldd	r23, Y+40	; 0x28
     f7a:	89 a5       	ldd	r24, Y+41	; 0x29
     f7c:	9a a5       	ldd	r25, Y+42	; 0x2a
     f7e:	0e 94 b5 37 	call	0x6f6a	; 0x6f6a <__gtsf2>
     f82:	18 16       	cp	r1, r24
     f84:	64 f5       	brge	.+88     	; 0xfde <readBF+0x31c>
	{
		//	__ticks = requested delay in 1/10 ms
		__ticks = (uint16_t) (__ms * 10.0);
     f86:	20 e0       	ldi	r18, 0x00	; 0
     f88:	30 e0       	ldi	r19, 0x00	; 0
     f8a:	40 e2       	ldi	r20, 0x20	; 32
     f8c:	51 e4       	ldi	r21, 0x41	; 65
     f8e:	6b a1       	ldd	r22, Y+35	; 0x23
     f90:	7c a1       	ldd	r23, Y+36	; 0x24
     f92:	8d a1       	ldd	r24, Y+37	; 0x25
     f94:	9e a1       	ldd	r25, Y+38	; 0x26
     f96:	0e 94 2d 36 	call	0x6c5a	; 0x6c5a <__mulsf3>
     f9a:	dc 01       	movw	r26, r24
     f9c:	cb 01       	movw	r24, r22
     f9e:	bc 01       	movw	r22, r24
     fa0:	cd 01       	movw	r24, r26
     fa2:	0e 94 48 34 	call	0x6890	; 0x6890 <__fixunssfsi>
     fa6:	dc 01       	movw	r26, r24
     fa8:	cb 01       	movw	r24, r22
     faa:	9c a7       	std	Y+44, r25	; 0x2c
     fac:	8b a7       	std	Y+43, r24	; 0x2b
     fae:	12 c0       	rjmp	.+36     	; 0xfd4 <readBF+0x312>
     fb0:	80 e9       	ldi	r24, 0x90	; 144
     fb2:	91 e0       	ldi	r25, 0x01	; 1
     fb4:	9e a7       	std	Y+46, r25	; 0x2e
     fb6:	8d a7       	std	Y+45, r24	; 0x2d
    milliseconds can be achieved.
 */
void
_delay_loop_2(uint16_t __count)
{
	__asm__ volatile (
     fb8:	8d a5       	ldd	r24, Y+45	; 0x2d
     fba:	9e a5       	ldd	r25, Y+46	; 0x2e
     fbc:	8c 01       	movw	r16, r24
     fbe:	c8 01       	movw	r24, r16
     fc0:	01 97       	sbiw	r24, 0x01	; 1
     fc2:	f1 f7       	brne	.-4      	; 0xfc0 <readBF+0x2fe>
     fc4:	8c 01       	movw	r16, r24
     fc6:	1e a7       	std	Y+46, r17	; 0x2e
     fc8:	0d a7       	std	Y+45, r16	; 0x2d
		while(__ticks)
		{
			// wait 1/10 ms
			_delay_loop_2(((F_CPU) / 4e3) / 10);
			__ticks --;
     fca:	8b a5       	ldd	r24, Y+43	; 0x2b
     fcc:	9c a5       	ldd	r25, Y+44	; 0x2c
     fce:	01 97       	sbiw	r24, 0x01	; 1
     fd0:	9c a7       	std	Y+44, r25	; 0x2c
     fd2:	8b a7       	std	Y+43, r24	; 0x2b
		__ticks = 1;
	else if (__tmp > 65535)
	{
		//	__ticks = requested delay in 1/10 ms
		__ticks = (uint16_t) (__ms * 10.0);
		while(__ticks)
     fd4:	8b a5       	ldd	r24, Y+43	; 0x2b
     fd6:	9c a5       	ldd	r25, Y+44	; 0x2c
     fd8:	00 97       	sbiw	r24, 0x00	; 0
     fda:	51 f7       	brne	.-44     	; 0xfb0 <readBF+0x2ee>
     fdc:	28 c0       	rjmp	.+80     	; 0x102e <readBF+0x36c>
			__ticks --;
		}
		return;
	}
	else
		__ticks = (uint16_t)__tmp;
     fde:	6f a1       	ldd	r22, Y+39	; 0x27
     fe0:	78 a5       	ldd	r23, Y+40	; 0x28
     fe2:	89 a5       	ldd	r24, Y+41	; 0x29
     fe4:	9a a5       	ldd	r25, Y+42	; 0x2a
     fe6:	0e 94 48 34 	call	0x6890	; 0x6890 <__fixunssfsi>
     fea:	dc 01       	movw	r26, r24
     fec:	cb 01       	movw	r24, r22
     fee:	9c a7       	std	Y+44, r25	; 0x2c
     ff0:	8b a7       	std	Y+43, r24	; 0x2b
     ff2:	8b a5       	ldd	r24, Y+43	; 0x2b
     ff4:	9c a5       	ldd	r25, Y+44	; 0x2c
     ff6:	98 ab       	std	Y+48, r25	; 0x30
     ff8:	8f a7       	std	Y+47, r24	; 0x2f
     ffa:	8f a5       	ldd	r24, Y+47	; 0x2f
     ffc:	98 a9       	ldd	r25, Y+48	; 0x30
     ffe:	8c 01       	movw	r16, r24
    1000:	f8 01       	movw	r30, r16
    1002:	31 97       	sbiw	r30, 0x01	; 1
    1004:	f1 f7       	brne	.-4      	; 0x1002 <readBF+0x340>
    1006:	8f 01       	movw	r16, r30
    1008:	18 ab       	std	Y+48, r17	; 0x30
    100a:	0f a7       	std	Y+47, r16	; 0x2f
    100c:	10 c0       	rjmp	.+32     	; 0x102e <readBF+0x36c>
	{
		_delay_ms(__us / 1000.0);
		return;
	}
	else
		__ticks = (uint8_t)__tmp;
    100e:	6e 8d       	ldd	r22, Y+30	; 0x1e
    1010:	7f 8d       	ldd	r23, Y+31	; 0x1f
    1012:	88 a1       	ldd	r24, Y+32	; 0x20
    1014:	99 a1       	ldd	r25, Y+33	; 0x21
    1016:	0e 94 48 34 	call	0x6890	; 0x6890 <__fixunssfsi>
    101a:	dc 01       	movw	r26, r24
    101c:	cb 01       	movw	r24, r22
    101e:	8a a3       	std	Y+34, r24	; 0x22
    1020:	8a a1       	ldd	r24, Y+34	; 0x22
    1022:	89 ab       	std	Y+49, r24	; 0x31
    can be achieved.
*/
void
_delay_loop_1(uint8_t __count)
{
	__asm__ volatile (
    1024:	89 a9       	ldd	r24, Y+49	; 0x31
    1026:	18 2f       	mov	r17, r24
    1028:	1a 95       	dec	r17
    102a:	f1 f7       	brne	.-4      	; 0x1028 <readBF+0x366>
    102c:	19 ab       	std	Y+49, r17	; 0x31

	_delay_us(50);

	cbi(LCD_CTRL, LCD_EN);  //LCD Disable
    102e:	85 e3       	ldi	r24, 0x35	; 53
    1030:	90 e0       	ldi	r25, 0x00	; 0
    1032:	25 e3       	ldi	r18, 0x35	; 53
    1034:	30 e0       	ldi	r19, 0x00	; 0
    1036:	f9 01       	movw	r30, r18
    1038:	20 81       	ld	r18, Z
    103a:	2b 7f       	andi	r18, 0xFB	; 251
    103c:	fc 01       	movw	r30, r24
    103e:	20 83       	st	Z, r18

	return ch; 
    1040:	89 81       	ldd	r24, Y+1	; 0x01
}
    1042:	e1 96       	adiw	r28, 0x31	; 49
    1044:	0f b6       	in	r0, 0x3f	; 63
    1046:	f8 94       	cli
    1048:	de bf       	out	0x3e, r29	; 62
    104a:	0f be       	out	0x3f, r0	; 63
    104c:	cd bf       	out	0x3d, r28	; 61
    104e:	df 91       	pop	r29
    1050:	cf 91       	pop	r28
    1052:	1f 91       	pop	r17
    1054:	0f 91       	pop	r16
    1056:	08 95       	ret

00001058 <waitBusy>:

void waitBusy() 
{
    1058:	cf 93       	push	r28
    105a:	df 93       	push	r29
    105c:	cd b7       	in	r28, 0x3d	; 61
    105e:	de b7       	in	r29, 0x3e	; 62
	portIn(); 
    1060:	0e 94 1a 02 	call	0x434	; 0x434 <portIn>
	while((readBF() & (1<<LCD_BUSY)) !=0);
    1064:	00 00       	nop
    1066:	0e 94 61 06 	call	0xcc2	; 0xcc2 <readBF>
    106a:	88 23       	and	r24, r24
    106c:	e4 f3       	brlt	.-8      	; 0x1066 <waitBusy+0xe>
	portOut();
    106e:	0e 94 09 02 	call	0x412	; 0x412 <portOut>
}
    1072:	df 91       	pop	r29
    1074:	cf 91       	pop	r28
    1076:	08 95       	ret

00001078 <readChar>:


unsigned char readChar()  //읽어들이는 함수//매개변수//명령어를 읽어온다//DDRAM에서 문자읽게 함수 
{
    1078:	0f 93       	push	r16
    107a:	1f 93       	push	r17
    107c:	cf 93       	push	r28
    107e:	df 93       	push	r29
    1080:	cd b7       	in	r28, 0x3d	; 61
    1082:	de b7       	in	r29, 0x3e	; 62
    1084:	e1 97       	sbiw	r28, 0x31	; 49
    1086:	0f b6       	in	r0, 0x3f	; 63
    1088:	f8 94       	cli
    108a:	de bf       	out	0x3e, r29	; 62
    108c:	0f be       	out	0x3f, r0	; 63
    108e:	cd bf       	out	0x3d, r28	; 61
	unsigned char ch;

	sbi(LCD_CTRL, LCD_EN);  //PORTG = 0b00000110;
    1090:	85 e3       	ldi	r24, 0x35	; 53
    1092:	90 e0       	ldi	r25, 0x00	; 0
    1094:	25 e3       	ldi	r18, 0x35	; 53
    1096:	30 e0       	ldi	r19, 0x00	; 0
    1098:	f9 01       	movw	r30, r18
    109a:	20 81       	ld	r18, Z
    109c:	24 60       	ori	r18, 0x04	; 4
    109e:	fc 01       	movw	r30, r24
    10a0:	20 83       	st	Z, r18
	sbi(LCD_CTRL, LCD_RW);
    10a2:	85 e3       	ldi	r24, 0x35	; 53
    10a4:	90 e0       	ldi	r25, 0x00	; 0
    10a6:	25 e3       	ldi	r18, 0x35	; 53
    10a8:	30 e0       	ldi	r19, 0x00	; 0
    10aa:	f9 01       	movw	r30, r18
    10ac:	20 81       	ld	r18, Z
    10ae:	22 60       	ori	r18, 0x02	; 2
    10b0:	fc 01       	movw	r30, r24
    10b2:	20 83       	st	Z, r18
	sbi(LCD_CTRL, LCD_RS);  //LCD Enable
    10b4:	85 e3       	ldi	r24, 0x35	; 53
    10b6:	90 e0       	ldi	r25, 0x00	; 0
    10b8:	25 e3       	ldi	r18, 0x35	; 53
    10ba:	30 e0       	ldi	r19, 0x00	; 0
    10bc:	f9 01       	movw	r30, r18
    10be:	20 81       	ld	r18, Z
    10c0:	21 60       	ori	r18, 0x01	; 1
    10c2:	fc 01       	movw	r30, r24
    10c4:	20 83       	st	Z, r18
    10c6:	80 e0       	ldi	r24, 0x00	; 0
    10c8:	90 e0       	ldi	r25, 0x00	; 0
    10ca:	a8 e4       	ldi	r26, 0x48	; 72
    10cc:	b2 e4       	ldi	r27, 0x42	; 66
    10ce:	8a 83       	std	Y+2, r24	; 0x02
    10d0:	9b 83       	std	Y+3, r25	; 0x03
    10d2:	ac 83       	std	Y+4, r26	; 0x04
    10d4:	bd 83       	std	Y+5, r27	; 0x05
	#endif

	__builtin_avr_delay_cycles(__ticks_dc);

#else
	__tmp = ((F_CPU) / 3e6) * __us;
    10d6:	2b ea       	ldi	r18, 0xAB	; 171
    10d8:	3a ea       	ldi	r19, 0xAA	; 170
    10da:	4a ea       	ldi	r20, 0xAA	; 170
    10dc:	50 e4       	ldi	r21, 0x40	; 64
    10de:	6a 81       	ldd	r22, Y+2	; 0x02
    10e0:	7b 81       	ldd	r23, Y+3	; 0x03
    10e2:	8c 81       	ldd	r24, Y+4	; 0x04
    10e4:	9d 81       	ldd	r25, Y+5	; 0x05
    10e6:	0e 94 2d 36 	call	0x6c5a	; 0x6c5a <__mulsf3>
    10ea:	dc 01       	movw	r26, r24
    10ec:	cb 01       	movw	r24, r22
    10ee:	8e 83       	std	Y+6, r24	; 0x06
    10f0:	9f 83       	std	Y+7, r25	; 0x07
    10f2:	a8 87       	std	Y+8, r26	; 0x08
    10f4:	b9 87       	std	Y+9, r27	; 0x09
	if (__tmp < 1.0)
    10f6:	20 e0       	ldi	r18, 0x00	; 0
    10f8:	30 e0       	ldi	r19, 0x00	; 0
    10fa:	40 e8       	ldi	r20, 0x80	; 128
    10fc:	5f e3       	ldi	r21, 0x3F	; 63
    10fe:	6e 81       	ldd	r22, Y+6	; 0x06
    1100:	7f 81       	ldd	r23, Y+7	; 0x07
    1102:	88 85       	ldd	r24, Y+8	; 0x08
    1104:	99 85       	ldd	r25, Y+9	; 0x09
    1106:	0e 94 13 38 	call	0x7026	; 0x7026 <__ltsf2>
    110a:	88 23       	and	r24, r24
    110c:	1c f4       	brge	.+6      	; 0x1114 <__stack+0x15>
		__ticks = 1;
    110e:	81 e0       	ldi	r24, 0x01	; 1
    1110:	8a 87       	std	Y+10, r24	; 0x0a
    1112:	97 c0       	rjmp	.+302    	; 0x1242 <__stack+0x143>
	else if (__tmp > 255)
    1114:	20 e0       	ldi	r18, 0x00	; 0
    1116:	30 e0       	ldi	r19, 0x00	; 0
    1118:	4f e7       	ldi	r20, 0x7F	; 127
    111a:	53 e4       	ldi	r21, 0x43	; 67
    111c:	6e 81       	ldd	r22, Y+6	; 0x06
    111e:	7f 81       	ldd	r23, Y+7	; 0x07
    1120:	88 85       	ldd	r24, Y+8	; 0x08
    1122:	99 85       	ldd	r25, Y+9	; 0x09
    1124:	0e 94 b5 37 	call	0x6f6a	; 0x6f6a <__gtsf2>
    1128:	18 16       	cp	r1, r24
    112a:	0c f0       	brlt	.+2      	; 0x112e <__stack+0x2f>
    112c:	81 c0       	rjmp	.+258    	; 0x1230 <__stack+0x131>
	{
		_delay_ms(__us / 1000.0);
    112e:	20 e0       	ldi	r18, 0x00	; 0
    1130:	30 e0       	ldi	r19, 0x00	; 0
    1132:	4a e7       	ldi	r20, 0x7A	; 122
    1134:	54 e4       	ldi	r21, 0x44	; 68
    1136:	6a 81       	ldd	r22, Y+2	; 0x02
    1138:	7b 81       	ldd	r23, Y+3	; 0x03
    113a:	8c 81       	ldd	r24, Y+4	; 0x04
    113c:	9d 81       	ldd	r25, Y+5	; 0x05
    113e:	0e 94 12 37 	call	0x6e24	; 0x6e24 <__divsf3>
    1142:	dc 01       	movw	r26, r24
    1144:	cb 01       	movw	r24, r22
    1146:	8b 87       	std	Y+11, r24	; 0x0b
    1148:	9c 87       	std	Y+12, r25	; 0x0c
    114a:	ad 87       	std	Y+13, r26	; 0x0d
    114c:	be 87       	std	Y+14, r27	; 0x0e
	#endif

	__builtin_avr_delay_cycles(__ticks_dc);

#else
	__tmp = ((F_CPU) / 4e3) * __ms;
    114e:	20 e0       	ldi	r18, 0x00	; 0
    1150:	30 e0       	ldi	r19, 0x00	; 0
    1152:	4a e7       	ldi	r20, 0x7A	; 122
    1154:	55 e4       	ldi	r21, 0x45	; 69
    1156:	6b 85       	ldd	r22, Y+11	; 0x0b
    1158:	7c 85       	ldd	r23, Y+12	; 0x0c
    115a:	8d 85       	ldd	r24, Y+13	; 0x0d
    115c:	9e 85       	ldd	r25, Y+14	; 0x0e
    115e:	0e 94 2d 36 	call	0x6c5a	; 0x6c5a <__mulsf3>
    1162:	dc 01       	movw	r26, r24
    1164:	cb 01       	movw	r24, r22
    1166:	8f 87       	std	Y+15, r24	; 0x0f
    1168:	98 8b       	std	Y+16, r25	; 0x10
    116a:	a9 8b       	std	Y+17, r26	; 0x11
    116c:	ba 8b       	std	Y+18, r27	; 0x12
	if (__tmp < 1.0)
    116e:	20 e0       	ldi	r18, 0x00	; 0
    1170:	30 e0       	ldi	r19, 0x00	; 0
    1172:	40 e8       	ldi	r20, 0x80	; 128
    1174:	5f e3       	ldi	r21, 0x3F	; 63
    1176:	6f 85       	ldd	r22, Y+15	; 0x0f
    1178:	78 89       	ldd	r23, Y+16	; 0x10
    117a:	89 89       	ldd	r24, Y+17	; 0x11
    117c:	9a 89       	ldd	r25, Y+18	; 0x12
    117e:	0e 94 13 38 	call	0x7026	; 0x7026 <__ltsf2>
    1182:	88 23       	and	r24, r24
    1184:	2c f4       	brge	.+10     	; 0x1190 <__stack+0x91>
		__ticks = 1;
    1186:	81 e0       	ldi	r24, 0x01	; 1
    1188:	90 e0       	ldi	r25, 0x00	; 0
    118a:	9c 8b       	std	Y+20, r25	; 0x14
    118c:	8b 8b       	std	Y+19, r24	; 0x13
    118e:	42 c0       	rjmp	.+132    	; 0x1214 <__stack+0x115>
	else if (__tmp > 65535)
    1190:	20 e0       	ldi	r18, 0x00	; 0
    1192:	3f ef       	ldi	r19, 0xFF	; 255
    1194:	4f e7       	ldi	r20, 0x7F	; 127
    1196:	57 e4       	ldi	r21, 0x47	; 71
    1198:	6f 85       	ldd	r22, Y+15	; 0x0f
    119a:	78 89       	ldd	r23, Y+16	; 0x10
    119c:	89 89       	ldd	r24, Y+17	; 0x11
    119e:	9a 89       	ldd	r25, Y+18	; 0x12
    11a0:	0e 94 b5 37 	call	0x6f6a	; 0x6f6a <__gtsf2>
    11a4:	18 16       	cp	r1, r24
    11a6:	64 f5       	brge	.+88     	; 0x1200 <__stack+0x101>
	{
		//	__ticks = requested delay in 1/10 ms
		__ticks = (uint16_t) (__ms * 10.0);
    11a8:	20 e0       	ldi	r18, 0x00	; 0
    11aa:	30 e0       	ldi	r19, 0x00	; 0
    11ac:	40 e2       	ldi	r20, 0x20	; 32
    11ae:	51 e4       	ldi	r21, 0x41	; 65
    11b0:	6b 85       	ldd	r22, Y+11	; 0x0b
    11b2:	7c 85       	ldd	r23, Y+12	; 0x0c
    11b4:	8d 85       	ldd	r24, Y+13	; 0x0d
    11b6:	9e 85       	ldd	r25, Y+14	; 0x0e
    11b8:	0e 94 2d 36 	call	0x6c5a	; 0x6c5a <__mulsf3>
    11bc:	dc 01       	movw	r26, r24
    11be:	cb 01       	movw	r24, r22
    11c0:	bc 01       	movw	r22, r24
    11c2:	cd 01       	movw	r24, r26
    11c4:	0e 94 48 34 	call	0x6890	; 0x6890 <__fixunssfsi>
    11c8:	dc 01       	movw	r26, r24
    11ca:	cb 01       	movw	r24, r22
    11cc:	9c 8b       	std	Y+20, r25	; 0x14
    11ce:	8b 8b       	std	Y+19, r24	; 0x13
    11d0:	12 c0       	rjmp	.+36     	; 0x11f6 <__stack+0xf7>
    11d2:	80 e9       	ldi	r24, 0x90	; 144
    11d4:	91 e0       	ldi	r25, 0x01	; 1
    11d6:	9e 8b       	std	Y+22, r25	; 0x16
    11d8:	8d 8b       	std	Y+21, r24	; 0x15
    milliseconds can be achieved.
 */
void
_delay_loop_2(uint16_t __count)
{
	__asm__ volatile (
    11da:	8d 89       	ldd	r24, Y+21	; 0x15
    11dc:	9e 89       	ldd	r25, Y+22	; 0x16
    11de:	8c 01       	movw	r16, r24
    11e0:	c8 01       	movw	r24, r16
    11e2:	01 97       	sbiw	r24, 0x01	; 1
    11e4:	f1 f7       	brne	.-4      	; 0x11e2 <__stack+0xe3>
    11e6:	8c 01       	movw	r16, r24
    11e8:	1e 8b       	std	Y+22, r17	; 0x16
    11ea:	0d 8b       	std	Y+21, r16	; 0x15
		while(__ticks)
		{
			// wait 1/10 ms
			_delay_loop_2(((F_CPU) / 4e3) / 10);
			__ticks --;
    11ec:	8b 89       	ldd	r24, Y+19	; 0x13
    11ee:	9c 89       	ldd	r25, Y+20	; 0x14
    11f0:	01 97       	sbiw	r24, 0x01	; 1
    11f2:	9c 8b       	std	Y+20, r25	; 0x14
    11f4:	8b 8b       	std	Y+19, r24	; 0x13
		__ticks = 1;
	else if (__tmp > 65535)
	{
		//	__ticks = requested delay in 1/10 ms
		__ticks = (uint16_t) (__ms * 10.0);
		while(__ticks)
    11f6:	8b 89       	ldd	r24, Y+19	; 0x13
    11f8:	9c 89       	ldd	r25, Y+20	; 0x14
    11fa:	00 97       	sbiw	r24, 0x00	; 0
    11fc:	51 f7       	brne	.-44     	; 0x11d2 <__stack+0xd3>
    11fe:	28 c0       	rjmp	.+80     	; 0x1250 <__stack+0x151>
			__ticks --;
		}
		return;
	}
	else
		__ticks = (uint16_t)__tmp;
    1200:	6f 85       	ldd	r22, Y+15	; 0x0f
    1202:	78 89       	ldd	r23, Y+16	; 0x10
    1204:	89 89       	ldd	r24, Y+17	; 0x11
    1206:	9a 89       	ldd	r25, Y+18	; 0x12
    1208:	0e 94 48 34 	call	0x6890	; 0x6890 <__fixunssfsi>
    120c:	dc 01       	movw	r26, r24
    120e:	cb 01       	movw	r24, r22
    1210:	9c 8b       	std	Y+20, r25	; 0x14
    1212:	8b 8b       	std	Y+19, r24	; 0x13
    1214:	8b 89       	ldd	r24, Y+19	; 0x13
    1216:	9c 89       	ldd	r25, Y+20	; 0x14
    1218:	98 8f       	std	Y+24, r25	; 0x18
    121a:	8f 8b       	std	Y+23, r24	; 0x17
    121c:	8f 89       	ldd	r24, Y+23	; 0x17
    121e:	98 8d       	ldd	r25, Y+24	; 0x18
    1220:	8c 01       	movw	r16, r24
    1222:	f8 01       	movw	r30, r16
    1224:	31 97       	sbiw	r30, 0x01	; 1
    1226:	f1 f7       	brne	.-4      	; 0x1224 <__stack+0x125>
    1228:	8f 01       	movw	r16, r30
    122a:	18 8f       	std	Y+24, r17	; 0x18
    122c:	0f 8b       	std	Y+23, r16	; 0x17
    122e:	10 c0       	rjmp	.+32     	; 0x1250 <__stack+0x151>
	{
		_delay_ms(__us / 1000.0);
		return;
	}
	else
		__ticks = (uint8_t)__tmp;
    1230:	6e 81       	ldd	r22, Y+6	; 0x06
    1232:	7f 81       	ldd	r23, Y+7	; 0x07
    1234:	88 85       	ldd	r24, Y+8	; 0x08
    1236:	99 85       	ldd	r25, Y+9	; 0x09
    1238:	0e 94 48 34 	call	0x6890	; 0x6890 <__fixunssfsi>
    123c:	dc 01       	movw	r26, r24
    123e:	cb 01       	movw	r24, r22
    1240:	8a 87       	std	Y+10, r24	; 0x0a
    1242:	8a 85       	ldd	r24, Y+10	; 0x0a
    1244:	89 8f       	std	Y+25, r24	; 0x19
    can be achieved.
*/
void
_delay_loop_1(uint8_t __count)
{
	__asm__ volatile (
    1246:	89 8d       	ldd	r24, Y+25	; 0x19
    1248:	18 2f       	mov	r17, r24
    124a:	1a 95       	dec	r17
    124c:	f1 f7       	brne	.-4      	; 0x124a <__stack+0x14b>
    124e:	19 8f       	std	Y+25, r17	; 0x19
	_delay_us(50);

	ch = LCD_PIN;
    1250:	89 e3       	ldi	r24, 0x39	; 57
    1252:	90 e0       	ldi	r25, 0x00	; 0
    1254:	fc 01       	movw	r30, r24
    1256:	80 81       	ld	r24, Z
    1258:	89 83       	std	Y+1, r24	; 0x01
    125a:	80 e0       	ldi	r24, 0x00	; 0
    125c:	90 e0       	ldi	r25, 0x00	; 0
    125e:	a8 e4       	ldi	r26, 0x48	; 72
    1260:	b2 e4       	ldi	r27, 0x42	; 66
    1262:	8a 8f       	std	Y+26, r24	; 0x1a
    1264:	9b 8f       	std	Y+27, r25	; 0x1b
    1266:	ac 8f       	std	Y+28, r26	; 0x1c
    1268:	bd 8f       	std	Y+29, r27	; 0x1d
	#endif

	__builtin_avr_delay_cycles(__ticks_dc);

#else
	__tmp = ((F_CPU) / 3e6) * __us;
    126a:	2b ea       	ldi	r18, 0xAB	; 171
    126c:	3a ea       	ldi	r19, 0xAA	; 170
    126e:	4a ea       	ldi	r20, 0xAA	; 170
    1270:	50 e4       	ldi	r21, 0x40	; 64
    1272:	6a 8d       	ldd	r22, Y+26	; 0x1a
    1274:	7b 8d       	ldd	r23, Y+27	; 0x1b
    1276:	8c 8d       	ldd	r24, Y+28	; 0x1c
    1278:	9d 8d       	ldd	r25, Y+29	; 0x1d
    127a:	0e 94 2d 36 	call	0x6c5a	; 0x6c5a <__mulsf3>
    127e:	dc 01       	movw	r26, r24
    1280:	cb 01       	movw	r24, r22
    1282:	8e 8f       	std	Y+30, r24	; 0x1e
    1284:	9f 8f       	std	Y+31, r25	; 0x1f
    1286:	a8 a3       	std	Y+32, r26	; 0x20
    1288:	b9 a3       	std	Y+33, r27	; 0x21
	if (__tmp < 1.0)
    128a:	20 e0       	ldi	r18, 0x00	; 0
    128c:	30 e0       	ldi	r19, 0x00	; 0
    128e:	40 e8       	ldi	r20, 0x80	; 128
    1290:	5f e3       	ldi	r21, 0x3F	; 63
    1292:	6e 8d       	ldd	r22, Y+30	; 0x1e
    1294:	7f 8d       	ldd	r23, Y+31	; 0x1f
    1296:	88 a1       	ldd	r24, Y+32	; 0x20
    1298:	99 a1       	ldd	r25, Y+33	; 0x21
    129a:	0e 94 13 38 	call	0x7026	; 0x7026 <__ltsf2>
    129e:	88 23       	and	r24, r24
    12a0:	1c f4       	brge	.+6      	; 0x12a8 <__stack+0x1a9>
		__ticks = 1;
    12a2:	81 e0       	ldi	r24, 0x01	; 1
    12a4:	8a a3       	std	Y+34, r24	; 0x22
    12a6:	97 c0       	rjmp	.+302    	; 0x13d6 <__stack+0x2d7>
	else if (__tmp > 255)
    12a8:	20 e0       	ldi	r18, 0x00	; 0
    12aa:	30 e0       	ldi	r19, 0x00	; 0
    12ac:	4f e7       	ldi	r20, 0x7F	; 127
    12ae:	53 e4       	ldi	r21, 0x43	; 67
    12b0:	6e 8d       	ldd	r22, Y+30	; 0x1e
    12b2:	7f 8d       	ldd	r23, Y+31	; 0x1f
    12b4:	88 a1       	ldd	r24, Y+32	; 0x20
    12b6:	99 a1       	ldd	r25, Y+33	; 0x21
    12b8:	0e 94 b5 37 	call	0x6f6a	; 0x6f6a <__gtsf2>
    12bc:	18 16       	cp	r1, r24
    12be:	0c f0       	brlt	.+2      	; 0x12c2 <__stack+0x1c3>
    12c0:	81 c0       	rjmp	.+258    	; 0x13c4 <__stack+0x2c5>
	{
		_delay_ms(__us / 1000.0);
    12c2:	20 e0       	ldi	r18, 0x00	; 0
    12c4:	30 e0       	ldi	r19, 0x00	; 0
    12c6:	4a e7       	ldi	r20, 0x7A	; 122
    12c8:	54 e4       	ldi	r21, 0x44	; 68
    12ca:	6a 8d       	ldd	r22, Y+26	; 0x1a
    12cc:	7b 8d       	ldd	r23, Y+27	; 0x1b
    12ce:	8c 8d       	ldd	r24, Y+28	; 0x1c
    12d0:	9d 8d       	ldd	r25, Y+29	; 0x1d
    12d2:	0e 94 12 37 	call	0x6e24	; 0x6e24 <__divsf3>
    12d6:	dc 01       	movw	r26, r24
    12d8:	cb 01       	movw	r24, r22
    12da:	8b a3       	std	Y+35, r24	; 0x23
    12dc:	9c a3       	std	Y+36, r25	; 0x24
    12de:	ad a3       	std	Y+37, r26	; 0x25
    12e0:	be a3       	std	Y+38, r27	; 0x26
	#endif

	__builtin_avr_delay_cycles(__ticks_dc);

#else
	__tmp = ((F_CPU) / 4e3) * __ms;
    12e2:	20 e0       	ldi	r18, 0x00	; 0
    12e4:	30 e0       	ldi	r19, 0x00	; 0
    12e6:	4a e7       	ldi	r20, 0x7A	; 122
    12e8:	55 e4       	ldi	r21, 0x45	; 69
    12ea:	6b a1       	ldd	r22, Y+35	; 0x23
    12ec:	7c a1       	ldd	r23, Y+36	; 0x24
    12ee:	8d a1       	ldd	r24, Y+37	; 0x25
    12f0:	9e a1       	ldd	r25, Y+38	; 0x26
    12f2:	0e 94 2d 36 	call	0x6c5a	; 0x6c5a <__mulsf3>
    12f6:	dc 01       	movw	r26, r24
    12f8:	cb 01       	movw	r24, r22
    12fa:	8f a3       	std	Y+39, r24	; 0x27
    12fc:	98 a7       	std	Y+40, r25	; 0x28
    12fe:	a9 a7       	std	Y+41, r26	; 0x29
    1300:	ba a7       	std	Y+42, r27	; 0x2a
	if (__tmp < 1.0)
    1302:	20 e0       	ldi	r18, 0x00	; 0
    1304:	30 e0       	ldi	r19, 0x00	; 0
    1306:	40 e8       	ldi	r20, 0x80	; 128
    1308:	5f e3       	ldi	r21, 0x3F	; 63
    130a:	6f a1       	ldd	r22, Y+39	; 0x27
    130c:	78 a5       	ldd	r23, Y+40	; 0x28
    130e:	89 a5       	ldd	r24, Y+41	; 0x29
    1310:	9a a5       	ldd	r25, Y+42	; 0x2a
    1312:	0e 94 13 38 	call	0x7026	; 0x7026 <__ltsf2>
    1316:	88 23       	and	r24, r24
    1318:	2c f4       	brge	.+10     	; 0x1324 <__stack+0x225>
		__ticks = 1;
    131a:	81 e0       	ldi	r24, 0x01	; 1
    131c:	90 e0       	ldi	r25, 0x00	; 0
    131e:	9c a7       	std	Y+44, r25	; 0x2c
    1320:	8b a7       	std	Y+43, r24	; 0x2b
    1322:	42 c0       	rjmp	.+132    	; 0x13a8 <__stack+0x2a9>
	else if (__tmp > 65535)
    1324:	20 e0       	ldi	r18, 0x00	; 0
    1326:	3f ef       	ldi	r19, 0xFF	; 255
    1328:	4f e7       	ldi	r20, 0x7F	; 127
    132a:	57 e4       	ldi	r21, 0x47	; 71
    132c:	6f a1       	ldd	r22, Y+39	; 0x27
    132e:	78 a5       	ldd	r23, Y+40	; 0x28
    1330:	89 a5       	ldd	r24, Y+41	; 0x29
    1332:	9a a5       	ldd	r25, Y+42	; 0x2a
    1334:	0e 94 b5 37 	call	0x6f6a	; 0x6f6a <__gtsf2>
    1338:	18 16       	cp	r1, r24
    133a:	64 f5       	brge	.+88     	; 0x1394 <__stack+0x295>
	{
		//	__ticks = requested delay in 1/10 ms
		__ticks = (uint16_t) (__ms * 10.0);
    133c:	20 e0       	ldi	r18, 0x00	; 0
    133e:	30 e0       	ldi	r19, 0x00	; 0
    1340:	40 e2       	ldi	r20, 0x20	; 32
    1342:	51 e4       	ldi	r21, 0x41	; 65
    1344:	6b a1       	ldd	r22, Y+35	; 0x23
    1346:	7c a1       	ldd	r23, Y+36	; 0x24
    1348:	8d a1       	ldd	r24, Y+37	; 0x25
    134a:	9e a1       	ldd	r25, Y+38	; 0x26
    134c:	0e 94 2d 36 	call	0x6c5a	; 0x6c5a <__mulsf3>
    1350:	dc 01       	movw	r26, r24
    1352:	cb 01       	movw	r24, r22
    1354:	bc 01       	movw	r22, r24
    1356:	cd 01       	movw	r24, r26
    1358:	0e 94 48 34 	call	0x6890	; 0x6890 <__fixunssfsi>
    135c:	dc 01       	movw	r26, r24
    135e:	cb 01       	movw	r24, r22
    1360:	9c a7       	std	Y+44, r25	; 0x2c
    1362:	8b a7       	std	Y+43, r24	; 0x2b
    1364:	12 c0       	rjmp	.+36     	; 0x138a <__stack+0x28b>
    1366:	80 e9       	ldi	r24, 0x90	; 144
    1368:	91 e0       	ldi	r25, 0x01	; 1
    136a:	9e a7       	std	Y+46, r25	; 0x2e
    136c:	8d a7       	std	Y+45, r24	; 0x2d
    milliseconds can be achieved.
 */
void
_delay_loop_2(uint16_t __count)
{
	__asm__ volatile (
    136e:	8d a5       	ldd	r24, Y+45	; 0x2d
    1370:	9e a5       	ldd	r25, Y+46	; 0x2e
    1372:	8c 01       	movw	r16, r24
    1374:	c8 01       	movw	r24, r16
    1376:	01 97       	sbiw	r24, 0x01	; 1
    1378:	f1 f7       	brne	.-4      	; 0x1376 <__stack+0x277>
    137a:	8c 01       	movw	r16, r24
    137c:	1e a7       	std	Y+46, r17	; 0x2e
    137e:	0d a7       	std	Y+45, r16	; 0x2d
		while(__ticks)
		{
			// wait 1/10 ms
			_delay_loop_2(((F_CPU) / 4e3) / 10);
			__ticks --;
    1380:	8b a5       	ldd	r24, Y+43	; 0x2b
    1382:	9c a5       	ldd	r25, Y+44	; 0x2c
    1384:	01 97       	sbiw	r24, 0x01	; 1
    1386:	9c a7       	std	Y+44, r25	; 0x2c
    1388:	8b a7       	std	Y+43, r24	; 0x2b
		__ticks = 1;
	else if (__tmp > 65535)
	{
		//	__ticks = requested delay in 1/10 ms
		__ticks = (uint16_t) (__ms * 10.0);
		while(__ticks)
    138a:	8b a5       	ldd	r24, Y+43	; 0x2b
    138c:	9c a5       	ldd	r25, Y+44	; 0x2c
    138e:	00 97       	sbiw	r24, 0x00	; 0
    1390:	51 f7       	brne	.-44     	; 0x1366 <__stack+0x267>
    1392:	28 c0       	rjmp	.+80     	; 0x13e4 <__stack+0x2e5>
			__ticks --;
		}
		return;
	}
	else
		__ticks = (uint16_t)__tmp;
    1394:	6f a1       	ldd	r22, Y+39	; 0x27
    1396:	78 a5       	ldd	r23, Y+40	; 0x28
    1398:	89 a5       	ldd	r24, Y+41	; 0x29
    139a:	9a a5       	ldd	r25, Y+42	; 0x2a
    139c:	0e 94 48 34 	call	0x6890	; 0x6890 <__fixunssfsi>
    13a0:	dc 01       	movw	r26, r24
    13a2:	cb 01       	movw	r24, r22
    13a4:	9c a7       	std	Y+44, r25	; 0x2c
    13a6:	8b a7       	std	Y+43, r24	; 0x2b
    13a8:	8b a5       	ldd	r24, Y+43	; 0x2b
    13aa:	9c a5       	ldd	r25, Y+44	; 0x2c
    13ac:	98 ab       	std	Y+48, r25	; 0x30
    13ae:	8f a7       	std	Y+47, r24	; 0x2f
    13b0:	8f a5       	ldd	r24, Y+47	; 0x2f
    13b2:	98 a9       	ldd	r25, Y+48	; 0x30
    13b4:	8c 01       	movw	r16, r24
    13b6:	f8 01       	movw	r30, r16
    13b8:	31 97       	sbiw	r30, 0x01	; 1
    13ba:	f1 f7       	brne	.-4      	; 0x13b8 <__stack+0x2b9>
    13bc:	8f 01       	movw	r16, r30
    13be:	18 ab       	std	Y+48, r17	; 0x30
    13c0:	0f a7       	std	Y+47, r16	; 0x2f
    13c2:	10 c0       	rjmp	.+32     	; 0x13e4 <__stack+0x2e5>
	{
		_delay_ms(__us / 1000.0);
		return;
	}
	else
		__ticks = (uint8_t)__tmp;
    13c4:	6e 8d       	ldd	r22, Y+30	; 0x1e
    13c6:	7f 8d       	ldd	r23, Y+31	; 0x1f
    13c8:	88 a1       	ldd	r24, Y+32	; 0x20
    13ca:	99 a1       	ldd	r25, Y+33	; 0x21
    13cc:	0e 94 48 34 	call	0x6890	; 0x6890 <__fixunssfsi>
    13d0:	dc 01       	movw	r26, r24
    13d2:	cb 01       	movw	r24, r22
    13d4:	8a a3       	std	Y+34, r24	; 0x22
    13d6:	8a a1       	ldd	r24, Y+34	; 0x22
    13d8:	89 ab       	std	Y+49, r24	; 0x31
    can be achieved.
*/
void
_delay_loop_1(uint8_t __count)
{
	__asm__ volatile (
    13da:	89 a9       	ldd	r24, Y+49	; 0x31
    13dc:	18 2f       	mov	r17, r24
    13de:	1a 95       	dec	r17
    13e0:	f1 f7       	brne	.-4      	; 0x13de <__stack+0x2df>
    13e2:	19 ab       	std	Y+49, r17	; 0x31
	_delay_us(50);

	cbi(LCD_CTRL, LCD_EN);  //LCD Disable
    13e4:	85 e3       	ldi	r24, 0x35	; 53
    13e6:	90 e0       	ldi	r25, 0x00	; 0
    13e8:	25 e3       	ldi	r18, 0x35	; 53
    13ea:	30 e0       	ldi	r19, 0x00	; 0
    13ec:	f9 01       	movw	r30, r18
    13ee:	20 81       	ld	r18, Z
    13f0:	2b 7f       	andi	r18, 0xFB	; 251
    13f2:	fc 01       	movw	r30, r24
    13f4:	20 83       	st	Z, r18

	return ch; 
    13f6:	89 81       	ldd	r24, Y+1	; 0x01
}
    13f8:	e1 96       	adiw	r28, 0x31	; 49
    13fa:	0f b6       	in	r0, 0x3f	; 63
    13fc:	f8 94       	cli
    13fe:	de bf       	out	0x3e, r29	; 62
    1400:	0f be       	out	0x3f, r0	; 63
    1402:	cd bf       	out	0x3d, r28	; 61
    1404:	df 91       	pop	r29
    1406:	cf 91       	pop	r28
    1408:	1f 91       	pop	r17
    140a:	0f 91       	pop	r16
    140c:	08 95       	ret

0000140e <LCDClear>:

// * Clear Display Reg
void LCDClear()  
{ 
    140e:	0f 93       	push	r16
    1410:	1f 93       	push	r17
    1412:	cf 93       	push	r28
    1414:	df 93       	push	r29
    1416:	cd b7       	in	r28, 0x3d	; 61
    1418:	de b7       	in	r29, 0x3e	; 62
    141a:	68 97       	sbiw	r28, 0x18	; 24
    141c:	0f b6       	in	r0, 0x3f	; 63
    141e:	f8 94       	cli
    1420:	de bf       	out	0x3e, r29	; 62
    1422:	0f be       	out	0x3f, r0	; 63
    1424:	cd bf       	out	0x3d, r28	; 61
	writeCTRL(1<<LCD_CLR);
    1426:	81 e0       	ldi	r24, 0x01	; 1
    1428:	0e 94 2a 02 	call	0x454	; 0x454 <writeCTRL>
    142c:	80 e0       	ldi	r24, 0x00	; 0
    142e:	90 e0       	ldi	r25, 0x00	; 0
    1430:	a0 e0       	ldi	r26, 0x00	; 0
    1432:	b0 e4       	ldi	r27, 0x40	; 64
    1434:	89 83       	std	Y+1, r24	; 0x01
    1436:	9a 83       	std	Y+2, r25	; 0x02
    1438:	ab 83       	std	Y+3, r26	; 0x03
    143a:	bc 83       	std	Y+4, r27	; 0x04
	#endif

	__builtin_avr_delay_cycles(__ticks_dc);

#else
	__tmp = ((F_CPU) / 3e6) * __us;
    143c:	2b ea       	ldi	r18, 0xAB	; 171
    143e:	3a ea       	ldi	r19, 0xAA	; 170
    1440:	4a ea       	ldi	r20, 0xAA	; 170
    1442:	50 e4       	ldi	r21, 0x40	; 64
    1444:	69 81       	ldd	r22, Y+1	; 0x01
    1446:	7a 81       	ldd	r23, Y+2	; 0x02
    1448:	8b 81       	ldd	r24, Y+3	; 0x03
    144a:	9c 81       	ldd	r25, Y+4	; 0x04
    144c:	0e 94 2d 36 	call	0x6c5a	; 0x6c5a <__mulsf3>
    1450:	dc 01       	movw	r26, r24
    1452:	cb 01       	movw	r24, r22
    1454:	8d 83       	std	Y+5, r24	; 0x05
    1456:	9e 83       	std	Y+6, r25	; 0x06
    1458:	af 83       	std	Y+7, r26	; 0x07
    145a:	b8 87       	std	Y+8, r27	; 0x08
	if (__tmp < 1.0)
    145c:	20 e0       	ldi	r18, 0x00	; 0
    145e:	30 e0       	ldi	r19, 0x00	; 0
    1460:	40 e8       	ldi	r20, 0x80	; 128
    1462:	5f e3       	ldi	r21, 0x3F	; 63
    1464:	6d 81       	ldd	r22, Y+5	; 0x05
    1466:	7e 81       	ldd	r23, Y+6	; 0x06
    1468:	8f 81       	ldd	r24, Y+7	; 0x07
    146a:	98 85       	ldd	r25, Y+8	; 0x08
    146c:	0e 94 13 38 	call	0x7026	; 0x7026 <__ltsf2>
    1470:	88 23       	and	r24, r24
    1472:	1c f4       	brge	.+6      	; 0x147a <LCDClear+0x6c>
		__ticks = 1;
    1474:	81 e0       	ldi	r24, 0x01	; 1
    1476:	89 87       	std	Y+9, r24	; 0x09
    1478:	97 c0       	rjmp	.+302    	; 0x15a8 <LCDClear+0x19a>
	else if (__tmp > 255)
    147a:	20 e0       	ldi	r18, 0x00	; 0
    147c:	30 e0       	ldi	r19, 0x00	; 0
    147e:	4f e7       	ldi	r20, 0x7F	; 127
    1480:	53 e4       	ldi	r21, 0x43	; 67
    1482:	6d 81       	ldd	r22, Y+5	; 0x05
    1484:	7e 81       	ldd	r23, Y+6	; 0x06
    1486:	8f 81       	ldd	r24, Y+7	; 0x07
    1488:	98 85       	ldd	r25, Y+8	; 0x08
    148a:	0e 94 b5 37 	call	0x6f6a	; 0x6f6a <__gtsf2>
    148e:	18 16       	cp	r1, r24
    1490:	0c f0       	brlt	.+2      	; 0x1494 <LCDClear+0x86>
    1492:	81 c0       	rjmp	.+258    	; 0x1596 <LCDClear+0x188>
	{
		_delay_ms(__us / 1000.0);
    1494:	20 e0       	ldi	r18, 0x00	; 0
    1496:	30 e0       	ldi	r19, 0x00	; 0
    1498:	4a e7       	ldi	r20, 0x7A	; 122
    149a:	54 e4       	ldi	r21, 0x44	; 68
    149c:	69 81       	ldd	r22, Y+1	; 0x01
    149e:	7a 81       	ldd	r23, Y+2	; 0x02
    14a0:	8b 81       	ldd	r24, Y+3	; 0x03
    14a2:	9c 81       	ldd	r25, Y+4	; 0x04
    14a4:	0e 94 12 37 	call	0x6e24	; 0x6e24 <__divsf3>
    14a8:	dc 01       	movw	r26, r24
    14aa:	cb 01       	movw	r24, r22
    14ac:	8a 87       	std	Y+10, r24	; 0x0a
    14ae:	9b 87       	std	Y+11, r25	; 0x0b
    14b0:	ac 87       	std	Y+12, r26	; 0x0c
    14b2:	bd 87       	std	Y+13, r27	; 0x0d
	#endif

	__builtin_avr_delay_cycles(__ticks_dc);

#else
	__tmp = ((F_CPU) / 4e3) * __ms;
    14b4:	20 e0       	ldi	r18, 0x00	; 0
    14b6:	30 e0       	ldi	r19, 0x00	; 0
    14b8:	4a e7       	ldi	r20, 0x7A	; 122
    14ba:	55 e4       	ldi	r21, 0x45	; 69
    14bc:	6a 85       	ldd	r22, Y+10	; 0x0a
    14be:	7b 85       	ldd	r23, Y+11	; 0x0b
    14c0:	8c 85       	ldd	r24, Y+12	; 0x0c
    14c2:	9d 85       	ldd	r25, Y+13	; 0x0d
    14c4:	0e 94 2d 36 	call	0x6c5a	; 0x6c5a <__mulsf3>
    14c8:	dc 01       	movw	r26, r24
    14ca:	cb 01       	movw	r24, r22
    14cc:	8e 87       	std	Y+14, r24	; 0x0e
    14ce:	9f 87       	std	Y+15, r25	; 0x0f
    14d0:	a8 8b       	std	Y+16, r26	; 0x10
    14d2:	b9 8b       	std	Y+17, r27	; 0x11
	if (__tmp < 1.0)
    14d4:	20 e0       	ldi	r18, 0x00	; 0
    14d6:	30 e0       	ldi	r19, 0x00	; 0
    14d8:	40 e8       	ldi	r20, 0x80	; 128
    14da:	5f e3       	ldi	r21, 0x3F	; 63
    14dc:	6e 85       	ldd	r22, Y+14	; 0x0e
    14de:	7f 85       	ldd	r23, Y+15	; 0x0f
    14e0:	88 89       	ldd	r24, Y+16	; 0x10
    14e2:	99 89       	ldd	r25, Y+17	; 0x11
    14e4:	0e 94 13 38 	call	0x7026	; 0x7026 <__ltsf2>
    14e8:	88 23       	and	r24, r24
    14ea:	2c f4       	brge	.+10     	; 0x14f6 <LCDClear+0xe8>
		__ticks = 1;
    14ec:	81 e0       	ldi	r24, 0x01	; 1
    14ee:	90 e0       	ldi	r25, 0x00	; 0
    14f0:	9b 8b       	std	Y+19, r25	; 0x13
    14f2:	8a 8b       	std	Y+18, r24	; 0x12
    14f4:	42 c0       	rjmp	.+132    	; 0x157a <LCDClear+0x16c>
	else if (__tmp > 65535)
    14f6:	20 e0       	ldi	r18, 0x00	; 0
    14f8:	3f ef       	ldi	r19, 0xFF	; 255
    14fa:	4f e7       	ldi	r20, 0x7F	; 127
    14fc:	57 e4       	ldi	r21, 0x47	; 71
    14fe:	6e 85       	ldd	r22, Y+14	; 0x0e
    1500:	7f 85       	ldd	r23, Y+15	; 0x0f
    1502:	88 89       	ldd	r24, Y+16	; 0x10
    1504:	99 89       	ldd	r25, Y+17	; 0x11
    1506:	0e 94 b5 37 	call	0x6f6a	; 0x6f6a <__gtsf2>
    150a:	18 16       	cp	r1, r24
    150c:	64 f5       	brge	.+88     	; 0x1566 <LCDClear+0x158>
	{
		//	__ticks = requested delay in 1/10 ms
		__ticks = (uint16_t) (__ms * 10.0);
    150e:	20 e0       	ldi	r18, 0x00	; 0
    1510:	30 e0       	ldi	r19, 0x00	; 0
    1512:	40 e2       	ldi	r20, 0x20	; 32
    1514:	51 e4       	ldi	r21, 0x41	; 65
    1516:	6a 85       	ldd	r22, Y+10	; 0x0a
    1518:	7b 85       	ldd	r23, Y+11	; 0x0b
    151a:	8c 85       	ldd	r24, Y+12	; 0x0c
    151c:	9d 85       	ldd	r25, Y+13	; 0x0d
    151e:	0e 94 2d 36 	call	0x6c5a	; 0x6c5a <__mulsf3>
    1522:	dc 01       	movw	r26, r24
    1524:	cb 01       	movw	r24, r22
    1526:	bc 01       	movw	r22, r24
    1528:	cd 01       	movw	r24, r26
    152a:	0e 94 48 34 	call	0x6890	; 0x6890 <__fixunssfsi>
    152e:	dc 01       	movw	r26, r24
    1530:	cb 01       	movw	r24, r22
    1532:	9b 8b       	std	Y+19, r25	; 0x13
    1534:	8a 8b       	std	Y+18, r24	; 0x12
    1536:	12 c0       	rjmp	.+36     	; 0x155c <LCDClear+0x14e>
    1538:	80 e9       	ldi	r24, 0x90	; 144
    153a:	91 e0       	ldi	r25, 0x01	; 1
    153c:	9d 8b       	std	Y+21, r25	; 0x15
    153e:	8c 8b       	std	Y+20, r24	; 0x14
    milliseconds can be achieved.
 */
void
_delay_loop_2(uint16_t __count)
{
	__asm__ volatile (
    1540:	8c 89       	ldd	r24, Y+20	; 0x14
    1542:	9d 89       	ldd	r25, Y+21	; 0x15
    1544:	8c 01       	movw	r16, r24
    1546:	c8 01       	movw	r24, r16
    1548:	01 97       	sbiw	r24, 0x01	; 1
    154a:	f1 f7       	brne	.-4      	; 0x1548 <LCDClear+0x13a>
    154c:	8c 01       	movw	r16, r24
    154e:	1d 8b       	std	Y+21, r17	; 0x15
    1550:	0c 8b       	std	Y+20, r16	; 0x14
		while(__ticks)
		{
			// wait 1/10 ms
			_delay_loop_2(((F_CPU) / 4e3) / 10);
			__ticks --;
    1552:	8a 89       	ldd	r24, Y+18	; 0x12
    1554:	9b 89       	ldd	r25, Y+19	; 0x13
    1556:	01 97       	sbiw	r24, 0x01	; 1
    1558:	9b 8b       	std	Y+19, r25	; 0x13
    155a:	8a 8b       	std	Y+18, r24	; 0x12
		__ticks = 1;
	else if (__tmp > 65535)
	{
		//	__ticks = requested delay in 1/10 ms
		__ticks = (uint16_t) (__ms * 10.0);
		while(__ticks)
    155c:	8a 89       	ldd	r24, Y+18	; 0x12
    155e:	9b 89       	ldd	r25, Y+19	; 0x13
    1560:	00 97       	sbiw	r24, 0x00	; 0
    1562:	51 f7       	brne	.-44     	; 0x1538 <LCDClear+0x12a>
    1564:	28 c0       	rjmp	.+80     	; 0x15b6 <LCDClear+0x1a8>
			__ticks --;
		}
		return;
	}
	else
		__ticks = (uint16_t)__tmp;
    1566:	6e 85       	ldd	r22, Y+14	; 0x0e
    1568:	7f 85       	ldd	r23, Y+15	; 0x0f
    156a:	88 89       	ldd	r24, Y+16	; 0x10
    156c:	99 89       	ldd	r25, Y+17	; 0x11
    156e:	0e 94 48 34 	call	0x6890	; 0x6890 <__fixunssfsi>
    1572:	dc 01       	movw	r26, r24
    1574:	cb 01       	movw	r24, r22
    1576:	9b 8b       	std	Y+19, r25	; 0x13
    1578:	8a 8b       	std	Y+18, r24	; 0x12
    157a:	8a 89       	ldd	r24, Y+18	; 0x12
    157c:	9b 89       	ldd	r25, Y+19	; 0x13
    157e:	9f 8b       	std	Y+23, r25	; 0x17
    1580:	8e 8b       	std	Y+22, r24	; 0x16
    1582:	8e 89       	ldd	r24, Y+22	; 0x16
    1584:	9f 89       	ldd	r25, Y+23	; 0x17
    1586:	8c 01       	movw	r16, r24
    1588:	c8 01       	movw	r24, r16
    158a:	01 97       	sbiw	r24, 0x01	; 1
    158c:	f1 f7       	brne	.-4      	; 0x158a <LCDClear+0x17c>
    158e:	8c 01       	movw	r16, r24
    1590:	1f 8b       	std	Y+23, r17	; 0x17
    1592:	0e 8b       	std	Y+22, r16	; 0x16
    1594:	10 c0       	rjmp	.+32     	; 0x15b6 <LCDClear+0x1a8>
	{
		_delay_ms(__us / 1000.0);
		return;
	}
	else
		__ticks = (uint8_t)__tmp;
    1596:	6d 81       	ldd	r22, Y+5	; 0x05
    1598:	7e 81       	ldd	r23, Y+6	; 0x06
    159a:	8f 81       	ldd	r24, Y+7	; 0x07
    159c:	98 85       	ldd	r25, Y+8	; 0x08
    159e:	0e 94 48 34 	call	0x6890	; 0x6890 <__fixunssfsi>
    15a2:	dc 01       	movw	r26, r24
    15a4:	cb 01       	movw	r24, r22
    15a6:	89 87       	std	Y+9, r24	; 0x09
    15a8:	89 85       	ldd	r24, Y+9	; 0x09
    15aa:	88 8f       	std	Y+24, r24	; 0x18
    can be achieved.
*/
void
_delay_loop_1(uint8_t __count)
{
	__asm__ volatile (
    15ac:	88 8d       	ldd	r24, Y+24	; 0x18
    15ae:	18 2f       	mov	r17, r24
    15b0:	1a 95       	dec	r17
    15b2:	f1 f7       	brne	.-4      	; 0x15b0 <LCDClear+0x1a2>
    15b4:	18 8f       	std	Y+24, r17	; 0x18
	_delay_us(2);
}
    15b6:	68 96       	adiw	r28, 0x18	; 24
    15b8:	0f b6       	in	r0, 0x3f	; 63
    15ba:	f8 94       	cli
    15bc:	de bf       	out	0x3e, r29	; 62
    15be:	0f be       	out	0x3f, r0	; 63
    15c0:	cd bf       	out	0x3d, r28	; 61
    15c2:	df 91       	pop	r29
    15c4:	cf 91       	pop	r28
    15c6:	1f 91       	pop	r17
    15c8:	0f 91       	pop	r16
    15ca:	08 95       	ret

000015cc <returnHome>:

void returnHome()
{
    15cc:	0f 93       	push	r16
    15ce:	1f 93       	push	r17
    15d0:	cf 93       	push	r28
    15d2:	df 93       	push	r29
    15d4:	cd b7       	in	r28, 0x3d	; 61
    15d6:	de b7       	in	r29, 0x3e	; 62
    15d8:	68 97       	sbiw	r28, 0x18	; 24
    15da:	0f b6       	in	r0, 0x3f	; 63
    15dc:	f8 94       	cli
    15de:	de bf       	out	0x3e, r29	; 62
    15e0:	0f be       	out	0x3f, r0	; 63
    15e2:	cd bf       	out	0x3d, r28	; 61
	writeCTRL(1<<LCD_HOME);
    15e4:	82 e0       	ldi	r24, 0x02	; 2
    15e6:	0e 94 2a 02 	call	0x454	; 0x454 <writeCTRL>
    15ea:	80 e0       	ldi	r24, 0x00	; 0
    15ec:	90 e0       	ldi	r25, 0x00	; 0
    15ee:	a0 e0       	ldi	r26, 0x00	; 0
    15f0:	b0 e4       	ldi	r27, 0x40	; 64
    15f2:	89 83       	std	Y+1, r24	; 0x01
    15f4:	9a 83       	std	Y+2, r25	; 0x02
    15f6:	ab 83       	std	Y+3, r26	; 0x03
    15f8:	bc 83       	std	Y+4, r27	; 0x04
	#endif

	__builtin_avr_delay_cycles(__ticks_dc);

#else
	__tmp = ((F_CPU) / 3e6) * __us;
    15fa:	2b ea       	ldi	r18, 0xAB	; 171
    15fc:	3a ea       	ldi	r19, 0xAA	; 170
    15fe:	4a ea       	ldi	r20, 0xAA	; 170
    1600:	50 e4       	ldi	r21, 0x40	; 64
    1602:	69 81       	ldd	r22, Y+1	; 0x01
    1604:	7a 81       	ldd	r23, Y+2	; 0x02
    1606:	8b 81       	ldd	r24, Y+3	; 0x03
    1608:	9c 81       	ldd	r25, Y+4	; 0x04
    160a:	0e 94 2d 36 	call	0x6c5a	; 0x6c5a <__mulsf3>
    160e:	dc 01       	movw	r26, r24
    1610:	cb 01       	movw	r24, r22
    1612:	8d 83       	std	Y+5, r24	; 0x05
    1614:	9e 83       	std	Y+6, r25	; 0x06
    1616:	af 83       	std	Y+7, r26	; 0x07
    1618:	b8 87       	std	Y+8, r27	; 0x08
	if (__tmp < 1.0)
    161a:	20 e0       	ldi	r18, 0x00	; 0
    161c:	30 e0       	ldi	r19, 0x00	; 0
    161e:	40 e8       	ldi	r20, 0x80	; 128
    1620:	5f e3       	ldi	r21, 0x3F	; 63
    1622:	6d 81       	ldd	r22, Y+5	; 0x05
    1624:	7e 81       	ldd	r23, Y+6	; 0x06
    1626:	8f 81       	ldd	r24, Y+7	; 0x07
    1628:	98 85       	ldd	r25, Y+8	; 0x08
    162a:	0e 94 13 38 	call	0x7026	; 0x7026 <__ltsf2>
    162e:	88 23       	and	r24, r24
    1630:	1c f4       	brge	.+6      	; 0x1638 <returnHome+0x6c>
		__ticks = 1;
    1632:	81 e0       	ldi	r24, 0x01	; 1
    1634:	89 87       	std	Y+9, r24	; 0x09
    1636:	97 c0       	rjmp	.+302    	; 0x1766 <returnHome+0x19a>
	else if (__tmp > 255)
    1638:	20 e0       	ldi	r18, 0x00	; 0
    163a:	30 e0       	ldi	r19, 0x00	; 0
    163c:	4f e7       	ldi	r20, 0x7F	; 127
    163e:	53 e4       	ldi	r21, 0x43	; 67
    1640:	6d 81       	ldd	r22, Y+5	; 0x05
    1642:	7e 81       	ldd	r23, Y+6	; 0x06
    1644:	8f 81       	ldd	r24, Y+7	; 0x07
    1646:	98 85       	ldd	r25, Y+8	; 0x08
    1648:	0e 94 b5 37 	call	0x6f6a	; 0x6f6a <__gtsf2>
    164c:	18 16       	cp	r1, r24
    164e:	0c f0       	brlt	.+2      	; 0x1652 <returnHome+0x86>
    1650:	81 c0       	rjmp	.+258    	; 0x1754 <returnHome+0x188>
	{
		_delay_ms(__us / 1000.0);
    1652:	20 e0       	ldi	r18, 0x00	; 0
    1654:	30 e0       	ldi	r19, 0x00	; 0
    1656:	4a e7       	ldi	r20, 0x7A	; 122
    1658:	54 e4       	ldi	r21, 0x44	; 68
    165a:	69 81       	ldd	r22, Y+1	; 0x01
    165c:	7a 81       	ldd	r23, Y+2	; 0x02
    165e:	8b 81       	ldd	r24, Y+3	; 0x03
    1660:	9c 81       	ldd	r25, Y+4	; 0x04
    1662:	0e 94 12 37 	call	0x6e24	; 0x6e24 <__divsf3>
    1666:	dc 01       	movw	r26, r24
    1668:	cb 01       	movw	r24, r22
    166a:	8a 87       	std	Y+10, r24	; 0x0a
    166c:	9b 87       	std	Y+11, r25	; 0x0b
    166e:	ac 87       	std	Y+12, r26	; 0x0c
    1670:	bd 87       	std	Y+13, r27	; 0x0d
	#endif

	__builtin_avr_delay_cycles(__ticks_dc);

#else
	__tmp = ((F_CPU) / 4e3) * __ms;
    1672:	20 e0       	ldi	r18, 0x00	; 0
    1674:	30 e0       	ldi	r19, 0x00	; 0
    1676:	4a e7       	ldi	r20, 0x7A	; 122
    1678:	55 e4       	ldi	r21, 0x45	; 69
    167a:	6a 85       	ldd	r22, Y+10	; 0x0a
    167c:	7b 85       	ldd	r23, Y+11	; 0x0b
    167e:	8c 85       	ldd	r24, Y+12	; 0x0c
    1680:	9d 85       	ldd	r25, Y+13	; 0x0d
    1682:	0e 94 2d 36 	call	0x6c5a	; 0x6c5a <__mulsf3>
    1686:	dc 01       	movw	r26, r24
    1688:	cb 01       	movw	r24, r22
    168a:	8e 87       	std	Y+14, r24	; 0x0e
    168c:	9f 87       	std	Y+15, r25	; 0x0f
    168e:	a8 8b       	std	Y+16, r26	; 0x10
    1690:	b9 8b       	std	Y+17, r27	; 0x11
	if (__tmp < 1.0)
    1692:	20 e0       	ldi	r18, 0x00	; 0
    1694:	30 e0       	ldi	r19, 0x00	; 0
    1696:	40 e8       	ldi	r20, 0x80	; 128
    1698:	5f e3       	ldi	r21, 0x3F	; 63
    169a:	6e 85       	ldd	r22, Y+14	; 0x0e
    169c:	7f 85       	ldd	r23, Y+15	; 0x0f
    169e:	88 89       	ldd	r24, Y+16	; 0x10
    16a0:	99 89       	ldd	r25, Y+17	; 0x11
    16a2:	0e 94 13 38 	call	0x7026	; 0x7026 <__ltsf2>
    16a6:	88 23       	and	r24, r24
    16a8:	2c f4       	brge	.+10     	; 0x16b4 <returnHome+0xe8>
		__ticks = 1;
    16aa:	81 e0       	ldi	r24, 0x01	; 1
    16ac:	90 e0       	ldi	r25, 0x00	; 0
    16ae:	9b 8b       	std	Y+19, r25	; 0x13
    16b0:	8a 8b       	std	Y+18, r24	; 0x12
    16b2:	42 c0       	rjmp	.+132    	; 0x1738 <returnHome+0x16c>
	else if (__tmp > 65535)
    16b4:	20 e0       	ldi	r18, 0x00	; 0
    16b6:	3f ef       	ldi	r19, 0xFF	; 255
    16b8:	4f e7       	ldi	r20, 0x7F	; 127
    16ba:	57 e4       	ldi	r21, 0x47	; 71
    16bc:	6e 85       	ldd	r22, Y+14	; 0x0e
    16be:	7f 85       	ldd	r23, Y+15	; 0x0f
    16c0:	88 89       	ldd	r24, Y+16	; 0x10
    16c2:	99 89       	ldd	r25, Y+17	; 0x11
    16c4:	0e 94 b5 37 	call	0x6f6a	; 0x6f6a <__gtsf2>
    16c8:	18 16       	cp	r1, r24
    16ca:	64 f5       	brge	.+88     	; 0x1724 <returnHome+0x158>
	{
		//	__ticks = requested delay in 1/10 ms
		__ticks = (uint16_t) (__ms * 10.0);
    16cc:	20 e0       	ldi	r18, 0x00	; 0
    16ce:	30 e0       	ldi	r19, 0x00	; 0
    16d0:	40 e2       	ldi	r20, 0x20	; 32
    16d2:	51 e4       	ldi	r21, 0x41	; 65
    16d4:	6a 85       	ldd	r22, Y+10	; 0x0a
    16d6:	7b 85       	ldd	r23, Y+11	; 0x0b
    16d8:	8c 85       	ldd	r24, Y+12	; 0x0c
    16da:	9d 85       	ldd	r25, Y+13	; 0x0d
    16dc:	0e 94 2d 36 	call	0x6c5a	; 0x6c5a <__mulsf3>
    16e0:	dc 01       	movw	r26, r24
    16e2:	cb 01       	movw	r24, r22
    16e4:	bc 01       	movw	r22, r24
    16e6:	cd 01       	movw	r24, r26
    16e8:	0e 94 48 34 	call	0x6890	; 0x6890 <__fixunssfsi>
    16ec:	dc 01       	movw	r26, r24
    16ee:	cb 01       	movw	r24, r22
    16f0:	9b 8b       	std	Y+19, r25	; 0x13
    16f2:	8a 8b       	std	Y+18, r24	; 0x12
    16f4:	12 c0       	rjmp	.+36     	; 0x171a <returnHome+0x14e>
    16f6:	80 e9       	ldi	r24, 0x90	; 144
    16f8:	91 e0       	ldi	r25, 0x01	; 1
    16fa:	9d 8b       	std	Y+21, r25	; 0x15
    16fc:	8c 8b       	std	Y+20, r24	; 0x14
    milliseconds can be achieved.
 */
void
_delay_loop_2(uint16_t __count)
{
	__asm__ volatile (
    16fe:	8c 89       	ldd	r24, Y+20	; 0x14
    1700:	9d 89       	ldd	r25, Y+21	; 0x15
    1702:	8c 01       	movw	r16, r24
    1704:	c8 01       	movw	r24, r16
    1706:	01 97       	sbiw	r24, 0x01	; 1
    1708:	f1 f7       	brne	.-4      	; 0x1706 <returnHome+0x13a>
    170a:	8c 01       	movw	r16, r24
    170c:	1d 8b       	std	Y+21, r17	; 0x15
    170e:	0c 8b       	std	Y+20, r16	; 0x14
		while(__ticks)
		{
			// wait 1/10 ms
			_delay_loop_2(((F_CPU) / 4e3) / 10);
			__ticks --;
    1710:	8a 89       	ldd	r24, Y+18	; 0x12
    1712:	9b 89       	ldd	r25, Y+19	; 0x13
    1714:	01 97       	sbiw	r24, 0x01	; 1
    1716:	9b 8b       	std	Y+19, r25	; 0x13
    1718:	8a 8b       	std	Y+18, r24	; 0x12
		__ticks = 1;
	else if (__tmp > 65535)
	{
		//	__ticks = requested delay in 1/10 ms
		__ticks = (uint16_t) (__ms * 10.0);
		while(__ticks)
    171a:	8a 89       	ldd	r24, Y+18	; 0x12
    171c:	9b 89       	ldd	r25, Y+19	; 0x13
    171e:	00 97       	sbiw	r24, 0x00	; 0
    1720:	51 f7       	brne	.-44     	; 0x16f6 <returnHome+0x12a>
    1722:	28 c0       	rjmp	.+80     	; 0x1774 <returnHome+0x1a8>
			__ticks --;
		}
		return;
	}
	else
		__ticks = (uint16_t)__tmp;
    1724:	6e 85       	ldd	r22, Y+14	; 0x0e
    1726:	7f 85       	ldd	r23, Y+15	; 0x0f
    1728:	88 89       	ldd	r24, Y+16	; 0x10
    172a:	99 89       	ldd	r25, Y+17	; 0x11
    172c:	0e 94 48 34 	call	0x6890	; 0x6890 <__fixunssfsi>
    1730:	dc 01       	movw	r26, r24
    1732:	cb 01       	movw	r24, r22
    1734:	9b 8b       	std	Y+19, r25	; 0x13
    1736:	8a 8b       	std	Y+18, r24	; 0x12
    1738:	8a 89       	ldd	r24, Y+18	; 0x12
    173a:	9b 89       	ldd	r25, Y+19	; 0x13
    173c:	9f 8b       	std	Y+23, r25	; 0x17
    173e:	8e 8b       	std	Y+22, r24	; 0x16
    1740:	8e 89       	ldd	r24, Y+22	; 0x16
    1742:	9f 89       	ldd	r25, Y+23	; 0x17
    1744:	8c 01       	movw	r16, r24
    1746:	c8 01       	movw	r24, r16
    1748:	01 97       	sbiw	r24, 0x01	; 1
    174a:	f1 f7       	brne	.-4      	; 0x1748 <returnHome+0x17c>
    174c:	8c 01       	movw	r16, r24
    174e:	1f 8b       	std	Y+23, r17	; 0x17
    1750:	0e 8b       	std	Y+22, r16	; 0x16
    1752:	10 c0       	rjmp	.+32     	; 0x1774 <returnHome+0x1a8>
	{
		_delay_ms(__us / 1000.0);
		return;
	}
	else
		__ticks = (uint8_t)__tmp;
    1754:	6d 81       	ldd	r22, Y+5	; 0x05
    1756:	7e 81       	ldd	r23, Y+6	; 0x06
    1758:	8f 81       	ldd	r24, Y+7	; 0x07
    175a:	98 85       	ldd	r25, Y+8	; 0x08
    175c:	0e 94 48 34 	call	0x6890	; 0x6890 <__fixunssfsi>
    1760:	dc 01       	movw	r26, r24
    1762:	cb 01       	movw	r24, r22
    1764:	89 87       	std	Y+9, r24	; 0x09
    1766:	89 85       	ldd	r24, Y+9	; 0x09
    1768:	88 8f       	std	Y+24, r24	; 0x18
    can be achieved.
*/
void
_delay_loop_1(uint8_t __count)
{
	__asm__ volatile (
    176a:	88 8d       	ldd	r24, Y+24	; 0x18
    176c:	18 2f       	mov	r17, r24
    176e:	1a 95       	dec	r17
    1770:	f1 f7       	brne	.-4      	; 0x176e <returnHome+0x1a2>
    1772:	18 8f       	std	Y+24, r17	; 0x18
	_delay_us(2);
}
    1774:	68 96       	adiw	r28, 0x18	; 24
    1776:	0f b6       	in	r0, 0x3f	; 63
    1778:	f8 94       	cli
    177a:	de bf       	out	0x3e, r29	; 62
    177c:	0f be       	out	0x3f, r0	; 63
    177e:	cd bf       	out	0x3d, r28	; 61
    1780:	df 91       	pop	r29
    1782:	cf 91       	pop	r28
    1784:	1f 91       	pop	r17
    1786:	0f 91       	pop	r16
    1788:	08 95       	ret

0000178a <dispShiftRight>:

// * Shift Reg
void dispShiftRight()
{
    178a:	0f 93       	push	r16
    178c:	1f 93       	push	r17
    178e:	cf 93       	push	r28
    1790:	df 93       	push	r29
    1792:	cd b7       	in	r28, 0x3d	; 61
    1794:	de b7       	in	r29, 0x3e	; 62
    1796:	2e 97       	sbiw	r28, 0x0e	; 14
    1798:	0f b6       	in	r0, 0x3f	; 63
    179a:	f8 94       	cli
    179c:	de bf       	out	0x3e, r29	; 62
    179e:	0f be       	out	0x3f, r0	; 63
    17a0:	cd bf       	out	0x3d, r28	; 61
	writeCTRL((1<<LCD_MOVE) | (1<<LCD_MOVE_DISP) | (1<<LCD_MOVE_RIGHT));
    17a2:	8c e1       	ldi	r24, 0x1C	; 28
    17a4:	0e 94 2a 02 	call	0x454	; 0x454 <writeCTRL>
    17a8:	80 e0       	ldi	r24, 0x00	; 0
    17aa:	90 e0       	ldi	r25, 0x00	; 0
    17ac:	a0 e0       	ldi	r26, 0x00	; 0
    17ae:	b0 e4       	ldi	r27, 0x40	; 64
    17b0:	89 83       	std	Y+1, r24	; 0x01
    17b2:	9a 83       	std	Y+2, r25	; 0x02
    17b4:	ab 83       	std	Y+3, r26	; 0x03
    17b6:	bc 83       	std	Y+4, r27	; 0x04
	#endif

	__builtin_avr_delay_cycles(__ticks_dc);

#else
	__tmp = ((F_CPU) / 4e3) * __ms;
    17b8:	20 e0       	ldi	r18, 0x00	; 0
    17ba:	30 e0       	ldi	r19, 0x00	; 0
    17bc:	4a e7       	ldi	r20, 0x7A	; 122
    17be:	55 e4       	ldi	r21, 0x45	; 69
    17c0:	69 81       	ldd	r22, Y+1	; 0x01
    17c2:	7a 81       	ldd	r23, Y+2	; 0x02
    17c4:	8b 81       	ldd	r24, Y+3	; 0x03
    17c6:	9c 81       	ldd	r25, Y+4	; 0x04
    17c8:	0e 94 2d 36 	call	0x6c5a	; 0x6c5a <__mulsf3>
    17cc:	dc 01       	movw	r26, r24
    17ce:	cb 01       	movw	r24, r22
    17d0:	8d 83       	std	Y+5, r24	; 0x05
    17d2:	9e 83       	std	Y+6, r25	; 0x06
    17d4:	af 83       	std	Y+7, r26	; 0x07
    17d6:	b8 87       	std	Y+8, r27	; 0x08
	if (__tmp < 1.0)
    17d8:	20 e0       	ldi	r18, 0x00	; 0
    17da:	30 e0       	ldi	r19, 0x00	; 0
    17dc:	40 e8       	ldi	r20, 0x80	; 128
    17de:	5f e3       	ldi	r21, 0x3F	; 63
    17e0:	6d 81       	ldd	r22, Y+5	; 0x05
    17e2:	7e 81       	ldd	r23, Y+6	; 0x06
    17e4:	8f 81       	ldd	r24, Y+7	; 0x07
    17e6:	98 85       	ldd	r25, Y+8	; 0x08
    17e8:	0e 94 13 38 	call	0x7026	; 0x7026 <__ltsf2>
    17ec:	88 23       	and	r24, r24
    17ee:	2c f4       	brge	.+10     	; 0x17fa <dispShiftRight+0x70>
		__ticks = 1;
    17f0:	81 e0       	ldi	r24, 0x01	; 1
    17f2:	90 e0       	ldi	r25, 0x00	; 0
    17f4:	9a 87       	std	Y+10, r25	; 0x0a
    17f6:	89 87       	std	Y+9, r24	; 0x09
    17f8:	42 c0       	rjmp	.+132    	; 0x187e <dispShiftRight+0xf4>
	else if (__tmp > 65535)
    17fa:	20 e0       	ldi	r18, 0x00	; 0
    17fc:	3f ef       	ldi	r19, 0xFF	; 255
    17fe:	4f e7       	ldi	r20, 0x7F	; 127
    1800:	57 e4       	ldi	r21, 0x47	; 71
    1802:	6d 81       	ldd	r22, Y+5	; 0x05
    1804:	7e 81       	ldd	r23, Y+6	; 0x06
    1806:	8f 81       	ldd	r24, Y+7	; 0x07
    1808:	98 85       	ldd	r25, Y+8	; 0x08
    180a:	0e 94 b5 37 	call	0x6f6a	; 0x6f6a <__gtsf2>
    180e:	18 16       	cp	r1, r24
    1810:	64 f5       	brge	.+88     	; 0x186a <dispShiftRight+0xe0>
	{
		//	__ticks = requested delay in 1/10 ms
		__ticks = (uint16_t) (__ms * 10.0);
    1812:	20 e0       	ldi	r18, 0x00	; 0
    1814:	30 e0       	ldi	r19, 0x00	; 0
    1816:	40 e2       	ldi	r20, 0x20	; 32
    1818:	51 e4       	ldi	r21, 0x41	; 65
    181a:	69 81       	ldd	r22, Y+1	; 0x01
    181c:	7a 81       	ldd	r23, Y+2	; 0x02
    181e:	8b 81       	ldd	r24, Y+3	; 0x03
    1820:	9c 81       	ldd	r25, Y+4	; 0x04
    1822:	0e 94 2d 36 	call	0x6c5a	; 0x6c5a <__mulsf3>
    1826:	dc 01       	movw	r26, r24
    1828:	cb 01       	movw	r24, r22
    182a:	bc 01       	movw	r22, r24
    182c:	cd 01       	movw	r24, r26
    182e:	0e 94 48 34 	call	0x6890	; 0x6890 <__fixunssfsi>
    1832:	dc 01       	movw	r26, r24
    1834:	cb 01       	movw	r24, r22
    1836:	9a 87       	std	Y+10, r25	; 0x0a
    1838:	89 87       	std	Y+9, r24	; 0x09
    183a:	12 c0       	rjmp	.+36     	; 0x1860 <dispShiftRight+0xd6>
    183c:	80 e9       	ldi	r24, 0x90	; 144
    183e:	91 e0       	ldi	r25, 0x01	; 1
    1840:	9c 87       	std	Y+12, r25	; 0x0c
    1842:	8b 87       	std	Y+11, r24	; 0x0b
    milliseconds can be achieved.
 */
void
_delay_loop_2(uint16_t __count)
{
	__asm__ volatile (
    1844:	8b 85       	ldd	r24, Y+11	; 0x0b
    1846:	9c 85       	ldd	r25, Y+12	; 0x0c
    1848:	8c 01       	movw	r16, r24
    184a:	c8 01       	movw	r24, r16
    184c:	01 97       	sbiw	r24, 0x01	; 1
    184e:	f1 f7       	brne	.-4      	; 0x184c <dispShiftRight+0xc2>
    1850:	8c 01       	movw	r16, r24
    1852:	1c 87       	std	Y+12, r17	; 0x0c
    1854:	0b 87       	std	Y+11, r16	; 0x0b
		while(__ticks)
		{
			// wait 1/10 ms
			_delay_loop_2(((F_CPU) / 4e3) / 10);
			__ticks --;
    1856:	89 85       	ldd	r24, Y+9	; 0x09
    1858:	9a 85       	ldd	r25, Y+10	; 0x0a
    185a:	01 97       	sbiw	r24, 0x01	; 1
    185c:	9a 87       	std	Y+10, r25	; 0x0a
    185e:	89 87       	std	Y+9, r24	; 0x09
		__ticks = 1;
	else if (__tmp > 65535)
	{
		//	__ticks = requested delay in 1/10 ms
		__ticks = (uint16_t) (__ms * 10.0);
		while(__ticks)
    1860:	89 85       	ldd	r24, Y+9	; 0x09
    1862:	9a 85       	ldd	r25, Y+10	; 0x0a
    1864:	00 97       	sbiw	r24, 0x00	; 0
    1866:	51 f7       	brne	.-44     	; 0x183c <dispShiftRight+0xb2>
    1868:	17 c0       	rjmp	.+46     	; 0x1898 <dispShiftRight+0x10e>
			__ticks --;
		}
		return;
	}
	else
		__ticks = (uint16_t)__tmp;
    186a:	6d 81       	ldd	r22, Y+5	; 0x05
    186c:	7e 81       	ldd	r23, Y+6	; 0x06
    186e:	8f 81       	ldd	r24, Y+7	; 0x07
    1870:	98 85       	ldd	r25, Y+8	; 0x08
    1872:	0e 94 48 34 	call	0x6890	; 0x6890 <__fixunssfsi>
    1876:	dc 01       	movw	r26, r24
    1878:	cb 01       	movw	r24, r22
    187a:	9a 87       	std	Y+10, r25	; 0x0a
    187c:	89 87       	std	Y+9, r24	; 0x09
    187e:	89 85       	ldd	r24, Y+9	; 0x09
    1880:	9a 85       	ldd	r25, Y+10	; 0x0a
    1882:	9e 87       	std	Y+14, r25	; 0x0e
    1884:	8d 87       	std	Y+13, r24	; 0x0d
    1886:	8d 85       	ldd	r24, Y+13	; 0x0d
    1888:	9e 85       	ldd	r25, Y+14	; 0x0e
    188a:	8c 01       	movw	r16, r24
    188c:	c8 01       	movw	r24, r16
    188e:	01 97       	sbiw	r24, 0x01	; 1
    1890:	f1 f7       	brne	.-4      	; 0x188e <dispShiftRight+0x104>
    1892:	8c 01       	movw	r16, r24
    1894:	1e 87       	std	Y+14, r17	; 0x0e
    1896:	0d 87       	std	Y+13, r16	; 0x0d
	_delay_ms(2);
}
    1898:	2e 96       	adiw	r28, 0x0e	; 14
    189a:	0f b6       	in	r0, 0x3f	; 63
    189c:	f8 94       	cli
    189e:	de bf       	out	0x3e, r29	; 62
    18a0:	0f be       	out	0x3f, r0	; 63
    18a2:	cd bf       	out	0x3d, r28	; 61
    18a4:	df 91       	pop	r29
    18a6:	cf 91       	pop	r28
    18a8:	1f 91       	pop	r17
    18aa:	0f 91       	pop	r16
    18ac:	08 95       	ret

000018ae <dispShiftLeft>:

void dispShiftLeft()
{
    18ae:	0f 93       	push	r16
    18b0:	1f 93       	push	r17
    18b2:	cf 93       	push	r28
    18b4:	df 93       	push	r29
    18b6:	cd b7       	in	r28, 0x3d	; 61
    18b8:	de b7       	in	r29, 0x3e	; 62
    18ba:	2e 97       	sbiw	r28, 0x0e	; 14
    18bc:	0f b6       	in	r0, 0x3f	; 63
    18be:	f8 94       	cli
    18c0:	de bf       	out	0x3e, r29	; 62
    18c2:	0f be       	out	0x3f, r0	; 63
    18c4:	cd bf       	out	0x3d, r28	; 61
	writeCTRL((1<<LCD_MOVE) | (1<<LCD_MOVE_DISP) | (0<<LCD_MOVE_RIGHT));
    18c6:	88 e1       	ldi	r24, 0x18	; 24
    18c8:	0e 94 2a 02 	call	0x454	; 0x454 <writeCTRL>
    18cc:	80 e0       	ldi	r24, 0x00	; 0
    18ce:	90 e0       	ldi	r25, 0x00	; 0
    18d0:	a0 e0       	ldi	r26, 0x00	; 0
    18d2:	b0 e4       	ldi	r27, 0x40	; 64
    18d4:	89 83       	std	Y+1, r24	; 0x01
    18d6:	9a 83       	std	Y+2, r25	; 0x02
    18d8:	ab 83       	std	Y+3, r26	; 0x03
    18da:	bc 83       	std	Y+4, r27	; 0x04
	#endif

	__builtin_avr_delay_cycles(__ticks_dc);

#else
	__tmp = ((F_CPU) / 4e3) * __ms;
    18dc:	20 e0       	ldi	r18, 0x00	; 0
    18de:	30 e0       	ldi	r19, 0x00	; 0
    18e0:	4a e7       	ldi	r20, 0x7A	; 122
    18e2:	55 e4       	ldi	r21, 0x45	; 69
    18e4:	69 81       	ldd	r22, Y+1	; 0x01
    18e6:	7a 81       	ldd	r23, Y+2	; 0x02
    18e8:	8b 81       	ldd	r24, Y+3	; 0x03
    18ea:	9c 81       	ldd	r25, Y+4	; 0x04
    18ec:	0e 94 2d 36 	call	0x6c5a	; 0x6c5a <__mulsf3>
    18f0:	dc 01       	movw	r26, r24
    18f2:	cb 01       	movw	r24, r22
    18f4:	8d 83       	std	Y+5, r24	; 0x05
    18f6:	9e 83       	std	Y+6, r25	; 0x06
    18f8:	af 83       	std	Y+7, r26	; 0x07
    18fa:	b8 87       	std	Y+8, r27	; 0x08
	if (__tmp < 1.0)
    18fc:	20 e0       	ldi	r18, 0x00	; 0
    18fe:	30 e0       	ldi	r19, 0x00	; 0
    1900:	40 e8       	ldi	r20, 0x80	; 128
    1902:	5f e3       	ldi	r21, 0x3F	; 63
    1904:	6d 81       	ldd	r22, Y+5	; 0x05
    1906:	7e 81       	ldd	r23, Y+6	; 0x06
    1908:	8f 81       	ldd	r24, Y+7	; 0x07
    190a:	98 85       	ldd	r25, Y+8	; 0x08
    190c:	0e 94 13 38 	call	0x7026	; 0x7026 <__ltsf2>
    1910:	88 23       	and	r24, r24
    1912:	2c f4       	brge	.+10     	; 0x191e <dispShiftLeft+0x70>
		__ticks = 1;
    1914:	81 e0       	ldi	r24, 0x01	; 1
    1916:	90 e0       	ldi	r25, 0x00	; 0
    1918:	9a 87       	std	Y+10, r25	; 0x0a
    191a:	89 87       	std	Y+9, r24	; 0x09
    191c:	42 c0       	rjmp	.+132    	; 0x19a2 <dispShiftLeft+0xf4>
	else if (__tmp > 65535)
    191e:	20 e0       	ldi	r18, 0x00	; 0
    1920:	3f ef       	ldi	r19, 0xFF	; 255
    1922:	4f e7       	ldi	r20, 0x7F	; 127
    1924:	57 e4       	ldi	r21, 0x47	; 71
    1926:	6d 81       	ldd	r22, Y+5	; 0x05
    1928:	7e 81       	ldd	r23, Y+6	; 0x06
    192a:	8f 81       	ldd	r24, Y+7	; 0x07
    192c:	98 85       	ldd	r25, Y+8	; 0x08
    192e:	0e 94 b5 37 	call	0x6f6a	; 0x6f6a <__gtsf2>
    1932:	18 16       	cp	r1, r24
    1934:	64 f5       	brge	.+88     	; 0x198e <dispShiftLeft+0xe0>
	{
		//	__ticks = requested delay in 1/10 ms
		__ticks = (uint16_t) (__ms * 10.0);
    1936:	20 e0       	ldi	r18, 0x00	; 0
    1938:	30 e0       	ldi	r19, 0x00	; 0
    193a:	40 e2       	ldi	r20, 0x20	; 32
    193c:	51 e4       	ldi	r21, 0x41	; 65
    193e:	69 81       	ldd	r22, Y+1	; 0x01
    1940:	7a 81       	ldd	r23, Y+2	; 0x02
    1942:	8b 81       	ldd	r24, Y+3	; 0x03
    1944:	9c 81       	ldd	r25, Y+4	; 0x04
    1946:	0e 94 2d 36 	call	0x6c5a	; 0x6c5a <__mulsf3>
    194a:	dc 01       	movw	r26, r24
    194c:	cb 01       	movw	r24, r22
    194e:	bc 01       	movw	r22, r24
    1950:	cd 01       	movw	r24, r26
    1952:	0e 94 48 34 	call	0x6890	; 0x6890 <__fixunssfsi>
    1956:	dc 01       	movw	r26, r24
    1958:	cb 01       	movw	r24, r22
    195a:	9a 87       	std	Y+10, r25	; 0x0a
    195c:	89 87       	std	Y+9, r24	; 0x09
    195e:	12 c0       	rjmp	.+36     	; 0x1984 <dispShiftLeft+0xd6>
    1960:	80 e9       	ldi	r24, 0x90	; 144
    1962:	91 e0       	ldi	r25, 0x01	; 1
    1964:	9c 87       	std	Y+12, r25	; 0x0c
    1966:	8b 87       	std	Y+11, r24	; 0x0b
    1968:	8b 85       	ldd	r24, Y+11	; 0x0b
    196a:	9c 85       	ldd	r25, Y+12	; 0x0c
    196c:	8c 01       	movw	r16, r24
    196e:	c8 01       	movw	r24, r16
    1970:	01 97       	sbiw	r24, 0x01	; 1
    1972:	f1 f7       	brne	.-4      	; 0x1970 <dispShiftLeft+0xc2>
    1974:	8c 01       	movw	r16, r24
    1976:	1c 87       	std	Y+12, r17	; 0x0c
    1978:	0b 87       	std	Y+11, r16	; 0x0b
		while(__ticks)
		{
			// wait 1/10 ms
			_delay_loop_2(((F_CPU) / 4e3) / 10);
			__ticks --;
    197a:	89 85       	ldd	r24, Y+9	; 0x09
    197c:	9a 85       	ldd	r25, Y+10	; 0x0a
    197e:	01 97       	sbiw	r24, 0x01	; 1
    1980:	9a 87       	std	Y+10, r25	; 0x0a
    1982:	89 87       	std	Y+9, r24	; 0x09
		__ticks = 1;
	else if (__tmp > 65535)
	{
		//	__ticks = requested delay in 1/10 ms
		__ticks = (uint16_t) (__ms * 10.0);
		while(__ticks)
    1984:	89 85       	ldd	r24, Y+9	; 0x09
    1986:	9a 85       	ldd	r25, Y+10	; 0x0a
    1988:	00 97       	sbiw	r24, 0x00	; 0
    198a:	51 f7       	brne	.-44     	; 0x1960 <dispShiftLeft+0xb2>
    198c:	17 c0       	rjmp	.+46     	; 0x19bc <dispShiftLeft+0x10e>
			__ticks --;
		}
		return;
	}
	else
		__ticks = (uint16_t)__tmp;
    198e:	6d 81       	ldd	r22, Y+5	; 0x05
    1990:	7e 81       	ldd	r23, Y+6	; 0x06
    1992:	8f 81       	ldd	r24, Y+7	; 0x07
    1994:	98 85       	ldd	r25, Y+8	; 0x08
    1996:	0e 94 48 34 	call	0x6890	; 0x6890 <__fixunssfsi>
    199a:	dc 01       	movw	r26, r24
    199c:	cb 01       	movw	r24, r22
    199e:	9a 87       	std	Y+10, r25	; 0x0a
    19a0:	89 87       	std	Y+9, r24	; 0x09
    19a2:	89 85       	ldd	r24, Y+9	; 0x09
    19a4:	9a 85       	ldd	r25, Y+10	; 0x0a
    19a6:	9e 87       	std	Y+14, r25	; 0x0e
    19a8:	8d 87       	std	Y+13, r24	; 0x0d
    19aa:	8d 85       	ldd	r24, Y+13	; 0x0d
    19ac:	9e 85       	ldd	r25, Y+14	; 0x0e
    19ae:	8c 01       	movw	r16, r24
    19b0:	c8 01       	movw	r24, r16
    19b2:	01 97       	sbiw	r24, 0x01	; 1
    19b4:	f1 f7       	brne	.-4      	; 0x19b2 <dispShiftLeft+0x104>
    19b6:	8c 01       	movw	r16, r24
    19b8:	1e 87       	std	Y+14, r17	; 0x0e
    19ba:	0d 87       	std	Y+13, r16	; 0x0d
	_delay_ms(2);
}
    19bc:	2e 96       	adiw	r28, 0x0e	; 14
    19be:	0f b6       	in	r0, 0x3f	; 63
    19c0:	f8 94       	cli
    19c2:	de bf       	out	0x3e, r29	; 62
    19c4:	0f be       	out	0x3f, r0	; 63
    19c6:	cd bf       	out	0x3d, r28	; 61
    19c8:	df 91       	pop	r29
    19ca:	cf 91       	pop	r28
    19cc:	1f 91       	pop	r17
    19ce:	0f 91       	pop	r16
    19d0:	08 95       	ret

000019d2 <cursorShiftRight>:

void cursorShiftRight()  //커서를 오른쪽으로 1번이동
{
    19d2:	0f 93       	push	r16
    19d4:	1f 93       	push	r17
    19d6:	cf 93       	push	r28
    19d8:	df 93       	push	r29
    19da:	cd b7       	in	r28, 0x3d	; 61
    19dc:	de b7       	in	r29, 0x3e	; 62
    19de:	2e 97       	sbiw	r28, 0x0e	; 14
    19e0:	0f b6       	in	r0, 0x3f	; 63
    19e2:	f8 94       	cli
    19e4:	de bf       	out	0x3e, r29	; 62
    19e6:	0f be       	out	0x3f, r0	; 63
    19e8:	cd bf       	out	0x3d, r28	; 61
	writeCTRL((1<<LCD_MOVE) | (0<<LCD_MOVE_DISP) | (1<<LCD_MOVE_RIGHT));
    19ea:	84 e1       	ldi	r24, 0x14	; 20
    19ec:	0e 94 2a 02 	call	0x454	; 0x454 <writeCTRL>
    19f0:	80 e0       	ldi	r24, 0x00	; 0
    19f2:	90 e0       	ldi	r25, 0x00	; 0
    19f4:	a0 e0       	ldi	r26, 0x00	; 0
    19f6:	b0 e4       	ldi	r27, 0x40	; 64
    19f8:	89 83       	std	Y+1, r24	; 0x01
    19fa:	9a 83       	std	Y+2, r25	; 0x02
    19fc:	ab 83       	std	Y+3, r26	; 0x03
    19fe:	bc 83       	std	Y+4, r27	; 0x04
	#endif

	__builtin_avr_delay_cycles(__ticks_dc);

#else
	__tmp = ((F_CPU) / 4e3) * __ms;
    1a00:	20 e0       	ldi	r18, 0x00	; 0
    1a02:	30 e0       	ldi	r19, 0x00	; 0
    1a04:	4a e7       	ldi	r20, 0x7A	; 122
    1a06:	55 e4       	ldi	r21, 0x45	; 69
    1a08:	69 81       	ldd	r22, Y+1	; 0x01
    1a0a:	7a 81       	ldd	r23, Y+2	; 0x02
    1a0c:	8b 81       	ldd	r24, Y+3	; 0x03
    1a0e:	9c 81       	ldd	r25, Y+4	; 0x04
    1a10:	0e 94 2d 36 	call	0x6c5a	; 0x6c5a <__mulsf3>
    1a14:	dc 01       	movw	r26, r24
    1a16:	cb 01       	movw	r24, r22
    1a18:	8d 83       	std	Y+5, r24	; 0x05
    1a1a:	9e 83       	std	Y+6, r25	; 0x06
    1a1c:	af 83       	std	Y+7, r26	; 0x07
    1a1e:	b8 87       	std	Y+8, r27	; 0x08
	if (__tmp < 1.0)
    1a20:	20 e0       	ldi	r18, 0x00	; 0
    1a22:	30 e0       	ldi	r19, 0x00	; 0
    1a24:	40 e8       	ldi	r20, 0x80	; 128
    1a26:	5f e3       	ldi	r21, 0x3F	; 63
    1a28:	6d 81       	ldd	r22, Y+5	; 0x05
    1a2a:	7e 81       	ldd	r23, Y+6	; 0x06
    1a2c:	8f 81       	ldd	r24, Y+7	; 0x07
    1a2e:	98 85       	ldd	r25, Y+8	; 0x08
    1a30:	0e 94 13 38 	call	0x7026	; 0x7026 <__ltsf2>
    1a34:	88 23       	and	r24, r24
    1a36:	2c f4       	brge	.+10     	; 0x1a42 <cursorShiftRight+0x70>
		__ticks = 1;
    1a38:	81 e0       	ldi	r24, 0x01	; 1
    1a3a:	90 e0       	ldi	r25, 0x00	; 0
    1a3c:	9a 87       	std	Y+10, r25	; 0x0a
    1a3e:	89 87       	std	Y+9, r24	; 0x09
    1a40:	42 c0       	rjmp	.+132    	; 0x1ac6 <cursorShiftRight+0xf4>
	else if (__tmp > 65535)
    1a42:	20 e0       	ldi	r18, 0x00	; 0
    1a44:	3f ef       	ldi	r19, 0xFF	; 255
    1a46:	4f e7       	ldi	r20, 0x7F	; 127
    1a48:	57 e4       	ldi	r21, 0x47	; 71
    1a4a:	6d 81       	ldd	r22, Y+5	; 0x05
    1a4c:	7e 81       	ldd	r23, Y+6	; 0x06
    1a4e:	8f 81       	ldd	r24, Y+7	; 0x07
    1a50:	98 85       	ldd	r25, Y+8	; 0x08
    1a52:	0e 94 b5 37 	call	0x6f6a	; 0x6f6a <__gtsf2>
    1a56:	18 16       	cp	r1, r24
    1a58:	64 f5       	brge	.+88     	; 0x1ab2 <cursorShiftRight+0xe0>
	{
		//	__ticks = requested delay in 1/10 ms
		__ticks = (uint16_t) (__ms * 10.0);
    1a5a:	20 e0       	ldi	r18, 0x00	; 0
    1a5c:	30 e0       	ldi	r19, 0x00	; 0
    1a5e:	40 e2       	ldi	r20, 0x20	; 32
    1a60:	51 e4       	ldi	r21, 0x41	; 65
    1a62:	69 81       	ldd	r22, Y+1	; 0x01
    1a64:	7a 81       	ldd	r23, Y+2	; 0x02
    1a66:	8b 81       	ldd	r24, Y+3	; 0x03
    1a68:	9c 81       	ldd	r25, Y+4	; 0x04
    1a6a:	0e 94 2d 36 	call	0x6c5a	; 0x6c5a <__mulsf3>
    1a6e:	dc 01       	movw	r26, r24
    1a70:	cb 01       	movw	r24, r22
    1a72:	bc 01       	movw	r22, r24
    1a74:	cd 01       	movw	r24, r26
    1a76:	0e 94 48 34 	call	0x6890	; 0x6890 <__fixunssfsi>
    1a7a:	dc 01       	movw	r26, r24
    1a7c:	cb 01       	movw	r24, r22
    1a7e:	9a 87       	std	Y+10, r25	; 0x0a
    1a80:	89 87       	std	Y+9, r24	; 0x09
    1a82:	12 c0       	rjmp	.+36     	; 0x1aa8 <cursorShiftRight+0xd6>
    1a84:	80 e9       	ldi	r24, 0x90	; 144
    1a86:	91 e0       	ldi	r25, 0x01	; 1
    1a88:	9c 87       	std	Y+12, r25	; 0x0c
    1a8a:	8b 87       	std	Y+11, r24	; 0x0b
    1a8c:	8b 85       	ldd	r24, Y+11	; 0x0b
    1a8e:	9c 85       	ldd	r25, Y+12	; 0x0c
    1a90:	8c 01       	movw	r16, r24
    1a92:	c8 01       	movw	r24, r16
    1a94:	01 97       	sbiw	r24, 0x01	; 1
    1a96:	f1 f7       	brne	.-4      	; 0x1a94 <cursorShiftRight+0xc2>
    1a98:	8c 01       	movw	r16, r24
    1a9a:	1c 87       	std	Y+12, r17	; 0x0c
    1a9c:	0b 87       	std	Y+11, r16	; 0x0b
		while(__ticks)
		{
			// wait 1/10 ms
			_delay_loop_2(((F_CPU) / 4e3) / 10);
			__ticks --;
    1a9e:	89 85       	ldd	r24, Y+9	; 0x09
    1aa0:	9a 85       	ldd	r25, Y+10	; 0x0a
    1aa2:	01 97       	sbiw	r24, 0x01	; 1
    1aa4:	9a 87       	std	Y+10, r25	; 0x0a
    1aa6:	89 87       	std	Y+9, r24	; 0x09
		__ticks = 1;
	else if (__tmp > 65535)
	{
		//	__ticks = requested delay in 1/10 ms
		__ticks = (uint16_t) (__ms * 10.0);
		while(__ticks)
    1aa8:	89 85       	ldd	r24, Y+9	; 0x09
    1aaa:	9a 85       	ldd	r25, Y+10	; 0x0a
    1aac:	00 97       	sbiw	r24, 0x00	; 0
    1aae:	51 f7       	brne	.-44     	; 0x1a84 <cursorShiftRight+0xb2>
    1ab0:	17 c0       	rjmp	.+46     	; 0x1ae0 <cursorShiftRight+0x10e>
			__ticks --;
		}
		return;
	}
	else
		__ticks = (uint16_t)__tmp;
    1ab2:	6d 81       	ldd	r22, Y+5	; 0x05
    1ab4:	7e 81       	ldd	r23, Y+6	; 0x06
    1ab6:	8f 81       	ldd	r24, Y+7	; 0x07
    1ab8:	98 85       	ldd	r25, Y+8	; 0x08
    1aba:	0e 94 48 34 	call	0x6890	; 0x6890 <__fixunssfsi>
    1abe:	dc 01       	movw	r26, r24
    1ac0:	cb 01       	movw	r24, r22
    1ac2:	9a 87       	std	Y+10, r25	; 0x0a
    1ac4:	89 87       	std	Y+9, r24	; 0x09
    1ac6:	89 85       	ldd	r24, Y+9	; 0x09
    1ac8:	9a 85       	ldd	r25, Y+10	; 0x0a
    1aca:	9e 87       	std	Y+14, r25	; 0x0e
    1acc:	8d 87       	std	Y+13, r24	; 0x0d
    1ace:	8d 85       	ldd	r24, Y+13	; 0x0d
    1ad0:	9e 85       	ldd	r25, Y+14	; 0x0e
    1ad2:	8c 01       	movw	r16, r24
    1ad4:	c8 01       	movw	r24, r16
    1ad6:	01 97       	sbiw	r24, 0x01	; 1
    1ad8:	f1 f7       	brne	.-4      	; 0x1ad6 <cursorShiftRight+0x104>
    1ada:	8c 01       	movw	r16, r24
    1adc:	1e 87       	std	Y+14, r17	; 0x0e
    1ade:	0d 87       	std	Y+13, r16	; 0x0d
	_delay_ms(2);
}
    1ae0:	2e 96       	adiw	r28, 0x0e	; 14
    1ae2:	0f b6       	in	r0, 0x3f	; 63
    1ae4:	f8 94       	cli
    1ae6:	de bf       	out	0x3e, r29	; 62
    1ae8:	0f be       	out	0x3f, r0	; 63
    1aea:	cd bf       	out	0x3d, r28	; 61
    1aec:	df 91       	pop	r29
    1aee:	cf 91       	pop	r28
    1af0:	1f 91       	pop	r17
    1af2:	0f 91       	pop	r16
    1af4:	08 95       	ret

00001af6 <cursorShiftLeft>:

void cursorShiftLeft()  //커서를 왼쪽으로 1번이동 
{
    1af6:	0f 93       	push	r16
    1af8:	1f 93       	push	r17
    1afa:	cf 93       	push	r28
    1afc:	df 93       	push	r29
    1afe:	cd b7       	in	r28, 0x3d	; 61
    1b00:	de b7       	in	r29, 0x3e	; 62
    1b02:	2e 97       	sbiw	r28, 0x0e	; 14
    1b04:	0f b6       	in	r0, 0x3f	; 63
    1b06:	f8 94       	cli
    1b08:	de bf       	out	0x3e, r29	; 62
    1b0a:	0f be       	out	0x3f, r0	; 63
    1b0c:	cd bf       	out	0x3d, r28	; 61
	writeCTRL((1<<LCD_MOVE) | (0<<LCD_MOVE_DISP) | (0<<LCD_MOVE_RIGHT)); //움직여라 디스플레이가 아닌 커서를 왼쪽이 아닌 오른쪽으로 
    1b0e:	80 e1       	ldi	r24, 0x10	; 16
    1b10:	0e 94 2a 02 	call	0x454	; 0x454 <writeCTRL>
    1b14:	80 e0       	ldi	r24, 0x00	; 0
    1b16:	90 e0       	ldi	r25, 0x00	; 0
    1b18:	a0 e0       	ldi	r26, 0x00	; 0
    1b1a:	b0 e4       	ldi	r27, 0x40	; 64
    1b1c:	89 83       	std	Y+1, r24	; 0x01
    1b1e:	9a 83       	std	Y+2, r25	; 0x02
    1b20:	ab 83       	std	Y+3, r26	; 0x03
    1b22:	bc 83       	std	Y+4, r27	; 0x04
	#endif

	__builtin_avr_delay_cycles(__ticks_dc);

#else
	__tmp = ((F_CPU) / 4e3) * __ms;
    1b24:	20 e0       	ldi	r18, 0x00	; 0
    1b26:	30 e0       	ldi	r19, 0x00	; 0
    1b28:	4a e7       	ldi	r20, 0x7A	; 122
    1b2a:	55 e4       	ldi	r21, 0x45	; 69
    1b2c:	69 81       	ldd	r22, Y+1	; 0x01
    1b2e:	7a 81       	ldd	r23, Y+2	; 0x02
    1b30:	8b 81       	ldd	r24, Y+3	; 0x03
    1b32:	9c 81       	ldd	r25, Y+4	; 0x04
    1b34:	0e 94 2d 36 	call	0x6c5a	; 0x6c5a <__mulsf3>
    1b38:	dc 01       	movw	r26, r24
    1b3a:	cb 01       	movw	r24, r22
    1b3c:	8d 83       	std	Y+5, r24	; 0x05
    1b3e:	9e 83       	std	Y+6, r25	; 0x06
    1b40:	af 83       	std	Y+7, r26	; 0x07
    1b42:	b8 87       	std	Y+8, r27	; 0x08
	if (__tmp < 1.0)
    1b44:	20 e0       	ldi	r18, 0x00	; 0
    1b46:	30 e0       	ldi	r19, 0x00	; 0
    1b48:	40 e8       	ldi	r20, 0x80	; 128
    1b4a:	5f e3       	ldi	r21, 0x3F	; 63
    1b4c:	6d 81       	ldd	r22, Y+5	; 0x05
    1b4e:	7e 81       	ldd	r23, Y+6	; 0x06
    1b50:	8f 81       	ldd	r24, Y+7	; 0x07
    1b52:	98 85       	ldd	r25, Y+8	; 0x08
    1b54:	0e 94 13 38 	call	0x7026	; 0x7026 <__ltsf2>
    1b58:	88 23       	and	r24, r24
    1b5a:	2c f4       	brge	.+10     	; 0x1b66 <cursorShiftLeft+0x70>
		__ticks = 1;
    1b5c:	81 e0       	ldi	r24, 0x01	; 1
    1b5e:	90 e0       	ldi	r25, 0x00	; 0
    1b60:	9a 87       	std	Y+10, r25	; 0x0a
    1b62:	89 87       	std	Y+9, r24	; 0x09
    1b64:	42 c0       	rjmp	.+132    	; 0x1bea <cursorShiftLeft+0xf4>
	else if (__tmp > 65535)
    1b66:	20 e0       	ldi	r18, 0x00	; 0
    1b68:	3f ef       	ldi	r19, 0xFF	; 255
    1b6a:	4f e7       	ldi	r20, 0x7F	; 127
    1b6c:	57 e4       	ldi	r21, 0x47	; 71
    1b6e:	6d 81       	ldd	r22, Y+5	; 0x05
    1b70:	7e 81       	ldd	r23, Y+6	; 0x06
    1b72:	8f 81       	ldd	r24, Y+7	; 0x07
    1b74:	98 85       	ldd	r25, Y+8	; 0x08
    1b76:	0e 94 b5 37 	call	0x6f6a	; 0x6f6a <__gtsf2>
    1b7a:	18 16       	cp	r1, r24
    1b7c:	64 f5       	brge	.+88     	; 0x1bd6 <cursorShiftLeft+0xe0>
	{
		//	__ticks = requested delay in 1/10 ms
		__ticks = (uint16_t) (__ms * 10.0);
    1b7e:	20 e0       	ldi	r18, 0x00	; 0
    1b80:	30 e0       	ldi	r19, 0x00	; 0
    1b82:	40 e2       	ldi	r20, 0x20	; 32
    1b84:	51 e4       	ldi	r21, 0x41	; 65
    1b86:	69 81       	ldd	r22, Y+1	; 0x01
    1b88:	7a 81       	ldd	r23, Y+2	; 0x02
    1b8a:	8b 81       	ldd	r24, Y+3	; 0x03
    1b8c:	9c 81       	ldd	r25, Y+4	; 0x04
    1b8e:	0e 94 2d 36 	call	0x6c5a	; 0x6c5a <__mulsf3>
    1b92:	dc 01       	movw	r26, r24
    1b94:	cb 01       	movw	r24, r22
    1b96:	bc 01       	movw	r22, r24
    1b98:	cd 01       	movw	r24, r26
    1b9a:	0e 94 48 34 	call	0x6890	; 0x6890 <__fixunssfsi>
    1b9e:	dc 01       	movw	r26, r24
    1ba0:	cb 01       	movw	r24, r22
    1ba2:	9a 87       	std	Y+10, r25	; 0x0a
    1ba4:	89 87       	std	Y+9, r24	; 0x09
    1ba6:	12 c0       	rjmp	.+36     	; 0x1bcc <cursorShiftLeft+0xd6>
    1ba8:	80 e9       	ldi	r24, 0x90	; 144
    1baa:	91 e0       	ldi	r25, 0x01	; 1
    1bac:	9c 87       	std	Y+12, r25	; 0x0c
    1bae:	8b 87       	std	Y+11, r24	; 0x0b
    1bb0:	8b 85       	ldd	r24, Y+11	; 0x0b
    1bb2:	9c 85       	ldd	r25, Y+12	; 0x0c
    1bb4:	8c 01       	movw	r16, r24
    1bb6:	c8 01       	movw	r24, r16
    1bb8:	01 97       	sbiw	r24, 0x01	; 1
    1bba:	f1 f7       	brne	.-4      	; 0x1bb8 <cursorShiftLeft+0xc2>
    1bbc:	8c 01       	movw	r16, r24
    1bbe:	1c 87       	std	Y+12, r17	; 0x0c
    1bc0:	0b 87       	std	Y+11, r16	; 0x0b
		while(__ticks)
		{
			// wait 1/10 ms
			_delay_loop_2(((F_CPU) / 4e3) / 10);
			__ticks --;
    1bc2:	89 85       	ldd	r24, Y+9	; 0x09
    1bc4:	9a 85       	ldd	r25, Y+10	; 0x0a
    1bc6:	01 97       	sbiw	r24, 0x01	; 1
    1bc8:	9a 87       	std	Y+10, r25	; 0x0a
    1bca:	89 87       	std	Y+9, r24	; 0x09
		__ticks = 1;
	else if (__tmp > 65535)
	{
		//	__ticks = requested delay in 1/10 ms
		__ticks = (uint16_t) (__ms * 10.0);
		while(__ticks)
    1bcc:	89 85       	ldd	r24, Y+9	; 0x09
    1bce:	9a 85       	ldd	r25, Y+10	; 0x0a
    1bd0:	00 97       	sbiw	r24, 0x00	; 0
    1bd2:	51 f7       	brne	.-44     	; 0x1ba8 <cursorShiftLeft+0xb2>
    1bd4:	17 c0       	rjmp	.+46     	; 0x1c04 <cursorShiftLeft+0x10e>
			__ticks --;
		}
		return;
	}
	else
		__ticks = (uint16_t)__tmp;
    1bd6:	6d 81       	ldd	r22, Y+5	; 0x05
    1bd8:	7e 81       	ldd	r23, Y+6	; 0x06
    1bda:	8f 81       	ldd	r24, Y+7	; 0x07
    1bdc:	98 85       	ldd	r25, Y+8	; 0x08
    1bde:	0e 94 48 34 	call	0x6890	; 0x6890 <__fixunssfsi>
    1be2:	dc 01       	movw	r26, r24
    1be4:	cb 01       	movw	r24, r22
    1be6:	9a 87       	std	Y+10, r25	; 0x0a
    1be8:	89 87       	std	Y+9, r24	; 0x09
    1bea:	89 85       	ldd	r24, Y+9	; 0x09
    1bec:	9a 85       	ldd	r25, Y+10	; 0x0a
    1bee:	9e 87       	std	Y+14, r25	; 0x0e
    1bf0:	8d 87       	std	Y+13, r24	; 0x0d
    1bf2:	8d 85       	ldd	r24, Y+13	; 0x0d
    1bf4:	9e 85       	ldd	r25, Y+14	; 0x0e
    1bf6:	8c 01       	movw	r16, r24
    1bf8:	c8 01       	movw	r24, r16
    1bfa:	01 97       	sbiw	r24, 0x01	; 1
    1bfc:	f1 f7       	brne	.-4      	; 0x1bfa <cursorShiftLeft+0x104>
    1bfe:	8c 01       	movw	r16, r24
    1c00:	1e 87       	std	Y+14, r17	; 0x0e
    1c02:	0d 87       	std	Y+13, r16	; 0x0d
	_delay_ms(2);
}
    1c04:	2e 96       	adiw	r28, 0x0e	; 14
    1c06:	0f b6       	in	r0, 0x3f	; 63
    1c08:	f8 94       	cli
    1c0a:	de bf       	out	0x3e, r29	; 62
    1c0c:	0f be       	out	0x3f, r0	; 63
    1c0e:	cd bf       	out	0x3d, r28	; 61
    1c10:	df 91       	pop	r29
    1c12:	cf 91       	pop	r28
    1c14:	1f 91       	pop	r17
    1c16:	0f 91       	pop	r16
    1c18:	08 95       	ret

00001c1a <entryShift>:

void entryShift()   
{
    1c1a:	0f 93       	push	r16
    1c1c:	1f 93       	push	r17
    1c1e:	cf 93       	push	r28
    1c20:	df 93       	push	r29
    1c22:	cd b7       	in	r28, 0x3d	; 61
    1c24:	de b7       	in	r29, 0x3e	; 62
    1c26:	68 97       	sbiw	r28, 0x18	; 24
    1c28:	0f b6       	in	r0, 0x3f	; 63
    1c2a:	f8 94       	cli
    1c2c:	de bf       	out	0x3e, r29	; 62
    1c2e:	0f be       	out	0x3f, r0	; 63
    1c30:	cd bf       	out	0x3d, r28	; 61
	writeCTRL((1<<LCD_ENTRY_MODE) | (1<<LCD_ENTRY_INC) | (1<<LCD_ENTRY_SHIFT));
    1c32:	87 e0       	ldi	r24, 0x07	; 7
    1c34:	0e 94 2a 02 	call	0x454	; 0x454 <writeCTRL>
    1c38:	80 e0       	ldi	r24, 0x00	; 0
    1c3a:	90 e0       	ldi	r25, 0x00	; 0
    1c3c:	a0 e0       	ldi	r26, 0x00	; 0
    1c3e:	b0 e4       	ldi	r27, 0x40	; 64
    1c40:	89 83       	std	Y+1, r24	; 0x01
    1c42:	9a 83       	std	Y+2, r25	; 0x02
    1c44:	ab 83       	std	Y+3, r26	; 0x03
    1c46:	bc 83       	std	Y+4, r27	; 0x04
	#endif

	__builtin_avr_delay_cycles(__ticks_dc);

#else
	__tmp = ((F_CPU) / 3e6) * __us;
    1c48:	2b ea       	ldi	r18, 0xAB	; 171
    1c4a:	3a ea       	ldi	r19, 0xAA	; 170
    1c4c:	4a ea       	ldi	r20, 0xAA	; 170
    1c4e:	50 e4       	ldi	r21, 0x40	; 64
    1c50:	69 81       	ldd	r22, Y+1	; 0x01
    1c52:	7a 81       	ldd	r23, Y+2	; 0x02
    1c54:	8b 81       	ldd	r24, Y+3	; 0x03
    1c56:	9c 81       	ldd	r25, Y+4	; 0x04
    1c58:	0e 94 2d 36 	call	0x6c5a	; 0x6c5a <__mulsf3>
    1c5c:	dc 01       	movw	r26, r24
    1c5e:	cb 01       	movw	r24, r22
    1c60:	8d 83       	std	Y+5, r24	; 0x05
    1c62:	9e 83       	std	Y+6, r25	; 0x06
    1c64:	af 83       	std	Y+7, r26	; 0x07
    1c66:	b8 87       	std	Y+8, r27	; 0x08
	if (__tmp < 1.0)
    1c68:	20 e0       	ldi	r18, 0x00	; 0
    1c6a:	30 e0       	ldi	r19, 0x00	; 0
    1c6c:	40 e8       	ldi	r20, 0x80	; 128
    1c6e:	5f e3       	ldi	r21, 0x3F	; 63
    1c70:	6d 81       	ldd	r22, Y+5	; 0x05
    1c72:	7e 81       	ldd	r23, Y+6	; 0x06
    1c74:	8f 81       	ldd	r24, Y+7	; 0x07
    1c76:	98 85       	ldd	r25, Y+8	; 0x08
    1c78:	0e 94 13 38 	call	0x7026	; 0x7026 <__ltsf2>
    1c7c:	88 23       	and	r24, r24
    1c7e:	1c f4       	brge	.+6      	; 0x1c86 <entryShift+0x6c>
		__ticks = 1;
    1c80:	81 e0       	ldi	r24, 0x01	; 1
    1c82:	89 87       	std	Y+9, r24	; 0x09
    1c84:	97 c0       	rjmp	.+302    	; 0x1db4 <entryShift+0x19a>
	else if (__tmp > 255)
    1c86:	20 e0       	ldi	r18, 0x00	; 0
    1c88:	30 e0       	ldi	r19, 0x00	; 0
    1c8a:	4f e7       	ldi	r20, 0x7F	; 127
    1c8c:	53 e4       	ldi	r21, 0x43	; 67
    1c8e:	6d 81       	ldd	r22, Y+5	; 0x05
    1c90:	7e 81       	ldd	r23, Y+6	; 0x06
    1c92:	8f 81       	ldd	r24, Y+7	; 0x07
    1c94:	98 85       	ldd	r25, Y+8	; 0x08
    1c96:	0e 94 b5 37 	call	0x6f6a	; 0x6f6a <__gtsf2>
    1c9a:	18 16       	cp	r1, r24
    1c9c:	0c f0       	brlt	.+2      	; 0x1ca0 <entryShift+0x86>
    1c9e:	81 c0       	rjmp	.+258    	; 0x1da2 <entryShift+0x188>
	{
		_delay_ms(__us / 1000.0);
    1ca0:	20 e0       	ldi	r18, 0x00	; 0
    1ca2:	30 e0       	ldi	r19, 0x00	; 0
    1ca4:	4a e7       	ldi	r20, 0x7A	; 122
    1ca6:	54 e4       	ldi	r21, 0x44	; 68
    1ca8:	69 81       	ldd	r22, Y+1	; 0x01
    1caa:	7a 81       	ldd	r23, Y+2	; 0x02
    1cac:	8b 81       	ldd	r24, Y+3	; 0x03
    1cae:	9c 81       	ldd	r25, Y+4	; 0x04
    1cb0:	0e 94 12 37 	call	0x6e24	; 0x6e24 <__divsf3>
    1cb4:	dc 01       	movw	r26, r24
    1cb6:	cb 01       	movw	r24, r22
    1cb8:	8a 87       	std	Y+10, r24	; 0x0a
    1cba:	9b 87       	std	Y+11, r25	; 0x0b
    1cbc:	ac 87       	std	Y+12, r26	; 0x0c
    1cbe:	bd 87       	std	Y+13, r27	; 0x0d
	#endif

	__builtin_avr_delay_cycles(__ticks_dc);

#else
	__tmp = ((F_CPU) / 4e3) * __ms;
    1cc0:	20 e0       	ldi	r18, 0x00	; 0
    1cc2:	30 e0       	ldi	r19, 0x00	; 0
    1cc4:	4a e7       	ldi	r20, 0x7A	; 122
    1cc6:	55 e4       	ldi	r21, 0x45	; 69
    1cc8:	6a 85       	ldd	r22, Y+10	; 0x0a
    1cca:	7b 85       	ldd	r23, Y+11	; 0x0b
    1ccc:	8c 85       	ldd	r24, Y+12	; 0x0c
    1cce:	9d 85       	ldd	r25, Y+13	; 0x0d
    1cd0:	0e 94 2d 36 	call	0x6c5a	; 0x6c5a <__mulsf3>
    1cd4:	dc 01       	movw	r26, r24
    1cd6:	cb 01       	movw	r24, r22
    1cd8:	8e 87       	std	Y+14, r24	; 0x0e
    1cda:	9f 87       	std	Y+15, r25	; 0x0f
    1cdc:	a8 8b       	std	Y+16, r26	; 0x10
    1cde:	b9 8b       	std	Y+17, r27	; 0x11
	if (__tmp < 1.0)
    1ce0:	20 e0       	ldi	r18, 0x00	; 0
    1ce2:	30 e0       	ldi	r19, 0x00	; 0
    1ce4:	40 e8       	ldi	r20, 0x80	; 128
    1ce6:	5f e3       	ldi	r21, 0x3F	; 63
    1ce8:	6e 85       	ldd	r22, Y+14	; 0x0e
    1cea:	7f 85       	ldd	r23, Y+15	; 0x0f
    1cec:	88 89       	ldd	r24, Y+16	; 0x10
    1cee:	99 89       	ldd	r25, Y+17	; 0x11
    1cf0:	0e 94 13 38 	call	0x7026	; 0x7026 <__ltsf2>
    1cf4:	88 23       	and	r24, r24
    1cf6:	2c f4       	brge	.+10     	; 0x1d02 <entryShift+0xe8>
		__ticks = 1;
    1cf8:	81 e0       	ldi	r24, 0x01	; 1
    1cfa:	90 e0       	ldi	r25, 0x00	; 0
    1cfc:	9b 8b       	std	Y+19, r25	; 0x13
    1cfe:	8a 8b       	std	Y+18, r24	; 0x12
    1d00:	42 c0       	rjmp	.+132    	; 0x1d86 <entryShift+0x16c>
	else if (__tmp > 65535)
    1d02:	20 e0       	ldi	r18, 0x00	; 0
    1d04:	3f ef       	ldi	r19, 0xFF	; 255
    1d06:	4f e7       	ldi	r20, 0x7F	; 127
    1d08:	57 e4       	ldi	r21, 0x47	; 71
    1d0a:	6e 85       	ldd	r22, Y+14	; 0x0e
    1d0c:	7f 85       	ldd	r23, Y+15	; 0x0f
    1d0e:	88 89       	ldd	r24, Y+16	; 0x10
    1d10:	99 89       	ldd	r25, Y+17	; 0x11
    1d12:	0e 94 b5 37 	call	0x6f6a	; 0x6f6a <__gtsf2>
    1d16:	18 16       	cp	r1, r24
    1d18:	64 f5       	brge	.+88     	; 0x1d72 <entryShift+0x158>
	{
		//	__ticks = requested delay in 1/10 ms
		__ticks = (uint16_t) (__ms * 10.0);
    1d1a:	20 e0       	ldi	r18, 0x00	; 0
    1d1c:	30 e0       	ldi	r19, 0x00	; 0
    1d1e:	40 e2       	ldi	r20, 0x20	; 32
    1d20:	51 e4       	ldi	r21, 0x41	; 65
    1d22:	6a 85       	ldd	r22, Y+10	; 0x0a
    1d24:	7b 85       	ldd	r23, Y+11	; 0x0b
    1d26:	8c 85       	ldd	r24, Y+12	; 0x0c
    1d28:	9d 85       	ldd	r25, Y+13	; 0x0d
    1d2a:	0e 94 2d 36 	call	0x6c5a	; 0x6c5a <__mulsf3>
    1d2e:	dc 01       	movw	r26, r24
    1d30:	cb 01       	movw	r24, r22
    1d32:	bc 01       	movw	r22, r24
    1d34:	cd 01       	movw	r24, r26
    1d36:	0e 94 48 34 	call	0x6890	; 0x6890 <__fixunssfsi>
    1d3a:	dc 01       	movw	r26, r24
    1d3c:	cb 01       	movw	r24, r22
    1d3e:	9b 8b       	std	Y+19, r25	; 0x13
    1d40:	8a 8b       	std	Y+18, r24	; 0x12
    1d42:	12 c0       	rjmp	.+36     	; 0x1d68 <entryShift+0x14e>
    1d44:	80 e9       	ldi	r24, 0x90	; 144
    1d46:	91 e0       	ldi	r25, 0x01	; 1
    1d48:	9d 8b       	std	Y+21, r25	; 0x15
    1d4a:	8c 8b       	std	Y+20, r24	; 0x14
    1d4c:	8c 89       	ldd	r24, Y+20	; 0x14
    1d4e:	9d 89       	ldd	r25, Y+21	; 0x15
    1d50:	8c 01       	movw	r16, r24
    1d52:	c8 01       	movw	r24, r16
    1d54:	01 97       	sbiw	r24, 0x01	; 1
    1d56:	f1 f7       	brne	.-4      	; 0x1d54 <entryShift+0x13a>
    1d58:	8c 01       	movw	r16, r24
    1d5a:	1d 8b       	std	Y+21, r17	; 0x15
    1d5c:	0c 8b       	std	Y+20, r16	; 0x14
		while(__ticks)
		{
			// wait 1/10 ms
			_delay_loop_2(((F_CPU) / 4e3) / 10);
			__ticks --;
    1d5e:	8a 89       	ldd	r24, Y+18	; 0x12
    1d60:	9b 89       	ldd	r25, Y+19	; 0x13
    1d62:	01 97       	sbiw	r24, 0x01	; 1
    1d64:	9b 8b       	std	Y+19, r25	; 0x13
    1d66:	8a 8b       	std	Y+18, r24	; 0x12
		__ticks = 1;
	else if (__tmp > 65535)
	{
		//	__ticks = requested delay in 1/10 ms
		__ticks = (uint16_t) (__ms * 10.0);
		while(__ticks)
    1d68:	8a 89       	ldd	r24, Y+18	; 0x12
    1d6a:	9b 89       	ldd	r25, Y+19	; 0x13
    1d6c:	00 97       	sbiw	r24, 0x00	; 0
    1d6e:	51 f7       	brne	.-44     	; 0x1d44 <entryShift+0x12a>
    1d70:	28 c0       	rjmp	.+80     	; 0x1dc2 <entryShift+0x1a8>
			__ticks --;
		}
		return;
	}
	else
		__ticks = (uint16_t)__tmp;
    1d72:	6e 85       	ldd	r22, Y+14	; 0x0e
    1d74:	7f 85       	ldd	r23, Y+15	; 0x0f
    1d76:	88 89       	ldd	r24, Y+16	; 0x10
    1d78:	99 89       	ldd	r25, Y+17	; 0x11
    1d7a:	0e 94 48 34 	call	0x6890	; 0x6890 <__fixunssfsi>
    1d7e:	dc 01       	movw	r26, r24
    1d80:	cb 01       	movw	r24, r22
    1d82:	9b 8b       	std	Y+19, r25	; 0x13
    1d84:	8a 8b       	std	Y+18, r24	; 0x12
    1d86:	8a 89       	ldd	r24, Y+18	; 0x12
    1d88:	9b 89       	ldd	r25, Y+19	; 0x13
    1d8a:	9f 8b       	std	Y+23, r25	; 0x17
    1d8c:	8e 8b       	std	Y+22, r24	; 0x16
    1d8e:	8e 89       	ldd	r24, Y+22	; 0x16
    1d90:	9f 89       	ldd	r25, Y+23	; 0x17
    1d92:	8c 01       	movw	r16, r24
    1d94:	c8 01       	movw	r24, r16
    1d96:	01 97       	sbiw	r24, 0x01	; 1
    1d98:	f1 f7       	brne	.-4      	; 0x1d96 <entryShift+0x17c>
    1d9a:	8c 01       	movw	r16, r24
    1d9c:	1f 8b       	std	Y+23, r17	; 0x17
    1d9e:	0e 8b       	std	Y+22, r16	; 0x16
    1da0:	10 c0       	rjmp	.+32     	; 0x1dc2 <entryShift+0x1a8>
	{
		_delay_ms(__us / 1000.0);
		return;
	}
	else
		__ticks = (uint8_t)__tmp;
    1da2:	6d 81       	ldd	r22, Y+5	; 0x05
    1da4:	7e 81       	ldd	r23, Y+6	; 0x06
    1da6:	8f 81       	ldd	r24, Y+7	; 0x07
    1da8:	98 85       	ldd	r25, Y+8	; 0x08
    1daa:	0e 94 48 34 	call	0x6890	; 0x6890 <__fixunssfsi>
    1dae:	dc 01       	movw	r26, r24
    1db0:	cb 01       	movw	r24, r22
    1db2:	89 87       	std	Y+9, r24	; 0x09
    1db4:	89 85       	ldd	r24, Y+9	; 0x09
    1db6:	88 8f       	std	Y+24, r24	; 0x18
    can be achieved.
*/
void
_delay_loop_1(uint8_t __count)
{
	__asm__ volatile (
    1db8:	88 8d       	ldd	r24, Y+24	; 0x18
    1dba:	18 2f       	mov	r17, r24
    1dbc:	1a 95       	dec	r17
    1dbe:	f1 f7       	brne	.-4      	; 0x1dbc <entryShift+0x1a2>
    1dc0:	18 8f       	std	Y+24, r17	; 0x18
	_delay_us(2);
}
    1dc2:	68 96       	adiw	r28, 0x18	; 24
    1dc4:	0f b6       	in	r0, 0x3f	; 63
    1dc6:	f8 94       	cli
    1dc8:	de bf       	out	0x3e, r29	; 62
    1dca:	0f be       	out	0x3f, r0	; 63
    1dcc:	cd bf       	out	0x3d, r28	; 61
    1dce:	df 91       	pop	r29
    1dd0:	cf 91       	pop	r28
    1dd2:	1f 91       	pop	r17
    1dd4:	0f 91       	pop	r16
    1dd6:	08 95       	ret

00001dd8 <entryReward>:

void entryReward()  //역방향 
{
    1dd8:	0f 93       	push	r16
    1dda:	1f 93       	push	r17
    1ddc:	cf 93       	push	r28
    1dde:	df 93       	push	r29
    1de0:	cd b7       	in	r28, 0x3d	; 61
    1de2:	de b7       	in	r29, 0x3e	; 62
    1de4:	68 97       	sbiw	r28, 0x18	; 24
    1de6:	0f b6       	in	r0, 0x3f	; 63
    1de8:	f8 94       	cli
    1dea:	de bf       	out	0x3e, r29	; 62
    1dec:	0f be       	out	0x3f, r0	; 63
    1dee:	cd bf       	out	0x3d, r28	; 61
	writeCTRL((1<<LCD_ENTRY_MODE) | (0<<LCD_ENTRY_INC) | (0<<LCD_ENTRY_SHIFT));
    1df0:	84 e0       	ldi	r24, 0x04	; 4
    1df2:	0e 94 2a 02 	call	0x454	; 0x454 <writeCTRL>
    1df6:	80 e0       	ldi	r24, 0x00	; 0
    1df8:	90 e0       	ldi	r25, 0x00	; 0
    1dfa:	a0 e0       	ldi	r26, 0x00	; 0
    1dfc:	b0 e4       	ldi	r27, 0x40	; 64
    1dfe:	89 83       	std	Y+1, r24	; 0x01
    1e00:	9a 83       	std	Y+2, r25	; 0x02
    1e02:	ab 83       	std	Y+3, r26	; 0x03
    1e04:	bc 83       	std	Y+4, r27	; 0x04
	#endif

	__builtin_avr_delay_cycles(__ticks_dc);

#else
	__tmp = ((F_CPU) / 3e6) * __us;
    1e06:	2b ea       	ldi	r18, 0xAB	; 171
    1e08:	3a ea       	ldi	r19, 0xAA	; 170
    1e0a:	4a ea       	ldi	r20, 0xAA	; 170
    1e0c:	50 e4       	ldi	r21, 0x40	; 64
    1e0e:	69 81       	ldd	r22, Y+1	; 0x01
    1e10:	7a 81       	ldd	r23, Y+2	; 0x02
    1e12:	8b 81       	ldd	r24, Y+3	; 0x03
    1e14:	9c 81       	ldd	r25, Y+4	; 0x04
    1e16:	0e 94 2d 36 	call	0x6c5a	; 0x6c5a <__mulsf3>
    1e1a:	dc 01       	movw	r26, r24
    1e1c:	cb 01       	movw	r24, r22
    1e1e:	8d 83       	std	Y+5, r24	; 0x05
    1e20:	9e 83       	std	Y+6, r25	; 0x06
    1e22:	af 83       	std	Y+7, r26	; 0x07
    1e24:	b8 87       	std	Y+8, r27	; 0x08
	if (__tmp < 1.0)
    1e26:	20 e0       	ldi	r18, 0x00	; 0
    1e28:	30 e0       	ldi	r19, 0x00	; 0
    1e2a:	40 e8       	ldi	r20, 0x80	; 128
    1e2c:	5f e3       	ldi	r21, 0x3F	; 63
    1e2e:	6d 81       	ldd	r22, Y+5	; 0x05
    1e30:	7e 81       	ldd	r23, Y+6	; 0x06
    1e32:	8f 81       	ldd	r24, Y+7	; 0x07
    1e34:	98 85       	ldd	r25, Y+8	; 0x08
    1e36:	0e 94 13 38 	call	0x7026	; 0x7026 <__ltsf2>
    1e3a:	88 23       	and	r24, r24
    1e3c:	1c f4       	brge	.+6      	; 0x1e44 <entryReward+0x6c>
		__ticks = 1;
    1e3e:	81 e0       	ldi	r24, 0x01	; 1
    1e40:	89 87       	std	Y+9, r24	; 0x09
    1e42:	97 c0       	rjmp	.+302    	; 0x1f72 <entryReward+0x19a>
	else if (__tmp > 255)
    1e44:	20 e0       	ldi	r18, 0x00	; 0
    1e46:	30 e0       	ldi	r19, 0x00	; 0
    1e48:	4f e7       	ldi	r20, 0x7F	; 127
    1e4a:	53 e4       	ldi	r21, 0x43	; 67
    1e4c:	6d 81       	ldd	r22, Y+5	; 0x05
    1e4e:	7e 81       	ldd	r23, Y+6	; 0x06
    1e50:	8f 81       	ldd	r24, Y+7	; 0x07
    1e52:	98 85       	ldd	r25, Y+8	; 0x08
    1e54:	0e 94 b5 37 	call	0x6f6a	; 0x6f6a <__gtsf2>
    1e58:	18 16       	cp	r1, r24
    1e5a:	0c f0       	brlt	.+2      	; 0x1e5e <entryReward+0x86>
    1e5c:	81 c0       	rjmp	.+258    	; 0x1f60 <entryReward+0x188>
	{
		_delay_ms(__us / 1000.0);
    1e5e:	20 e0       	ldi	r18, 0x00	; 0
    1e60:	30 e0       	ldi	r19, 0x00	; 0
    1e62:	4a e7       	ldi	r20, 0x7A	; 122
    1e64:	54 e4       	ldi	r21, 0x44	; 68
    1e66:	69 81       	ldd	r22, Y+1	; 0x01
    1e68:	7a 81       	ldd	r23, Y+2	; 0x02
    1e6a:	8b 81       	ldd	r24, Y+3	; 0x03
    1e6c:	9c 81       	ldd	r25, Y+4	; 0x04
    1e6e:	0e 94 12 37 	call	0x6e24	; 0x6e24 <__divsf3>
    1e72:	dc 01       	movw	r26, r24
    1e74:	cb 01       	movw	r24, r22
    1e76:	8a 87       	std	Y+10, r24	; 0x0a
    1e78:	9b 87       	std	Y+11, r25	; 0x0b
    1e7a:	ac 87       	std	Y+12, r26	; 0x0c
    1e7c:	bd 87       	std	Y+13, r27	; 0x0d
	#endif

	__builtin_avr_delay_cycles(__ticks_dc);

#else
	__tmp = ((F_CPU) / 4e3) * __ms;
    1e7e:	20 e0       	ldi	r18, 0x00	; 0
    1e80:	30 e0       	ldi	r19, 0x00	; 0
    1e82:	4a e7       	ldi	r20, 0x7A	; 122
    1e84:	55 e4       	ldi	r21, 0x45	; 69
    1e86:	6a 85       	ldd	r22, Y+10	; 0x0a
    1e88:	7b 85       	ldd	r23, Y+11	; 0x0b
    1e8a:	8c 85       	ldd	r24, Y+12	; 0x0c
    1e8c:	9d 85       	ldd	r25, Y+13	; 0x0d
    1e8e:	0e 94 2d 36 	call	0x6c5a	; 0x6c5a <__mulsf3>
    1e92:	dc 01       	movw	r26, r24
    1e94:	cb 01       	movw	r24, r22
    1e96:	8e 87       	std	Y+14, r24	; 0x0e
    1e98:	9f 87       	std	Y+15, r25	; 0x0f
    1e9a:	a8 8b       	std	Y+16, r26	; 0x10
    1e9c:	b9 8b       	std	Y+17, r27	; 0x11
	if (__tmp < 1.0)
    1e9e:	20 e0       	ldi	r18, 0x00	; 0
    1ea0:	30 e0       	ldi	r19, 0x00	; 0
    1ea2:	40 e8       	ldi	r20, 0x80	; 128
    1ea4:	5f e3       	ldi	r21, 0x3F	; 63
    1ea6:	6e 85       	ldd	r22, Y+14	; 0x0e
    1ea8:	7f 85       	ldd	r23, Y+15	; 0x0f
    1eaa:	88 89       	ldd	r24, Y+16	; 0x10
    1eac:	99 89       	ldd	r25, Y+17	; 0x11
    1eae:	0e 94 13 38 	call	0x7026	; 0x7026 <__ltsf2>
    1eb2:	88 23       	and	r24, r24
    1eb4:	2c f4       	brge	.+10     	; 0x1ec0 <entryReward+0xe8>
		__ticks = 1;
    1eb6:	81 e0       	ldi	r24, 0x01	; 1
    1eb8:	90 e0       	ldi	r25, 0x00	; 0
    1eba:	9b 8b       	std	Y+19, r25	; 0x13
    1ebc:	8a 8b       	std	Y+18, r24	; 0x12
    1ebe:	42 c0       	rjmp	.+132    	; 0x1f44 <entryReward+0x16c>
	else if (__tmp > 65535)
    1ec0:	20 e0       	ldi	r18, 0x00	; 0
    1ec2:	3f ef       	ldi	r19, 0xFF	; 255
    1ec4:	4f e7       	ldi	r20, 0x7F	; 127
    1ec6:	57 e4       	ldi	r21, 0x47	; 71
    1ec8:	6e 85       	ldd	r22, Y+14	; 0x0e
    1eca:	7f 85       	ldd	r23, Y+15	; 0x0f
    1ecc:	88 89       	ldd	r24, Y+16	; 0x10
    1ece:	99 89       	ldd	r25, Y+17	; 0x11
    1ed0:	0e 94 b5 37 	call	0x6f6a	; 0x6f6a <__gtsf2>
    1ed4:	18 16       	cp	r1, r24
    1ed6:	64 f5       	brge	.+88     	; 0x1f30 <entryReward+0x158>
	{
		//	__ticks = requested delay in 1/10 ms
		__ticks = (uint16_t) (__ms * 10.0);
    1ed8:	20 e0       	ldi	r18, 0x00	; 0
    1eda:	30 e0       	ldi	r19, 0x00	; 0
    1edc:	40 e2       	ldi	r20, 0x20	; 32
    1ede:	51 e4       	ldi	r21, 0x41	; 65
    1ee0:	6a 85       	ldd	r22, Y+10	; 0x0a
    1ee2:	7b 85       	ldd	r23, Y+11	; 0x0b
    1ee4:	8c 85       	ldd	r24, Y+12	; 0x0c
    1ee6:	9d 85       	ldd	r25, Y+13	; 0x0d
    1ee8:	0e 94 2d 36 	call	0x6c5a	; 0x6c5a <__mulsf3>
    1eec:	dc 01       	movw	r26, r24
    1eee:	cb 01       	movw	r24, r22
    1ef0:	bc 01       	movw	r22, r24
    1ef2:	cd 01       	movw	r24, r26
    1ef4:	0e 94 48 34 	call	0x6890	; 0x6890 <__fixunssfsi>
    1ef8:	dc 01       	movw	r26, r24
    1efa:	cb 01       	movw	r24, r22
    1efc:	9b 8b       	std	Y+19, r25	; 0x13
    1efe:	8a 8b       	std	Y+18, r24	; 0x12
    1f00:	12 c0       	rjmp	.+36     	; 0x1f26 <entryReward+0x14e>
    1f02:	80 e9       	ldi	r24, 0x90	; 144
    1f04:	91 e0       	ldi	r25, 0x01	; 1
    1f06:	9d 8b       	std	Y+21, r25	; 0x15
    1f08:	8c 8b       	std	Y+20, r24	; 0x14
    milliseconds can be achieved.
 */
void
_delay_loop_2(uint16_t __count)
{
	__asm__ volatile (
    1f0a:	8c 89       	ldd	r24, Y+20	; 0x14
    1f0c:	9d 89       	ldd	r25, Y+21	; 0x15
    1f0e:	8c 01       	movw	r16, r24
    1f10:	c8 01       	movw	r24, r16
    1f12:	01 97       	sbiw	r24, 0x01	; 1
    1f14:	f1 f7       	brne	.-4      	; 0x1f12 <entryReward+0x13a>
    1f16:	8c 01       	movw	r16, r24
    1f18:	1d 8b       	std	Y+21, r17	; 0x15
    1f1a:	0c 8b       	std	Y+20, r16	; 0x14
		while(__ticks)
		{
			// wait 1/10 ms
			_delay_loop_2(((F_CPU) / 4e3) / 10);
			__ticks --;
    1f1c:	8a 89       	ldd	r24, Y+18	; 0x12
    1f1e:	9b 89       	ldd	r25, Y+19	; 0x13
    1f20:	01 97       	sbiw	r24, 0x01	; 1
    1f22:	9b 8b       	std	Y+19, r25	; 0x13
    1f24:	8a 8b       	std	Y+18, r24	; 0x12
		__ticks = 1;
	else if (__tmp > 65535)
	{
		//	__ticks = requested delay in 1/10 ms
		__ticks = (uint16_t) (__ms * 10.0);
		while(__ticks)
    1f26:	8a 89       	ldd	r24, Y+18	; 0x12
    1f28:	9b 89       	ldd	r25, Y+19	; 0x13
    1f2a:	00 97       	sbiw	r24, 0x00	; 0
    1f2c:	51 f7       	brne	.-44     	; 0x1f02 <entryReward+0x12a>
    1f2e:	28 c0       	rjmp	.+80     	; 0x1f80 <entryReward+0x1a8>
			__ticks --;
		}
		return;
	}
	else
		__ticks = (uint16_t)__tmp;
    1f30:	6e 85       	ldd	r22, Y+14	; 0x0e
    1f32:	7f 85       	ldd	r23, Y+15	; 0x0f
    1f34:	88 89       	ldd	r24, Y+16	; 0x10
    1f36:	99 89       	ldd	r25, Y+17	; 0x11
    1f38:	0e 94 48 34 	call	0x6890	; 0x6890 <__fixunssfsi>
    1f3c:	dc 01       	movw	r26, r24
    1f3e:	cb 01       	movw	r24, r22
    1f40:	9b 8b       	std	Y+19, r25	; 0x13
    1f42:	8a 8b       	std	Y+18, r24	; 0x12
    1f44:	8a 89       	ldd	r24, Y+18	; 0x12
    1f46:	9b 89       	ldd	r25, Y+19	; 0x13
    1f48:	9f 8b       	std	Y+23, r25	; 0x17
    1f4a:	8e 8b       	std	Y+22, r24	; 0x16
    1f4c:	8e 89       	ldd	r24, Y+22	; 0x16
    1f4e:	9f 89       	ldd	r25, Y+23	; 0x17
    1f50:	8c 01       	movw	r16, r24
    1f52:	c8 01       	movw	r24, r16
    1f54:	01 97       	sbiw	r24, 0x01	; 1
    1f56:	f1 f7       	brne	.-4      	; 0x1f54 <entryReward+0x17c>
    1f58:	8c 01       	movw	r16, r24
    1f5a:	1f 8b       	std	Y+23, r17	; 0x17
    1f5c:	0e 8b       	std	Y+22, r16	; 0x16
    1f5e:	10 c0       	rjmp	.+32     	; 0x1f80 <entryReward+0x1a8>
	{
		_delay_ms(__us / 1000.0);
		return;
	}
	else
		__ticks = (uint8_t)__tmp;
    1f60:	6d 81       	ldd	r22, Y+5	; 0x05
    1f62:	7e 81       	ldd	r23, Y+6	; 0x06
    1f64:	8f 81       	ldd	r24, Y+7	; 0x07
    1f66:	98 85       	ldd	r25, Y+8	; 0x08
    1f68:	0e 94 48 34 	call	0x6890	; 0x6890 <__fixunssfsi>
    1f6c:	dc 01       	movw	r26, r24
    1f6e:	cb 01       	movw	r24, r22
    1f70:	89 87       	std	Y+9, r24	; 0x09
    1f72:	89 85       	ldd	r24, Y+9	; 0x09
    1f74:	88 8f       	std	Y+24, r24	; 0x18
    can be achieved.
*/
void
_delay_loop_1(uint8_t __count)
{
	__asm__ volatile (
    1f76:	88 8d       	ldd	r24, Y+24	; 0x18
    1f78:	18 2f       	mov	r17, r24
    1f7a:	1a 95       	dec	r17
    1f7c:	f1 f7       	brne	.-4      	; 0x1f7a <entryReward+0x1a2>
    1f7e:	18 8f       	std	Y+24, r17	; 0x18
	_delay_us(2);
}
    1f80:	68 96       	adiw	r28, 0x18	; 24
    1f82:	0f b6       	in	r0, 0x3f	; 63
    1f84:	f8 94       	cli
    1f86:	de bf       	out	0x3e, r29	; 62
    1f88:	0f be       	out	0x3f, r0	; 63
    1f8a:	cd bf       	out	0x3d, r28	; 61
    1f8c:	df 91       	pop	r29
    1f8e:	cf 91       	pop	r28
    1f90:	1f 91       	pop	r17
    1f92:	0f 91       	pop	r16
    1f94:	08 95       	ret

00001f96 <entryForward>:

void entryForward()  //정방향 
{
    1f96:	0f 93       	push	r16
    1f98:	1f 93       	push	r17
    1f9a:	cf 93       	push	r28
    1f9c:	df 93       	push	r29
    1f9e:	cd b7       	in	r28, 0x3d	; 61
    1fa0:	de b7       	in	r29, 0x3e	; 62
    1fa2:	68 97       	sbiw	r28, 0x18	; 24
    1fa4:	0f b6       	in	r0, 0x3f	; 63
    1fa6:	f8 94       	cli
    1fa8:	de bf       	out	0x3e, r29	; 62
    1faa:	0f be       	out	0x3f, r0	; 63
    1fac:	cd bf       	out	0x3d, r28	; 61
	writeCTRL((1<<LCD_ENTRY_MODE) | (1<<LCD_ENTRY_INC) | (0<<LCD_ENTRY_SHIFT));
    1fae:	86 e0       	ldi	r24, 0x06	; 6
    1fb0:	0e 94 2a 02 	call	0x454	; 0x454 <writeCTRL>
    1fb4:	80 e0       	ldi	r24, 0x00	; 0
    1fb6:	90 e0       	ldi	r25, 0x00	; 0
    1fb8:	a0 e0       	ldi	r26, 0x00	; 0
    1fba:	b0 e4       	ldi	r27, 0x40	; 64
    1fbc:	89 83       	std	Y+1, r24	; 0x01
    1fbe:	9a 83       	std	Y+2, r25	; 0x02
    1fc0:	ab 83       	std	Y+3, r26	; 0x03
    1fc2:	bc 83       	std	Y+4, r27	; 0x04
	#endif

	__builtin_avr_delay_cycles(__ticks_dc);

#else
	__tmp = ((F_CPU) / 3e6) * __us;
    1fc4:	2b ea       	ldi	r18, 0xAB	; 171
    1fc6:	3a ea       	ldi	r19, 0xAA	; 170
    1fc8:	4a ea       	ldi	r20, 0xAA	; 170
    1fca:	50 e4       	ldi	r21, 0x40	; 64
    1fcc:	69 81       	ldd	r22, Y+1	; 0x01
    1fce:	7a 81       	ldd	r23, Y+2	; 0x02
    1fd0:	8b 81       	ldd	r24, Y+3	; 0x03
    1fd2:	9c 81       	ldd	r25, Y+4	; 0x04
    1fd4:	0e 94 2d 36 	call	0x6c5a	; 0x6c5a <__mulsf3>
    1fd8:	dc 01       	movw	r26, r24
    1fda:	cb 01       	movw	r24, r22
    1fdc:	8d 83       	std	Y+5, r24	; 0x05
    1fde:	9e 83       	std	Y+6, r25	; 0x06
    1fe0:	af 83       	std	Y+7, r26	; 0x07
    1fe2:	b8 87       	std	Y+8, r27	; 0x08
	if (__tmp < 1.0)
    1fe4:	20 e0       	ldi	r18, 0x00	; 0
    1fe6:	30 e0       	ldi	r19, 0x00	; 0
    1fe8:	40 e8       	ldi	r20, 0x80	; 128
    1fea:	5f e3       	ldi	r21, 0x3F	; 63
    1fec:	6d 81       	ldd	r22, Y+5	; 0x05
    1fee:	7e 81       	ldd	r23, Y+6	; 0x06
    1ff0:	8f 81       	ldd	r24, Y+7	; 0x07
    1ff2:	98 85       	ldd	r25, Y+8	; 0x08
    1ff4:	0e 94 13 38 	call	0x7026	; 0x7026 <__ltsf2>
    1ff8:	88 23       	and	r24, r24
    1ffa:	1c f4       	brge	.+6      	; 0x2002 <entryForward+0x6c>
		__ticks = 1;
    1ffc:	81 e0       	ldi	r24, 0x01	; 1
    1ffe:	89 87       	std	Y+9, r24	; 0x09
    2000:	97 c0       	rjmp	.+302    	; 0x2130 <entryForward+0x19a>
	else if (__tmp > 255)
    2002:	20 e0       	ldi	r18, 0x00	; 0
    2004:	30 e0       	ldi	r19, 0x00	; 0
    2006:	4f e7       	ldi	r20, 0x7F	; 127
    2008:	53 e4       	ldi	r21, 0x43	; 67
    200a:	6d 81       	ldd	r22, Y+5	; 0x05
    200c:	7e 81       	ldd	r23, Y+6	; 0x06
    200e:	8f 81       	ldd	r24, Y+7	; 0x07
    2010:	98 85       	ldd	r25, Y+8	; 0x08
    2012:	0e 94 b5 37 	call	0x6f6a	; 0x6f6a <__gtsf2>
    2016:	18 16       	cp	r1, r24
    2018:	0c f0       	brlt	.+2      	; 0x201c <entryForward+0x86>
    201a:	81 c0       	rjmp	.+258    	; 0x211e <entryForward+0x188>
	{
		_delay_ms(__us / 1000.0);
    201c:	20 e0       	ldi	r18, 0x00	; 0
    201e:	30 e0       	ldi	r19, 0x00	; 0
    2020:	4a e7       	ldi	r20, 0x7A	; 122
    2022:	54 e4       	ldi	r21, 0x44	; 68
    2024:	69 81       	ldd	r22, Y+1	; 0x01
    2026:	7a 81       	ldd	r23, Y+2	; 0x02
    2028:	8b 81       	ldd	r24, Y+3	; 0x03
    202a:	9c 81       	ldd	r25, Y+4	; 0x04
    202c:	0e 94 12 37 	call	0x6e24	; 0x6e24 <__divsf3>
    2030:	dc 01       	movw	r26, r24
    2032:	cb 01       	movw	r24, r22
    2034:	8a 87       	std	Y+10, r24	; 0x0a
    2036:	9b 87       	std	Y+11, r25	; 0x0b
    2038:	ac 87       	std	Y+12, r26	; 0x0c
    203a:	bd 87       	std	Y+13, r27	; 0x0d
	#endif

	__builtin_avr_delay_cycles(__ticks_dc);

#else
	__tmp = ((F_CPU) / 4e3) * __ms;
    203c:	20 e0       	ldi	r18, 0x00	; 0
    203e:	30 e0       	ldi	r19, 0x00	; 0
    2040:	4a e7       	ldi	r20, 0x7A	; 122
    2042:	55 e4       	ldi	r21, 0x45	; 69
    2044:	6a 85       	ldd	r22, Y+10	; 0x0a
    2046:	7b 85       	ldd	r23, Y+11	; 0x0b
    2048:	8c 85       	ldd	r24, Y+12	; 0x0c
    204a:	9d 85       	ldd	r25, Y+13	; 0x0d
    204c:	0e 94 2d 36 	call	0x6c5a	; 0x6c5a <__mulsf3>
    2050:	dc 01       	movw	r26, r24
    2052:	cb 01       	movw	r24, r22
    2054:	8e 87       	std	Y+14, r24	; 0x0e
    2056:	9f 87       	std	Y+15, r25	; 0x0f
    2058:	a8 8b       	std	Y+16, r26	; 0x10
    205a:	b9 8b       	std	Y+17, r27	; 0x11
	if (__tmp < 1.0)
    205c:	20 e0       	ldi	r18, 0x00	; 0
    205e:	30 e0       	ldi	r19, 0x00	; 0
    2060:	40 e8       	ldi	r20, 0x80	; 128
    2062:	5f e3       	ldi	r21, 0x3F	; 63
    2064:	6e 85       	ldd	r22, Y+14	; 0x0e
    2066:	7f 85       	ldd	r23, Y+15	; 0x0f
    2068:	88 89       	ldd	r24, Y+16	; 0x10
    206a:	99 89       	ldd	r25, Y+17	; 0x11
    206c:	0e 94 13 38 	call	0x7026	; 0x7026 <__ltsf2>
    2070:	88 23       	and	r24, r24
    2072:	2c f4       	brge	.+10     	; 0x207e <entryForward+0xe8>
		__ticks = 1;
    2074:	81 e0       	ldi	r24, 0x01	; 1
    2076:	90 e0       	ldi	r25, 0x00	; 0
    2078:	9b 8b       	std	Y+19, r25	; 0x13
    207a:	8a 8b       	std	Y+18, r24	; 0x12
    207c:	42 c0       	rjmp	.+132    	; 0x2102 <entryForward+0x16c>
	else if (__tmp > 65535)
    207e:	20 e0       	ldi	r18, 0x00	; 0
    2080:	3f ef       	ldi	r19, 0xFF	; 255
    2082:	4f e7       	ldi	r20, 0x7F	; 127
    2084:	57 e4       	ldi	r21, 0x47	; 71
    2086:	6e 85       	ldd	r22, Y+14	; 0x0e
    2088:	7f 85       	ldd	r23, Y+15	; 0x0f
    208a:	88 89       	ldd	r24, Y+16	; 0x10
    208c:	99 89       	ldd	r25, Y+17	; 0x11
    208e:	0e 94 b5 37 	call	0x6f6a	; 0x6f6a <__gtsf2>
    2092:	18 16       	cp	r1, r24
    2094:	64 f5       	brge	.+88     	; 0x20ee <entryForward+0x158>
	{
		//	__ticks = requested delay in 1/10 ms
		__ticks = (uint16_t) (__ms * 10.0);
    2096:	20 e0       	ldi	r18, 0x00	; 0
    2098:	30 e0       	ldi	r19, 0x00	; 0
    209a:	40 e2       	ldi	r20, 0x20	; 32
    209c:	51 e4       	ldi	r21, 0x41	; 65
    209e:	6a 85       	ldd	r22, Y+10	; 0x0a
    20a0:	7b 85       	ldd	r23, Y+11	; 0x0b
    20a2:	8c 85       	ldd	r24, Y+12	; 0x0c
    20a4:	9d 85       	ldd	r25, Y+13	; 0x0d
    20a6:	0e 94 2d 36 	call	0x6c5a	; 0x6c5a <__mulsf3>
    20aa:	dc 01       	movw	r26, r24
    20ac:	cb 01       	movw	r24, r22
    20ae:	bc 01       	movw	r22, r24
    20b0:	cd 01       	movw	r24, r26
    20b2:	0e 94 48 34 	call	0x6890	; 0x6890 <__fixunssfsi>
    20b6:	dc 01       	movw	r26, r24
    20b8:	cb 01       	movw	r24, r22
    20ba:	9b 8b       	std	Y+19, r25	; 0x13
    20bc:	8a 8b       	std	Y+18, r24	; 0x12
    20be:	12 c0       	rjmp	.+36     	; 0x20e4 <entryForward+0x14e>
    20c0:	80 e9       	ldi	r24, 0x90	; 144
    20c2:	91 e0       	ldi	r25, 0x01	; 1
    20c4:	9d 8b       	std	Y+21, r25	; 0x15
    20c6:	8c 8b       	std	Y+20, r24	; 0x14
    milliseconds can be achieved.
 */
void
_delay_loop_2(uint16_t __count)
{
	__asm__ volatile (
    20c8:	8c 89       	ldd	r24, Y+20	; 0x14
    20ca:	9d 89       	ldd	r25, Y+21	; 0x15
    20cc:	8c 01       	movw	r16, r24
    20ce:	c8 01       	movw	r24, r16
    20d0:	01 97       	sbiw	r24, 0x01	; 1
    20d2:	f1 f7       	brne	.-4      	; 0x20d0 <entryForward+0x13a>
    20d4:	8c 01       	movw	r16, r24
    20d6:	1d 8b       	std	Y+21, r17	; 0x15
    20d8:	0c 8b       	std	Y+20, r16	; 0x14
		while(__ticks)
		{
			// wait 1/10 ms
			_delay_loop_2(((F_CPU) / 4e3) / 10);
			__ticks --;
    20da:	8a 89       	ldd	r24, Y+18	; 0x12
    20dc:	9b 89       	ldd	r25, Y+19	; 0x13
    20de:	01 97       	sbiw	r24, 0x01	; 1
    20e0:	9b 8b       	std	Y+19, r25	; 0x13
    20e2:	8a 8b       	std	Y+18, r24	; 0x12
		__ticks = 1;
	else if (__tmp > 65535)
	{
		//	__ticks = requested delay in 1/10 ms
		__ticks = (uint16_t) (__ms * 10.0);
		while(__ticks)
    20e4:	8a 89       	ldd	r24, Y+18	; 0x12
    20e6:	9b 89       	ldd	r25, Y+19	; 0x13
    20e8:	00 97       	sbiw	r24, 0x00	; 0
    20ea:	51 f7       	brne	.-44     	; 0x20c0 <entryForward+0x12a>
    20ec:	28 c0       	rjmp	.+80     	; 0x213e <entryForward+0x1a8>
			__ticks --;
		}
		return;
	}
	else
		__ticks = (uint16_t)__tmp;
    20ee:	6e 85       	ldd	r22, Y+14	; 0x0e
    20f0:	7f 85       	ldd	r23, Y+15	; 0x0f
    20f2:	88 89       	ldd	r24, Y+16	; 0x10
    20f4:	99 89       	ldd	r25, Y+17	; 0x11
    20f6:	0e 94 48 34 	call	0x6890	; 0x6890 <__fixunssfsi>
    20fa:	dc 01       	movw	r26, r24
    20fc:	cb 01       	movw	r24, r22
    20fe:	9b 8b       	std	Y+19, r25	; 0x13
    2100:	8a 8b       	std	Y+18, r24	; 0x12
    2102:	8a 89       	ldd	r24, Y+18	; 0x12
    2104:	9b 89       	ldd	r25, Y+19	; 0x13
    2106:	9f 8b       	std	Y+23, r25	; 0x17
    2108:	8e 8b       	std	Y+22, r24	; 0x16
    210a:	8e 89       	ldd	r24, Y+22	; 0x16
    210c:	9f 89       	ldd	r25, Y+23	; 0x17
    210e:	8c 01       	movw	r16, r24
    2110:	c8 01       	movw	r24, r16
    2112:	01 97       	sbiw	r24, 0x01	; 1
    2114:	f1 f7       	brne	.-4      	; 0x2112 <entryForward+0x17c>
    2116:	8c 01       	movw	r16, r24
    2118:	1f 8b       	std	Y+23, r17	; 0x17
    211a:	0e 8b       	std	Y+22, r16	; 0x16
    211c:	10 c0       	rjmp	.+32     	; 0x213e <entryForward+0x1a8>
	{
		_delay_ms(__us / 1000.0);
		return;
	}
	else
		__ticks = (uint8_t)__tmp;
    211e:	6d 81       	ldd	r22, Y+5	; 0x05
    2120:	7e 81       	ldd	r23, Y+6	; 0x06
    2122:	8f 81       	ldd	r24, Y+7	; 0x07
    2124:	98 85       	ldd	r25, Y+8	; 0x08
    2126:	0e 94 48 34 	call	0x6890	; 0x6890 <__fixunssfsi>
    212a:	dc 01       	movw	r26, r24
    212c:	cb 01       	movw	r24, r22
    212e:	89 87       	std	Y+9, r24	; 0x09
    2130:	89 85       	ldd	r24, Y+9	; 0x09
    2132:	88 8f       	std	Y+24, r24	; 0x18
    can be achieved.
*/
void
_delay_loop_1(uint8_t __count)
{
	__asm__ volatile (
    2134:	88 8d       	ldd	r24, Y+24	; 0x18
    2136:	18 2f       	mov	r17, r24
    2138:	1a 95       	dec	r17
    213a:	f1 f7       	brne	.-4      	; 0x2138 <entryForward+0x1a2>
    213c:	18 8f       	std	Y+24, r17	; 0x18
	_delay_us(2);
}
    213e:	68 96       	adiw	r28, 0x18	; 24
    2140:	0f b6       	in	r0, 0x3f	; 63
    2142:	f8 94       	cli
    2144:	de bf       	out	0x3e, r29	; 62
    2146:	0f be       	out	0x3f, r0	; 63
    2148:	cd bf       	out	0x3d, r28	; 61
    214a:	df 91       	pop	r29
    214c:	cf 91       	pop	r28
    214e:	1f 91       	pop	r17
    2150:	0f 91       	pop	r16
    2152:	08 95       	ret

00002154 <setPosition>:

// * Set DDRAM address Reg
void setPosition(unsigned char row, unsigned char col)  //LCD 포지션 설정//275p
{
    2154:	0f 93       	push	r16
    2156:	1f 93       	push	r17
    2158:	cf 93       	push	r28
    215a:	df 93       	push	r29
    215c:	cd b7       	in	r28, 0x3d	; 61
    215e:	de b7       	in	r29, 0x3e	; 62
    2160:	61 97       	sbiw	r28, 0x11	; 17
    2162:	0f b6       	in	r0, 0x3f	; 63
    2164:	f8 94       	cli
    2166:	de bf       	out	0x3e, r29	; 62
    2168:	0f be       	out	0x3f, r0	; 63
    216a:	cd bf       	out	0x3d, r28	; 61
    216c:	88 8b       	std	Y+16, r24	; 0x10
    216e:	69 8b       	std	Y+17, r22	; 0x11
	unsigned char addr; 
		
	if(row == 0)  //row = 문자행
    2170:	88 89       	ldd	r24, Y+16	; 0x10
    2172:	88 23       	and	r24, r24
    2174:	19 f4       	brne	.+6      	; 0x217c <setPosition+0x28>
		addr = col;
    2176:	89 89       	ldd	r24, Y+17	; 0x11
    2178:	89 83       	std	Y+1, r24	; 0x01
    217a:	08 c0       	rjmp	.+16     	; 0x218c <setPosition+0x38>
	else if(row ==1)  
    217c:	88 89       	ldd	r24, Y+16	; 0x10
    217e:	81 30       	cpi	r24, 0x01	; 1
    2180:	21 f4       	brne	.+8      	; 0x218a <setPosition+0x36>
		addr = 0x40 + col; //col = 문자열
    2182:	89 89       	ldd	r24, Y+17	; 0x11
    2184:	80 5c       	subi	r24, 0xC0	; 192
    2186:	89 83       	std	Y+1, r24	; 0x01
    2188:	01 c0       	rjmp	.+2      	; 0x218c <setPosition+0x38>
	else 
		addr = 0;
    218a:	19 82       	std	Y+1, r1	; 0x01

	writeCTRL((1<<LCD_DDRAM) | addr);
    218c:	89 81       	ldd	r24, Y+1	; 0x01
    218e:	80 68       	ori	r24, 0x80	; 128
    2190:	0e 94 2a 02 	call	0x454	; 0x454 <writeCTRL>
    2194:	80 e0       	ldi	r24, 0x00	; 0
    2196:	90 e0       	ldi	r25, 0x00	; 0
    2198:	a0 e0       	ldi	r26, 0x00	; 0
    219a:	b0 e4       	ldi	r27, 0x40	; 64
    219c:	8a 83       	std	Y+2, r24	; 0x02
    219e:	9b 83       	std	Y+3, r25	; 0x03
    21a0:	ac 83       	std	Y+4, r26	; 0x04
    21a2:	bd 83       	std	Y+5, r27	; 0x05
	#endif

	__builtin_avr_delay_cycles(__ticks_dc);

#else
	__tmp = ((F_CPU) / 4e3) * __ms;
    21a4:	20 e0       	ldi	r18, 0x00	; 0
    21a6:	30 e0       	ldi	r19, 0x00	; 0
    21a8:	4a e7       	ldi	r20, 0x7A	; 122
    21aa:	55 e4       	ldi	r21, 0x45	; 69
    21ac:	6a 81       	ldd	r22, Y+2	; 0x02
    21ae:	7b 81       	ldd	r23, Y+3	; 0x03
    21b0:	8c 81       	ldd	r24, Y+4	; 0x04
    21b2:	9d 81       	ldd	r25, Y+5	; 0x05
    21b4:	0e 94 2d 36 	call	0x6c5a	; 0x6c5a <__mulsf3>
    21b8:	dc 01       	movw	r26, r24
    21ba:	cb 01       	movw	r24, r22
    21bc:	8e 83       	std	Y+6, r24	; 0x06
    21be:	9f 83       	std	Y+7, r25	; 0x07
    21c0:	a8 87       	std	Y+8, r26	; 0x08
    21c2:	b9 87       	std	Y+9, r27	; 0x09
	if (__tmp < 1.0)
    21c4:	20 e0       	ldi	r18, 0x00	; 0
    21c6:	30 e0       	ldi	r19, 0x00	; 0
    21c8:	40 e8       	ldi	r20, 0x80	; 128
    21ca:	5f e3       	ldi	r21, 0x3F	; 63
    21cc:	6e 81       	ldd	r22, Y+6	; 0x06
    21ce:	7f 81       	ldd	r23, Y+7	; 0x07
    21d0:	88 85       	ldd	r24, Y+8	; 0x08
    21d2:	99 85       	ldd	r25, Y+9	; 0x09
    21d4:	0e 94 13 38 	call	0x7026	; 0x7026 <__ltsf2>
    21d8:	88 23       	and	r24, r24
    21da:	2c f4       	brge	.+10     	; 0x21e6 <setPosition+0x92>
		__ticks = 1;
    21dc:	81 e0       	ldi	r24, 0x01	; 1
    21de:	90 e0       	ldi	r25, 0x00	; 0
    21e0:	9b 87       	std	Y+11, r25	; 0x0b
    21e2:	8a 87       	std	Y+10, r24	; 0x0a
    21e4:	42 c0       	rjmp	.+132    	; 0x226a <setPosition+0x116>
	else if (__tmp > 65535)
    21e6:	20 e0       	ldi	r18, 0x00	; 0
    21e8:	3f ef       	ldi	r19, 0xFF	; 255
    21ea:	4f e7       	ldi	r20, 0x7F	; 127
    21ec:	57 e4       	ldi	r21, 0x47	; 71
    21ee:	6e 81       	ldd	r22, Y+6	; 0x06
    21f0:	7f 81       	ldd	r23, Y+7	; 0x07
    21f2:	88 85       	ldd	r24, Y+8	; 0x08
    21f4:	99 85       	ldd	r25, Y+9	; 0x09
    21f6:	0e 94 b5 37 	call	0x6f6a	; 0x6f6a <__gtsf2>
    21fa:	18 16       	cp	r1, r24
    21fc:	64 f5       	brge	.+88     	; 0x2256 <setPosition+0x102>
	{
		//	__ticks = requested delay in 1/10 ms
		__ticks = (uint16_t) (__ms * 10.0);
    21fe:	20 e0       	ldi	r18, 0x00	; 0
    2200:	30 e0       	ldi	r19, 0x00	; 0
    2202:	40 e2       	ldi	r20, 0x20	; 32
    2204:	51 e4       	ldi	r21, 0x41	; 65
    2206:	6a 81       	ldd	r22, Y+2	; 0x02
    2208:	7b 81       	ldd	r23, Y+3	; 0x03
    220a:	8c 81       	ldd	r24, Y+4	; 0x04
    220c:	9d 81       	ldd	r25, Y+5	; 0x05
    220e:	0e 94 2d 36 	call	0x6c5a	; 0x6c5a <__mulsf3>
    2212:	dc 01       	movw	r26, r24
    2214:	cb 01       	movw	r24, r22
    2216:	bc 01       	movw	r22, r24
    2218:	cd 01       	movw	r24, r26
    221a:	0e 94 48 34 	call	0x6890	; 0x6890 <__fixunssfsi>
    221e:	dc 01       	movw	r26, r24
    2220:	cb 01       	movw	r24, r22
    2222:	9b 87       	std	Y+11, r25	; 0x0b
    2224:	8a 87       	std	Y+10, r24	; 0x0a
    2226:	12 c0       	rjmp	.+36     	; 0x224c <setPosition+0xf8>
    2228:	80 e9       	ldi	r24, 0x90	; 144
    222a:	91 e0       	ldi	r25, 0x01	; 1
    222c:	9d 87       	std	Y+13, r25	; 0x0d
    222e:	8c 87       	std	Y+12, r24	; 0x0c
    milliseconds can be achieved.
 */
void
_delay_loop_2(uint16_t __count)
{
	__asm__ volatile (
    2230:	8c 85       	ldd	r24, Y+12	; 0x0c
    2232:	9d 85       	ldd	r25, Y+13	; 0x0d
    2234:	8c 01       	movw	r16, r24
    2236:	c8 01       	movw	r24, r16
    2238:	01 97       	sbiw	r24, 0x01	; 1
    223a:	f1 f7       	brne	.-4      	; 0x2238 <setPosition+0xe4>
    223c:	8c 01       	movw	r16, r24
    223e:	1d 87       	std	Y+13, r17	; 0x0d
    2240:	0c 87       	std	Y+12, r16	; 0x0c
		while(__ticks)
		{
			// wait 1/10 ms
			_delay_loop_2(((F_CPU) / 4e3) / 10);
			__ticks --;
    2242:	8a 85       	ldd	r24, Y+10	; 0x0a
    2244:	9b 85       	ldd	r25, Y+11	; 0x0b
    2246:	01 97       	sbiw	r24, 0x01	; 1
    2248:	9b 87       	std	Y+11, r25	; 0x0b
    224a:	8a 87       	std	Y+10, r24	; 0x0a
		__ticks = 1;
	else if (__tmp > 65535)
	{
		//	__ticks = requested delay in 1/10 ms
		__ticks = (uint16_t) (__ms * 10.0);
		while(__ticks)
    224c:	8a 85       	ldd	r24, Y+10	; 0x0a
    224e:	9b 85       	ldd	r25, Y+11	; 0x0b
    2250:	00 97       	sbiw	r24, 0x00	; 0
    2252:	51 f7       	brne	.-44     	; 0x2228 <setPosition+0xd4>
    2254:	17 c0       	rjmp	.+46     	; 0x2284 <setPosition+0x130>
			__ticks --;
		}
		return;
	}
	else
		__ticks = (uint16_t)__tmp;
    2256:	6e 81       	ldd	r22, Y+6	; 0x06
    2258:	7f 81       	ldd	r23, Y+7	; 0x07
    225a:	88 85       	ldd	r24, Y+8	; 0x08
    225c:	99 85       	ldd	r25, Y+9	; 0x09
    225e:	0e 94 48 34 	call	0x6890	; 0x6890 <__fixunssfsi>
    2262:	dc 01       	movw	r26, r24
    2264:	cb 01       	movw	r24, r22
    2266:	9b 87       	std	Y+11, r25	; 0x0b
    2268:	8a 87       	std	Y+10, r24	; 0x0a
    226a:	8a 85       	ldd	r24, Y+10	; 0x0a
    226c:	9b 85       	ldd	r25, Y+11	; 0x0b
    226e:	9f 87       	std	Y+15, r25	; 0x0f
    2270:	8e 87       	std	Y+14, r24	; 0x0e
    2272:	8e 85       	ldd	r24, Y+14	; 0x0e
    2274:	9f 85       	ldd	r25, Y+15	; 0x0f
    2276:	8c 01       	movw	r16, r24
    2278:	c8 01       	movw	r24, r16
    227a:	01 97       	sbiw	r24, 0x01	; 1
    227c:	f1 f7       	brne	.-4      	; 0x227a <setPosition+0x126>
    227e:	8c 01       	movw	r16, r24
    2280:	1f 87       	std	Y+15, r17	; 0x0f
    2282:	0e 87       	std	Y+14, r16	; 0x0e
	_delay_ms(2);
}
    2284:	61 96       	adiw	r28, 0x11	; 17
    2286:	0f b6       	in	r0, 0x3f	; 63
    2288:	f8 94       	cli
    228a:	de bf       	out	0x3e, r29	; 62
    228c:	0f be       	out	0x3f, r0	; 63
    228e:	cd bf       	out	0x3d, r28	; 61
    2290:	df 91       	pop	r29
    2292:	cf 91       	pop	r28
    2294:	1f 91       	pop	r17
    2296:	0f 91       	pop	r16
    2298:	08 95       	ret

0000229a <setCGRAM_ADDR>:
	  writeCTRL(1<<LCD_DDRAM | addr); 
}
*/

void setCGRAM_ADDR()
{
    229a:	0f 93       	push	r16
    229c:	1f 93       	push	r17
    229e:	cf 93       	push	r28
    22a0:	df 93       	push	r29
    22a2:	cd b7       	in	r28, 0x3d	; 61
    22a4:	de b7       	in	r29, 0x3e	; 62
    22a6:	2e 97       	sbiw	r28, 0x0e	; 14
    22a8:	0f b6       	in	r0, 0x3f	; 63
    22aa:	f8 94       	cli
    22ac:	de bf       	out	0x3e, r29	; 62
    22ae:	0f be       	out	0x3f, r0	; 63
    22b0:	cd bf       	out	0x3d, r28	; 61
	writeCTRL(1<<LCD_CGRAM);
    22b2:	80 e4       	ldi	r24, 0x40	; 64
    22b4:	0e 94 2a 02 	call	0x454	; 0x454 <writeCTRL>
    22b8:	80 e0       	ldi	r24, 0x00	; 0
    22ba:	90 e0       	ldi	r25, 0x00	; 0
    22bc:	a0 e0       	ldi	r26, 0x00	; 0
    22be:	b0 e4       	ldi	r27, 0x40	; 64
    22c0:	89 83       	std	Y+1, r24	; 0x01
    22c2:	9a 83       	std	Y+2, r25	; 0x02
    22c4:	ab 83       	std	Y+3, r26	; 0x03
    22c6:	bc 83       	std	Y+4, r27	; 0x04
	#endif

	__builtin_avr_delay_cycles(__ticks_dc);

#else
	__tmp = ((F_CPU) / 4e3) * __ms;
    22c8:	20 e0       	ldi	r18, 0x00	; 0
    22ca:	30 e0       	ldi	r19, 0x00	; 0
    22cc:	4a e7       	ldi	r20, 0x7A	; 122
    22ce:	55 e4       	ldi	r21, 0x45	; 69
    22d0:	69 81       	ldd	r22, Y+1	; 0x01
    22d2:	7a 81       	ldd	r23, Y+2	; 0x02
    22d4:	8b 81       	ldd	r24, Y+3	; 0x03
    22d6:	9c 81       	ldd	r25, Y+4	; 0x04
    22d8:	0e 94 2d 36 	call	0x6c5a	; 0x6c5a <__mulsf3>
    22dc:	dc 01       	movw	r26, r24
    22de:	cb 01       	movw	r24, r22
    22e0:	8d 83       	std	Y+5, r24	; 0x05
    22e2:	9e 83       	std	Y+6, r25	; 0x06
    22e4:	af 83       	std	Y+7, r26	; 0x07
    22e6:	b8 87       	std	Y+8, r27	; 0x08
	if (__tmp < 1.0)
    22e8:	20 e0       	ldi	r18, 0x00	; 0
    22ea:	30 e0       	ldi	r19, 0x00	; 0
    22ec:	40 e8       	ldi	r20, 0x80	; 128
    22ee:	5f e3       	ldi	r21, 0x3F	; 63
    22f0:	6d 81       	ldd	r22, Y+5	; 0x05
    22f2:	7e 81       	ldd	r23, Y+6	; 0x06
    22f4:	8f 81       	ldd	r24, Y+7	; 0x07
    22f6:	98 85       	ldd	r25, Y+8	; 0x08
    22f8:	0e 94 13 38 	call	0x7026	; 0x7026 <__ltsf2>
    22fc:	88 23       	and	r24, r24
    22fe:	2c f4       	brge	.+10     	; 0x230a <setCGRAM_ADDR+0x70>
		__ticks = 1;
    2300:	81 e0       	ldi	r24, 0x01	; 1
    2302:	90 e0       	ldi	r25, 0x00	; 0
    2304:	9a 87       	std	Y+10, r25	; 0x0a
    2306:	89 87       	std	Y+9, r24	; 0x09
    2308:	42 c0       	rjmp	.+132    	; 0x238e <setCGRAM_ADDR+0xf4>
	else if (__tmp > 65535)
    230a:	20 e0       	ldi	r18, 0x00	; 0
    230c:	3f ef       	ldi	r19, 0xFF	; 255
    230e:	4f e7       	ldi	r20, 0x7F	; 127
    2310:	57 e4       	ldi	r21, 0x47	; 71
    2312:	6d 81       	ldd	r22, Y+5	; 0x05
    2314:	7e 81       	ldd	r23, Y+6	; 0x06
    2316:	8f 81       	ldd	r24, Y+7	; 0x07
    2318:	98 85       	ldd	r25, Y+8	; 0x08
    231a:	0e 94 b5 37 	call	0x6f6a	; 0x6f6a <__gtsf2>
    231e:	18 16       	cp	r1, r24
    2320:	64 f5       	brge	.+88     	; 0x237a <setCGRAM_ADDR+0xe0>
	{
		//	__ticks = requested delay in 1/10 ms
		__ticks = (uint16_t) (__ms * 10.0);
    2322:	20 e0       	ldi	r18, 0x00	; 0
    2324:	30 e0       	ldi	r19, 0x00	; 0
    2326:	40 e2       	ldi	r20, 0x20	; 32
    2328:	51 e4       	ldi	r21, 0x41	; 65
    232a:	69 81       	ldd	r22, Y+1	; 0x01
    232c:	7a 81       	ldd	r23, Y+2	; 0x02
    232e:	8b 81       	ldd	r24, Y+3	; 0x03
    2330:	9c 81       	ldd	r25, Y+4	; 0x04
    2332:	0e 94 2d 36 	call	0x6c5a	; 0x6c5a <__mulsf3>
    2336:	dc 01       	movw	r26, r24
    2338:	cb 01       	movw	r24, r22
    233a:	bc 01       	movw	r22, r24
    233c:	cd 01       	movw	r24, r26
    233e:	0e 94 48 34 	call	0x6890	; 0x6890 <__fixunssfsi>
    2342:	dc 01       	movw	r26, r24
    2344:	cb 01       	movw	r24, r22
    2346:	9a 87       	std	Y+10, r25	; 0x0a
    2348:	89 87       	std	Y+9, r24	; 0x09
    234a:	12 c0       	rjmp	.+36     	; 0x2370 <setCGRAM_ADDR+0xd6>
    234c:	80 e9       	ldi	r24, 0x90	; 144
    234e:	91 e0       	ldi	r25, 0x01	; 1
    2350:	9c 87       	std	Y+12, r25	; 0x0c
    2352:	8b 87       	std	Y+11, r24	; 0x0b
    2354:	8b 85       	ldd	r24, Y+11	; 0x0b
    2356:	9c 85       	ldd	r25, Y+12	; 0x0c
    2358:	8c 01       	movw	r16, r24
    235a:	c8 01       	movw	r24, r16
    235c:	01 97       	sbiw	r24, 0x01	; 1
    235e:	f1 f7       	brne	.-4      	; 0x235c <setCGRAM_ADDR+0xc2>
    2360:	8c 01       	movw	r16, r24
    2362:	1c 87       	std	Y+12, r17	; 0x0c
    2364:	0b 87       	std	Y+11, r16	; 0x0b
		while(__ticks)
		{
			// wait 1/10 ms
			_delay_loop_2(((F_CPU) / 4e3) / 10);
			__ticks --;
    2366:	89 85       	ldd	r24, Y+9	; 0x09
    2368:	9a 85       	ldd	r25, Y+10	; 0x0a
    236a:	01 97       	sbiw	r24, 0x01	; 1
    236c:	9a 87       	std	Y+10, r25	; 0x0a
    236e:	89 87       	std	Y+9, r24	; 0x09
		__ticks = 1;
	else if (__tmp > 65535)
	{
		//	__ticks = requested delay in 1/10 ms
		__ticks = (uint16_t) (__ms * 10.0);
		while(__ticks)
    2370:	89 85       	ldd	r24, Y+9	; 0x09
    2372:	9a 85       	ldd	r25, Y+10	; 0x0a
    2374:	00 97       	sbiw	r24, 0x00	; 0
    2376:	51 f7       	brne	.-44     	; 0x234c <setCGRAM_ADDR+0xb2>
    2378:	17 c0       	rjmp	.+46     	; 0x23a8 <setCGRAM_ADDR+0x10e>
			__ticks --;
		}
		return;
	}
	else
		__ticks = (uint16_t)__tmp;
    237a:	6d 81       	ldd	r22, Y+5	; 0x05
    237c:	7e 81       	ldd	r23, Y+6	; 0x06
    237e:	8f 81       	ldd	r24, Y+7	; 0x07
    2380:	98 85       	ldd	r25, Y+8	; 0x08
    2382:	0e 94 48 34 	call	0x6890	; 0x6890 <__fixunssfsi>
    2386:	dc 01       	movw	r26, r24
    2388:	cb 01       	movw	r24, r22
    238a:	9a 87       	std	Y+10, r25	; 0x0a
    238c:	89 87       	std	Y+9, r24	; 0x09
    238e:	89 85       	ldd	r24, Y+9	; 0x09
    2390:	9a 85       	ldd	r25, Y+10	; 0x0a
    2392:	9e 87       	std	Y+14, r25	; 0x0e
    2394:	8d 87       	std	Y+13, r24	; 0x0d
    2396:	8d 85       	ldd	r24, Y+13	; 0x0d
    2398:	9e 85       	ldd	r25, Y+14	; 0x0e
    239a:	8c 01       	movw	r16, r24
    239c:	c8 01       	movw	r24, r16
    239e:	01 97       	sbiw	r24, 0x01	; 1
    23a0:	f1 f7       	brne	.-4      	; 0x239e <setCGRAM_ADDR+0x104>
    23a2:	8c 01       	movw	r16, r24
    23a4:	1e 87       	std	Y+14, r17	; 0x0e
    23a6:	0d 87       	std	Y+13, r16	; 0x0d
	_delay_ms(2);

}
    23a8:	2e 96       	adiw	r28, 0x0e	; 14
    23aa:	0f b6       	in	r0, 0x3f	; 63
    23ac:	f8 94       	cli
    23ae:	de bf       	out	0x3e, r29	; 62
    23b0:	0f be       	out	0x3f, r0	; 63
    23b2:	cd bf       	out	0x3d, r28	; 61
    23b4:	df 91       	pop	r29
    23b6:	cf 91       	pop	r28
    23b8:	1f 91       	pop	r17
    23ba:	0f 91       	pop	r16
    23bc:	08 95       	ret

000023be <setDDRAM_ADDR>:
void setDDRAM_ADDR()
{
    23be:	0f 93       	push	r16
    23c0:	1f 93       	push	r17
    23c2:	cf 93       	push	r28
    23c4:	df 93       	push	r29
    23c6:	cd b7       	in	r28, 0x3d	; 61
    23c8:	de b7       	in	r29, 0x3e	; 62
    23ca:	2e 97       	sbiw	r28, 0x0e	; 14
    23cc:	0f b6       	in	r0, 0x3f	; 63
    23ce:	f8 94       	cli
    23d0:	de bf       	out	0x3e, r29	; 62
    23d2:	0f be       	out	0x3f, r0	; 63
    23d4:	cd bf       	out	0x3d, r28	; 61
	writeCTRL(1<<LCD_DDRAM);
    23d6:	80 e8       	ldi	r24, 0x80	; 128
    23d8:	0e 94 2a 02 	call	0x454	; 0x454 <writeCTRL>
    23dc:	80 e0       	ldi	r24, 0x00	; 0
    23de:	90 e0       	ldi	r25, 0x00	; 0
    23e0:	a0 e0       	ldi	r26, 0x00	; 0
    23e2:	b0 e4       	ldi	r27, 0x40	; 64
    23e4:	89 83       	std	Y+1, r24	; 0x01
    23e6:	9a 83       	std	Y+2, r25	; 0x02
    23e8:	ab 83       	std	Y+3, r26	; 0x03
    23ea:	bc 83       	std	Y+4, r27	; 0x04
	#endif

	__builtin_avr_delay_cycles(__ticks_dc);

#else
	__tmp = ((F_CPU) / 4e3) * __ms;
    23ec:	20 e0       	ldi	r18, 0x00	; 0
    23ee:	30 e0       	ldi	r19, 0x00	; 0
    23f0:	4a e7       	ldi	r20, 0x7A	; 122
    23f2:	55 e4       	ldi	r21, 0x45	; 69
    23f4:	69 81       	ldd	r22, Y+1	; 0x01
    23f6:	7a 81       	ldd	r23, Y+2	; 0x02
    23f8:	8b 81       	ldd	r24, Y+3	; 0x03
    23fa:	9c 81       	ldd	r25, Y+4	; 0x04
    23fc:	0e 94 2d 36 	call	0x6c5a	; 0x6c5a <__mulsf3>
    2400:	dc 01       	movw	r26, r24
    2402:	cb 01       	movw	r24, r22
    2404:	8d 83       	std	Y+5, r24	; 0x05
    2406:	9e 83       	std	Y+6, r25	; 0x06
    2408:	af 83       	std	Y+7, r26	; 0x07
    240a:	b8 87       	std	Y+8, r27	; 0x08
	if (__tmp < 1.0)
    240c:	20 e0       	ldi	r18, 0x00	; 0
    240e:	30 e0       	ldi	r19, 0x00	; 0
    2410:	40 e8       	ldi	r20, 0x80	; 128
    2412:	5f e3       	ldi	r21, 0x3F	; 63
    2414:	6d 81       	ldd	r22, Y+5	; 0x05
    2416:	7e 81       	ldd	r23, Y+6	; 0x06
    2418:	8f 81       	ldd	r24, Y+7	; 0x07
    241a:	98 85       	ldd	r25, Y+8	; 0x08
    241c:	0e 94 13 38 	call	0x7026	; 0x7026 <__ltsf2>
    2420:	88 23       	and	r24, r24
    2422:	2c f4       	brge	.+10     	; 0x242e <setDDRAM_ADDR+0x70>
		__ticks = 1;
    2424:	81 e0       	ldi	r24, 0x01	; 1
    2426:	90 e0       	ldi	r25, 0x00	; 0
    2428:	9a 87       	std	Y+10, r25	; 0x0a
    242a:	89 87       	std	Y+9, r24	; 0x09
    242c:	42 c0       	rjmp	.+132    	; 0x24b2 <setDDRAM_ADDR+0xf4>
	else if (__tmp > 65535)
    242e:	20 e0       	ldi	r18, 0x00	; 0
    2430:	3f ef       	ldi	r19, 0xFF	; 255
    2432:	4f e7       	ldi	r20, 0x7F	; 127
    2434:	57 e4       	ldi	r21, 0x47	; 71
    2436:	6d 81       	ldd	r22, Y+5	; 0x05
    2438:	7e 81       	ldd	r23, Y+6	; 0x06
    243a:	8f 81       	ldd	r24, Y+7	; 0x07
    243c:	98 85       	ldd	r25, Y+8	; 0x08
    243e:	0e 94 b5 37 	call	0x6f6a	; 0x6f6a <__gtsf2>
    2442:	18 16       	cp	r1, r24
    2444:	64 f5       	brge	.+88     	; 0x249e <setDDRAM_ADDR+0xe0>
	{
		//	__ticks = requested delay in 1/10 ms
		__ticks = (uint16_t) (__ms * 10.0);
    2446:	20 e0       	ldi	r18, 0x00	; 0
    2448:	30 e0       	ldi	r19, 0x00	; 0
    244a:	40 e2       	ldi	r20, 0x20	; 32
    244c:	51 e4       	ldi	r21, 0x41	; 65
    244e:	69 81       	ldd	r22, Y+1	; 0x01
    2450:	7a 81       	ldd	r23, Y+2	; 0x02
    2452:	8b 81       	ldd	r24, Y+3	; 0x03
    2454:	9c 81       	ldd	r25, Y+4	; 0x04
    2456:	0e 94 2d 36 	call	0x6c5a	; 0x6c5a <__mulsf3>
    245a:	dc 01       	movw	r26, r24
    245c:	cb 01       	movw	r24, r22
    245e:	bc 01       	movw	r22, r24
    2460:	cd 01       	movw	r24, r26
    2462:	0e 94 48 34 	call	0x6890	; 0x6890 <__fixunssfsi>
    2466:	dc 01       	movw	r26, r24
    2468:	cb 01       	movw	r24, r22
    246a:	9a 87       	std	Y+10, r25	; 0x0a
    246c:	89 87       	std	Y+9, r24	; 0x09
    246e:	12 c0       	rjmp	.+36     	; 0x2494 <setDDRAM_ADDR+0xd6>
    2470:	80 e9       	ldi	r24, 0x90	; 144
    2472:	91 e0       	ldi	r25, 0x01	; 1
    2474:	9c 87       	std	Y+12, r25	; 0x0c
    2476:	8b 87       	std	Y+11, r24	; 0x0b
    2478:	8b 85       	ldd	r24, Y+11	; 0x0b
    247a:	9c 85       	ldd	r25, Y+12	; 0x0c
    247c:	8c 01       	movw	r16, r24
    247e:	c8 01       	movw	r24, r16
    2480:	01 97       	sbiw	r24, 0x01	; 1
    2482:	f1 f7       	brne	.-4      	; 0x2480 <setDDRAM_ADDR+0xc2>
    2484:	8c 01       	movw	r16, r24
    2486:	1c 87       	std	Y+12, r17	; 0x0c
    2488:	0b 87       	std	Y+11, r16	; 0x0b
		while(__ticks)
		{
			// wait 1/10 ms
			_delay_loop_2(((F_CPU) / 4e3) / 10);
			__ticks --;
    248a:	89 85       	ldd	r24, Y+9	; 0x09
    248c:	9a 85       	ldd	r25, Y+10	; 0x0a
    248e:	01 97       	sbiw	r24, 0x01	; 1
    2490:	9a 87       	std	Y+10, r25	; 0x0a
    2492:	89 87       	std	Y+9, r24	; 0x09
		__ticks = 1;
	else if (__tmp > 65535)
	{
		//	__ticks = requested delay in 1/10 ms
		__ticks = (uint16_t) (__ms * 10.0);
		while(__ticks)
    2494:	89 85       	ldd	r24, Y+9	; 0x09
    2496:	9a 85       	ldd	r25, Y+10	; 0x0a
    2498:	00 97       	sbiw	r24, 0x00	; 0
    249a:	51 f7       	brne	.-44     	; 0x2470 <setDDRAM_ADDR+0xb2>
    249c:	17 c0       	rjmp	.+46     	; 0x24cc <setDDRAM_ADDR+0x10e>
			__ticks --;
		}
		return;
	}
	else
		__ticks = (uint16_t)__tmp;
    249e:	6d 81       	ldd	r22, Y+5	; 0x05
    24a0:	7e 81       	ldd	r23, Y+6	; 0x06
    24a2:	8f 81       	ldd	r24, Y+7	; 0x07
    24a4:	98 85       	ldd	r25, Y+8	; 0x08
    24a6:	0e 94 48 34 	call	0x6890	; 0x6890 <__fixunssfsi>
    24aa:	dc 01       	movw	r26, r24
    24ac:	cb 01       	movw	r24, r22
    24ae:	9a 87       	std	Y+10, r25	; 0x0a
    24b0:	89 87       	std	Y+9, r24	; 0x09
    24b2:	89 85       	ldd	r24, Y+9	; 0x09
    24b4:	9a 85       	ldd	r25, Y+10	; 0x0a
    24b6:	9e 87       	std	Y+14, r25	; 0x0e
    24b8:	8d 87       	std	Y+13, r24	; 0x0d
    24ba:	8d 85       	ldd	r24, Y+13	; 0x0d
    24bc:	9e 85       	ldd	r25, Y+14	; 0x0e
    24be:	8c 01       	movw	r16, r24
    24c0:	c8 01       	movw	r24, r16
    24c2:	01 97       	sbiw	r24, 0x01	; 1
    24c4:	f1 f7       	brne	.-4      	; 0x24c2 <setDDRAM_ADDR+0x104>
    24c6:	8c 01       	movw	r16, r24
    24c8:	1e 87       	std	Y+14, r17	; 0x0e
    24ca:	0d 87       	std	Y+13, r16	; 0x0d
	_delay_ms(2);
}
    24cc:	2e 96       	adiw	r28, 0x0e	; 14
    24ce:	0f b6       	in	r0, 0x3f	; 63
    24d0:	f8 94       	cli
    24d2:	de bf       	out	0x3e, r29	; 62
    24d4:	0f be       	out	0x3f, r0	; 63
    24d6:	cd bf       	out	0x3d, r28	; 61
    24d8:	df 91       	pop	r29
    24da:	cf 91       	pop	r28
    24dc:	1f 91       	pop	r17
    24de:	0f 91       	pop	r16
    24e0:	08 95       	ret

000024e2 <LCD10DOTS>:

void LCD10DOTS()
{
    24e2:	0f 93       	push	r16
    24e4:	1f 93       	push	r17
    24e6:	cf 93       	push	r28
    24e8:	df 93       	push	r29
    24ea:	cd b7       	in	r28, 0x3d	; 61
    24ec:	de b7       	in	r29, 0x3e	; 62
    24ee:	2e 97       	sbiw	r28, 0x0e	; 14
    24f0:	0f b6       	in	r0, 0x3f	; 63
    24f2:	f8 94       	cli
    24f4:	de bf       	out	0x3e, r29	; 62
    24f6:	0f be       	out	0x3f, r0	; 63
    24f8:	cd bf       	out	0x3d, r28	; 61
	writeCTRL((1<<LCD_FUNCTION) | (1<<LCD_FUNCTION_8BIT) | (0<<LCD_FUNCTION_2LINES) | (1<<LCD_FUNCTION_10DOTS));
    24fa:	84 e3       	ldi	r24, 0x34	; 52
    24fc:	0e 94 2a 02 	call	0x454	; 0x454 <writeCTRL>
    2500:	80 e0       	ldi	r24, 0x00	; 0
    2502:	90 e0       	ldi	r25, 0x00	; 0
    2504:	a0 e0       	ldi	r26, 0x00	; 0
    2506:	b0 e4       	ldi	r27, 0x40	; 64
    2508:	89 83       	std	Y+1, r24	; 0x01
    250a:	9a 83       	std	Y+2, r25	; 0x02
    250c:	ab 83       	std	Y+3, r26	; 0x03
    250e:	bc 83       	std	Y+4, r27	; 0x04
	#endif

	__builtin_avr_delay_cycles(__ticks_dc);

#else
	__tmp = ((F_CPU) / 4e3) * __ms;
    2510:	20 e0       	ldi	r18, 0x00	; 0
    2512:	30 e0       	ldi	r19, 0x00	; 0
    2514:	4a e7       	ldi	r20, 0x7A	; 122
    2516:	55 e4       	ldi	r21, 0x45	; 69
    2518:	69 81       	ldd	r22, Y+1	; 0x01
    251a:	7a 81       	ldd	r23, Y+2	; 0x02
    251c:	8b 81       	ldd	r24, Y+3	; 0x03
    251e:	9c 81       	ldd	r25, Y+4	; 0x04
    2520:	0e 94 2d 36 	call	0x6c5a	; 0x6c5a <__mulsf3>
    2524:	dc 01       	movw	r26, r24
    2526:	cb 01       	movw	r24, r22
    2528:	8d 83       	std	Y+5, r24	; 0x05
    252a:	9e 83       	std	Y+6, r25	; 0x06
    252c:	af 83       	std	Y+7, r26	; 0x07
    252e:	b8 87       	std	Y+8, r27	; 0x08
	if (__tmp < 1.0)
    2530:	20 e0       	ldi	r18, 0x00	; 0
    2532:	30 e0       	ldi	r19, 0x00	; 0
    2534:	40 e8       	ldi	r20, 0x80	; 128
    2536:	5f e3       	ldi	r21, 0x3F	; 63
    2538:	6d 81       	ldd	r22, Y+5	; 0x05
    253a:	7e 81       	ldd	r23, Y+6	; 0x06
    253c:	8f 81       	ldd	r24, Y+7	; 0x07
    253e:	98 85       	ldd	r25, Y+8	; 0x08
    2540:	0e 94 13 38 	call	0x7026	; 0x7026 <__ltsf2>
    2544:	88 23       	and	r24, r24
    2546:	2c f4       	brge	.+10     	; 0x2552 <LCD10DOTS+0x70>
		__ticks = 1;
    2548:	81 e0       	ldi	r24, 0x01	; 1
    254a:	90 e0       	ldi	r25, 0x00	; 0
    254c:	9a 87       	std	Y+10, r25	; 0x0a
    254e:	89 87       	std	Y+9, r24	; 0x09
    2550:	42 c0       	rjmp	.+132    	; 0x25d6 <LCD10DOTS+0xf4>
	else if (__tmp > 65535)
    2552:	20 e0       	ldi	r18, 0x00	; 0
    2554:	3f ef       	ldi	r19, 0xFF	; 255
    2556:	4f e7       	ldi	r20, 0x7F	; 127
    2558:	57 e4       	ldi	r21, 0x47	; 71
    255a:	6d 81       	ldd	r22, Y+5	; 0x05
    255c:	7e 81       	ldd	r23, Y+6	; 0x06
    255e:	8f 81       	ldd	r24, Y+7	; 0x07
    2560:	98 85       	ldd	r25, Y+8	; 0x08
    2562:	0e 94 b5 37 	call	0x6f6a	; 0x6f6a <__gtsf2>
    2566:	18 16       	cp	r1, r24
    2568:	64 f5       	brge	.+88     	; 0x25c2 <LCD10DOTS+0xe0>
	{
		//	__ticks = requested delay in 1/10 ms
		__ticks = (uint16_t) (__ms * 10.0);
    256a:	20 e0       	ldi	r18, 0x00	; 0
    256c:	30 e0       	ldi	r19, 0x00	; 0
    256e:	40 e2       	ldi	r20, 0x20	; 32
    2570:	51 e4       	ldi	r21, 0x41	; 65
    2572:	69 81       	ldd	r22, Y+1	; 0x01
    2574:	7a 81       	ldd	r23, Y+2	; 0x02
    2576:	8b 81       	ldd	r24, Y+3	; 0x03
    2578:	9c 81       	ldd	r25, Y+4	; 0x04
    257a:	0e 94 2d 36 	call	0x6c5a	; 0x6c5a <__mulsf3>
    257e:	dc 01       	movw	r26, r24
    2580:	cb 01       	movw	r24, r22
    2582:	bc 01       	movw	r22, r24
    2584:	cd 01       	movw	r24, r26
    2586:	0e 94 48 34 	call	0x6890	; 0x6890 <__fixunssfsi>
    258a:	dc 01       	movw	r26, r24
    258c:	cb 01       	movw	r24, r22
    258e:	9a 87       	std	Y+10, r25	; 0x0a
    2590:	89 87       	std	Y+9, r24	; 0x09
    2592:	12 c0       	rjmp	.+36     	; 0x25b8 <LCD10DOTS+0xd6>
    2594:	80 e9       	ldi	r24, 0x90	; 144
    2596:	91 e0       	ldi	r25, 0x01	; 1
    2598:	9c 87       	std	Y+12, r25	; 0x0c
    259a:	8b 87       	std	Y+11, r24	; 0x0b
    259c:	8b 85       	ldd	r24, Y+11	; 0x0b
    259e:	9c 85       	ldd	r25, Y+12	; 0x0c
    25a0:	8c 01       	movw	r16, r24
    25a2:	c8 01       	movw	r24, r16
    25a4:	01 97       	sbiw	r24, 0x01	; 1
    25a6:	f1 f7       	brne	.-4      	; 0x25a4 <LCD10DOTS+0xc2>
    25a8:	8c 01       	movw	r16, r24
    25aa:	1c 87       	std	Y+12, r17	; 0x0c
    25ac:	0b 87       	std	Y+11, r16	; 0x0b
		while(__ticks)
		{
			// wait 1/10 ms
			_delay_loop_2(((F_CPU) / 4e3) / 10);
			__ticks --;
    25ae:	89 85       	ldd	r24, Y+9	; 0x09
    25b0:	9a 85       	ldd	r25, Y+10	; 0x0a
    25b2:	01 97       	sbiw	r24, 0x01	; 1
    25b4:	9a 87       	std	Y+10, r25	; 0x0a
    25b6:	89 87       	std	Y+9, r24	; 0x09
		__ticks = 1;
	else if (__tmp > 65535)
	{
		//	__ticks = requested delay in 1/10 ms
		__ticks = (uint16_t) (__ms * 10.0);
		while(__ticks)
    25b8:	89 85       	ldd	r24, Y+9	; 0x09
    25ba:	9a 85       	ldd	r25, Y+10	; 0x0a
    25bc:	00 97       	sbiw	r24, 0x00	; 0
    25be:	51 f7       	brne	.-44     	; 0x2594 <LCD10DOTS+0xb2>
    25c0:	17 c0       	rjmp	.+46     	; 0x25f0 <LCD10DOTS+0x10e>
			__ticks --;
		}
		return;
	}
	else
		__ticks = (uint16_t)__tmp;
    25c2:	6d 81       	ldd	r22, Y+5	; 0x05
    25c4:	7e 81       	ldd	r23, Y+6	; 0x06
    25c6:	8f 81       	ldd	r24, Y+7	; 0x07
    25c8:	98 85       	ldd	r25, Y+8	; 0x08
    25ca:	0e 94 48 34 	call	0x6890	; 0x6890 <__fixunssfsi>
    25ce:	dc 01       	movw	r26, r24
    25d0:	cb 01       	movw	r24, r22
    25d2:	9a 87       	std	Y+10, r25	; 0x0a
    25d4:	89 87       	std	Y+9, r24	; 0x09
    25d6:	89 85       	ldd	r24, Y+9	; 0x09
    25d8:	9a 85       	ldd	r25, Y+10	; 0x0a
    25da:	9e 87       	std	Y+14, r25	; 0x0e
    25dc:	8d 87       	std	Y+13, r24	; 0x0d
    25de:	8d 85       	ldd	r24, Y+13	; 0x0d
    25e0:	9e 85       	ldd	r25, Y+14	; 0x0e
    25e2:	8c 01       	movw	r16, r24
    25e4:	c8 01       	movw	r24, r16
    25e6:	01 97       	sbiw	r24, 0x01	; 1
    25e8:	f1 f7       	brne	.-4      	; 0x25e6 <LCD10DOTS+0x104>
    25ea:	8c 01       	movw	r16, r24
    25ec:	1e 87       	std	Y+14, r17	; 0x0e
    25ee:	0d 87       	std	Y+13, r16	; 0x0d

	_delay_ms(2);
}
    25f0:	2e 96       	adiw	r28, 0x0e	; 14
    25f2:	0f b6       	in	r0, 0x3f	; 63
    25f4:	f8 94       	cli
    25f6:	de bf       	out	0x3e, r29	; 62
    25f8:	0f be       	out	0x3f, r0	; 63
    25fa:	cd bf       	out	0x3d, r28	; 61
    25fc:	df 91       	pop	r29
    25fe:	cf 91       	pop	r28
    2600:	1f 91       	pop	r17
    2602:	0f 91       	pop	r16
    2604:	08 95       	ret

00002606 <Init_LCD>:


void Init_LCD()
{
    2606:	0f 93       	push	r16
    2608:	1f 93       	push	r17
    260a:	cf 93       	push	r28
    260c:	df 93       	push	r29
    260e:	cd b7       	in	r28, 0x3d	; 61
    2610:	de b7       	in	r29, 0x3e	; 62
    2612:	e8 97       	sbiw	r28, 0x38	; 56
    2614:	0f b6       	in	r0, 0x3f	; 63
    2616:	f8 94       	cli
    2618:	de bf       	out	0x3e, r29	; 62
    261a:	0f be       	out	0x3f, r0	; 63
    261c:	cd bf       	out	0x3d, r28	; 61
	writeCTRL((1<<LCD_FUNCTION) | (1<<LCD_FUNCTION_8BIT) | (1<<LCD_FUNCTION_2LINES) | (0<<LCD_FUNCTION_10DOTS));
    261e:	88 e3       	ldi	r24, 0x38	; 56
    2620:	0e 94 2a 02 	call	0x454	; 0x454 <writeCTRL>
    2624:	80 e0       	ldi	r24, 0x00	; 0
    2626:	90 e0       	ldi	r25, 0x00	; 0
    2628:	a0 e0       	ldi	r26, 0x00	; 0
    262a:	b0 e4       	ldi	r27, 0x40	; 64
    262c:	89 83       	std	Y+1, r24	; 0x01
    262e:	9a 83       	std	Y+2, r25	; 0x02
    2630:	ab 83       	std	Y+3, r26	; 0x03
    2632:	bc 83       	std	Y+4, r27	; 0x04
	#endif

	__builtin_avr_delay_cycles(__ticks_dc);

#else
	__tmp = ((F_CPU) / 4e3) * __ms;
    2634:	20 e0       	ldi	r18, 0x00	; 0
    2636:	30 e0       	ldi	r19, 0x00	; 0
    2638:	4a e7       	ldi	r20, 0x7A	; 122
    263a:	55 e4       	ldi	r21, 0x45	; 69
    263c:	69 81       	ldd	r22, Y+1	; 0x01
    263e:	7a 81       	ldd	r23, Y+2	; 0x02
    2640:	8b 81       	ldd	r24, Y+3	; 0x03
    2642:	9c 81       	ldd	r25, Y+4	; 0x04
    2644:	0e 94 2d 36 	call	0x6c5a	; 0x6c5a <__mulsf3>
    2648:	dc 01       	movw	r26, r24
    264a:	cb 01       	movw	r24, r22
    264c:	8d 83       	std	Y+5, r24	; 0x05
    264e:	9e 83       	std	Y+6, r25	; 0x06
    2650:	af 83       	std	Y+7, r26	; 0x07
    2652:	b8 87       	std	Y+8, r27	; 0x08
	if (__tmp < 1.0)
    2654:	20 e0       	ldi	r18, 0x00	; 0
    2656:	30 e0       	ldi	r19, 0x00	; 0
    2658:	40 e8       	ldi	r20, 0x80	; 128
    265a:	5f e3       	ldi	r21, 0x3F	; 63
    265c:	6d 81       	ldd	r22, Y+5	; 0x05
    265e:	7e 81       	ldd	r23, Y+6	; 0x06
    2660:	8f 81       	ldd	r24, Y+7	; 0x07
    2662:	98 85       	ldd	r25, Y+8	; 0x08
    2664:	0e 94 13 38 	call	0x7026	; 0x7026 <__ltsf2>
    2668:	88 23       	and	r24, r24
    266a:	2c f4       	brge	.+10     	; 0x2676 <Init_LCD+0x70>
		__ticks = 1;
    266c:	81 e0       	ldi	r24, 0x01	; 1
    266e:	90 e0       	ldi	r25, 0x00	; 0
    2670:	9a 87       	std	Y+10, r25	; 0x0a
    2672:	89 87       	std	Y+9, r24	; 0x09
    2674:	42 c0       	rjmp	.+132    	; 0x26fa <Init_LCD+0xf4>
	else if (__tmp > 65535)
    2676:	20 e0       	ldi	r18, 0x00	; 0
    2678:	3f ef       	ldi	r19, 0xFF	; 255
    267a:	4f e7       	ldi	r20, 0x7F	; 127
    267c:	57 e4       	ldi	r21, 0x47	; 71
    267e:	6d 81       	ldd	r22, Y+5	; 0x05
    2680:	7e 81       	ldd	r23, Y+6	; 0x06
    2682:	8f 81       	ldd	r24, Y+7	; 0x07
    2684:	98 85       	ldd	r25, Y+8	; 0x08
    2686:	0e 94 b5 37 	call	0x6f6a	; 0x6f6a <__gtsf2>
    268a:	18 16       	cp	r1, r24
    268c:	64 f5       	brge	.+88     	; 0x26e6 <Init_LCD+0xe0>
	{
		//	__ticks = requested delay in 1/10 ms
		__ticks = (uint16_t) (__ms * 10.0);
    268e:	20 e0       	ldi	r18, 0x00	; 0
    2690:	30 e0       	ldi	r19, 0x00	; 0
    2692:	40 e2       	ldi	r20, 0x20	; 32
    2694:	51 e4       	ldi	r21, 0x41	; 65
    2696:	69 81       	ldd	r22, Y+1	; 0x01
    2698:	7a 81       	ldd	r23, Y+2	; 0x02
    269a:	8b 81       	ldd	r24, Y+3	; 0x03
    269c:	9c 81       	ldd	r25, Y+4	; 0x04
    269e:	0e 94 2d 36 	call	0x6c5a	; 0x6c5a <__mulsf3>
    26a2:	dc 01       	movw	r26, r24
    26a4:	cb 01       	movw	r24, r22
    26a6:	bc 01       	movw	r22, r24
    26a8:	cd 01       	movw	r24, r26
    26aa:	0e 94 48 34 	call	0x6890	; 0x6890 <__fixunssfsi>
    26ae:	dc 01       	movw	r26, r24
    26b0:	cb 01       	movw	r24, r22
    26b2:	9a 87       	std	Y+10, r25	; 0x0a
    26b4:	89 87       	std	Y+9, r24	; 0x09
    26b6:	12 c0       	rjmp	.+36     	; 0x26dc <Init_LCD+0xd6>
    26b8:	80 e9       	ldi	r24, 0x90	; 144
    26ba:	91 e0       	ldi	r25, 0x01	; 1
    26bc:	9c 87       	std	Y+12, r25	; 0x0c
    26be:	8b 87       	std	Y+11, r24	; 0x0b
    26c0:	8b 85       	ldd	r24, Y+11	; 0x0b
    26c2:	9c 85       	ldd	r25, Y+12	; 0x0c
    26c4:	8c 01       	movw	r16, r24
    26c6:	c8 01       	movw	r24, r16
    26c8:	01 97       	sbiw	r24, 0x01	; 1
    26ca:	f1 f7       	brne	.-4      	; 0x26c8 <Init_LCD+0xc2>
    26cc:	8c 01       	movw	r16, r24
    26ce:	1c 87       	std	Y+12, r17	; 0x0c
    26d0:	0b 87       	std	Y+11, r16	; 0x0b
		while(__ticks)
		{
			// wait 1/10 ms
			_delay_loop_2(((F_CPU) / 4e3) / 10);
			__ticks --;
    26d2:	89 85       	ldd	r24, Y+9	; 0x09
    26d4:	9a 85       	ldd	r25, Y+10	; 0x0a
    26d6:	01 97       	sbiw	r24, 0x01	; 1
    26d8:	9a 87       	std	Y+10, r25	; 0x0a
    26da:	89 87       	std	Y+9, r24	; 0x09
		__ticks = 1;
	else if (__tmp > 65535)
	{
		//	__ticks = requested delay in 1/10 ms
		__ticks = (uint16_t) (__ms * 10.0);
		while(__ticks)
    26dc:	89 85       	ldd	r24, Y+9	; 0x09
    26de:	9a 85       	ldd	r25, Y+10	; 0x0a
    26e0:	00 97       	sbiw	r24, 0x00	; 0
    26e2:	51 f7       	brne	.-44     	; 0x26b8 <Init_LCD+0xb2>
    26e4:	17 c0       	rjmp	.+46     	; 0x2714 <Init_LCD+0x10e>
			__ticks --;
		}
		return;
	}
	else
		__ticks = (uint16_t)__tmp;
    26e6:	6d 81       	ldd	r22, Y+5	; 0x05
    26e8:	7e 81       	ldd	r23, Y+6	; 0x06
    26ea:	8f 81       	ldd	r24, Y+7	; 0x07
    26ec:	98 85       	ldd	r25, Y+8	; 0x08
    26ee:	0e 94 48 34 	call	0x6890	; 0x6890 <__fixunssfsi>
    26f2:	dc 01       	movw	r26, r24
    26f4:	cb 01       	movw	r24, r22
    26f6:	9a 87       	std	Y+10, r25	; 0x0a
    26f8:	89 87       	std	Y+9, r24	; 0x09
    26fa:	89 85       	ldd	r24, Y+9	; 0x09
    26fc:	9a 85       	ldd	r25, Y+10	; 0x0a
    26fe:	9e 87       	std	Y+14, r25	; 0x0e
    2700:	8d 87       	std	Y+13, r24	; 0x0d
    2702:	8d 85       	ldd	r24, Y+13	; 0x0d
    2704:	9e 85       	ldd	r25, Y+14	; 0x0e
    2706:	8c 01       	movw	r16, r24
    2708:	c8 01       	movw	r24, r16
    270a:	01 97       	sbiw	r24, 0x01	; 1
    270c:	f1 f7       	brne	.-4      	; 0x270a <Init_LCD+0x104>
    270e:	8c 01       	movw	r16, r24
    2710:	1e 87       	std	Y+14, r17	; 0x0e
    2712:	0d 87       	std	Y+13, r16	; 0x0d
	_delay_ms(2); // FUNCTION SET
	writeCTRL((1<<LCD_ON_CTRL) | (1<<LCD_ON_DISPLAY) | (0<<LCD_ON_CURSOR) | (0<<LCD_ON_BLINK));
    2714:	8c e0       	ldi	r24, 0x0C	; 12
    2716:	0e 94 2a 02 	call	0x454	; 0x454 <writeCTRL>
    271a:	80 e0       	ldi	r24, 0x00	; 0
    271c:	90 e0       	ldi	r25, 0x00	; 0
    271e:	a0 e0       	ldi	r26, 0x00	; 0
    2720:	b0 e4       	ldi	r27, 0x40	; 64
    2722:	8f 87       	std	Y+15, r24	; 0x0f
    2724:	98 8b       	std	Y+16, r25	; 0x10
    2726:	a9 8b       	std	Y+17, r26	; 0x11
    2728:	ba 8b       	std	Y+18, r27	; 0x12
	#endif

	__builtin_avr_delay_cycles(__ticks_dc);

#else
	__tmp = ((F_CPU) / 4e3) * __ms;
    272a:	20 e0       	ldi	r18, 0x00	; 0
    272c:	30 e0       	ldi	r19, 0x00	; 0
    272e:	4a e7       	ldi	r20, 0x7A	; 122
    2730:	55 e4       	ldi	r21, 0x45	; 69
    2732:	6f 85       	ldd	r22, Y+15	; 0x0f
    2734:	78 89       	ldd	r23, Y+16	; 0x10
    2736:	89 89       	ldd	r24, Y+17	; 0x11
    2738:	9a 89       	ldd	r25, Y+18	; 0x12
    273a:	0e 94 2d 36 	call	0x6c5a	; 0x6c5a <__mulsf3>
    273e:	dc 01       	movw	r26, r24
    2740:	cb 01       	movw	r24, r22
    2742:	8b 8b       	std	Y+19, r24	; 0x13
    2744:	9c 8b       	std	Y+20, r25	; 0x14
    2746:	ad 8b       	std	Y+21, r26	; 0x15
    2748:	be 8b       	std	Y+22, r27	; 0x16
	if (__tmp < 1.0)
    274a:	20 e0       	ldi	r18, 0x00	; 0
    274c:	30 e0       	ldi	r19, 0x00	; 0
    274e:	40 e8       	ldi	r20, 0x80	; 128
    2750:	5f e3       	ldi	r21, 0x3F	; 63
    2752:	6b 89       	ldd	r22, Y+19	; 0x13
    2754:	7c 89       	ldd	r23, Y+20	; 0x14
    2756:	8d 89       	ldd	r24, Y+21	; 0x15
    2758:	9e 89       	ldd	r25, Y+22	; 0x16
    275a:	0e 94 13 38 	call	0x7026	; 0x7026 <__ltsf2>
    275e:	88 23       	and	r24, r24
    2760:	2c f4       	brge	.+10     	; 0x276c <Init_LCD+0x166>
		__ticks = 1;
    2762:	81 e0       	ldi	r24, 0x01	; 1
    2764:	90 e0       	ldi	r25, 0x00	; 0
    2766:	98 8f       	std	Y+24, r25	; 0x18
    2768:	8f 8b       	std	Y+23, r24	; 0x17
    276a:	42 c0       	rjmp	.+132    	; 0x27f0 <Init_LCD+0x1ea>
	else if (__tmp > 65535)
    276c:	20 e0       	ldi	r18, 0x00	; 0
    276e:	3f ef       	ldi	r19, 0xFF	; 255
    2770:	4f e7       	ldi	r20, 0x7F	; 127
    2772:	57 e4       	ldi	r21, 0x47	; 71
    2774:	6b 89       	ldd	r22, Y+19	; 0x13
    2776:	7c 89       	ldd	r23, Y+20	; 0x14
    2778:	8d 89       	ldd	r24, Y+21	; 0x15
    277a:	9e 89       	ldd	r25, Y+22	; 0x16
    277c:	0e 94 b5 37 	call	0x6f6a	; 0x6f6a <__gtsf2>
    2780:	18 16       	cp	r1, r24
    2782:	64 f5       	brge	.+88     	; 0x27dc <Init_LCD+0x1d6>
	{
		//	__ticks = requested delay in 1/10 ms
		__ticks = (uint16_t) (__ms * 10.0);
    2784:	20 e0       	ldi	r18, 0x00	; 0
    2786:	30 e0       	ldi	r19, 0x00	; 0
    2788:	40 e2       	ldi	r20, 0x20	; 32
    278a:	51 e4       	ldi	r21, 0x41	; 65
    278c:	6f 85       	ldd	r22, Y+15	; 0x0f
    278e:	78 89       	ldd	r23, Y+16	; 0x10
    2790:	89 89       	ldd	r24, Y+17	; 0x11
    2792:	9a 89       	ldd	r25, Y+18	; 0x12
    2794:	0e 94 2d 36 	call	0x6c5a	; 0x6c5a <__mulsf3>
    2798:	dc 01       	movw	r26, r24
    279a:	cb 01       	movw	r24, r22
    279c:	bc 01       	movw	r22, r24
    279e:	cd 01       	movw	r24, r26
    27a0:	0e 94 48 34 	call	0x6890	; 0x6890 <__fixunssfsi>
    27a4:	dc 01       	movw	r26, r24
    27a6:	cb 01       	movw	r24, r22
    27a8:	98 8f       	std	Y+24, r25	; 0x18
    27aa:	8f 8b       	std	Y+23, r24	; 0x17
    27ac:	12 c0       	rjmp	.+36     	; 0x27d2 <Init_LCD+0x1cc>
    27ae:	80 e9       	ldi	r24, 0x90	; 144
    27b0:	91 e0       	ldi	r25, 0x01	; 1
    27b2:	9a 8f       	std	Y+26, r25	; 0x1a
    27b4:	89 8f       	std	Y+25, r24	; 0x19
    27b6:	89 8d       	ldd	r24, Y+25	; 0x19
    27b8:	9a 8d       	ldd	r25, Y+26	; 0x1a
    27ba:	8c 01       	movw	r16, r24
    27bc:	c8 01       	movw	r24, r16
    27be:	01 97       	sbiw	r24, 0x01	; 1
    27c0:	f1 f7       	brne	.-4      	; 0x27be <Init_LCD+0x1b8>
    27c2:	8c 01       	movw	r16, r24
    27c4:	1a 8f       	std	Y+26, r17	; 0x1a
    27c6:	09 8f       	std	Y+25, r16	; 0x19
		while(__ticks)
		{
			// wait 1/10 ms
			_delay_loop_2(((F_CPU) / 4e3) / 10);
			__ticks --;
    27c8:	8f 89       	ldd	r24, Y+23	; 0x17
    27ca:	98 8d       	ldd	r25, Y+24	; 0x18
    27cc:	01 97       	sbiw	r24, 0x01	; 1
    27ce:	98 8f       	std	Y+24, r25	; 0x18
    27d0:	8f 8b       	std	Y+23, r24	; 0x17
		__ticks = 1;
	else if (__tmp > 65535)
	{
		//	__ticks = requested delay in 1/10 ms
		__ticks = (uint16_t) (__ms * 10.0);
		while(__ticks)
    27d2:	8f 89       	ldd	r24, Y+23	; 0x17
    27d4:	98 8d       	ldd	r25, Y+24	; 0x18
    27d6:	00 97       	sbiw	r24, 0x00	; 0
    27d8:	51 f7       	brne	.-44     	; 0x27ae <Init_LCD+0x1a8>
    27da:	17 c0       	rjmp	.+46     	; 0x280a <Init_LCD+0x204>
			__ticks --;
		}
		return;
	}
	else
		__ticks = (uint16_t)__tmp;
    27dc:	6b 89       	ldd	r22, Y+19	; 0x13
    27de:	7c 89       	ldd	r23, Y+20	; 0x14
    27e0:	8d 89       	ldd	r24, Y+21	; 0x15
    27e2:	9e 89       	ldd	r25, Y+22	; 0x16
    27e4:	0e 94 48 34 	call	0x6890	; 0x6890 <__fixunssfsi>
    27e8:	dc 01       	movw	r26, r24
    27ea:	cb 01       	movw	r24, r22
    27ec:	98 8f       	std	Y+24, r25	; 0x18
    27ee:	8f 8b       	std	Y+23, r24	; 0x17
    27f0:	8f 89       	ldd	r24, Y+23	; 0x17
    27f2:	98 8d       	ldd	r25, Y+24	; 0x18
    27f4:	9c 8f       	std	Y+28, r25	; 0x1c
    27f6:	8b 8f       	std	Y+27, r24	; 0x1b
    27f8:	8b 8d       	ldd	r24, Y+27	; 0x1b
    27fa:	9c 8d       	ldd	r25, Y+28	; 0x1c
    27fc:	8c 01       	movw	r16, r24
    27fe:	c8 01       	movw	r24, r16
    2800:	01 97       	sbiw	r24, 0x01	; 1
    2802:	f1 f7       	brne	.-4      	; 0x2800 <Init_LCD+0x1fa>
    2804:	8c 01       	movw	r16, r24
    2806:	1c 8f       	std	Y+28, r17	; 0x1c
    2808:	0b 8f       	std	Y+27, r16	; 0x1b
	_delay_ms(2); // DISPLAY ON/OFF CONTROL
	writeCTRL(1<<LCD_CLR);
    280a:	81 e0       	ldi	r24, 0x01	; 1
    280c:	0e 94 2a 02 	call	0x454	; 0x454 <writeCTRL>
    2810:	80 e0       	ldi	r24, 0x00	; 0
    2812:	90 e0       	ldi	r25, 0x00	; 0
    2814:	a0 e0       	ldi	r26, 0x00	; 0
    2816:	b0 e4       	ldi	r27, 0x40	; 64
    2818:	8d 8f       	std	Y+29, r24	; 0x1d
    281a:	9e 8f       	std	Y+30, r25	; 0x1e
    281c:	af 8f       	std	Y+31, r26	; 0x1f
    281e:	b8 a3       	std	Y+32, r27	; 0x20
	#endif

	__builtin_avr_delay_cycles(__ticks_dc);

#else
	__tmp = ((F_CPU) / 4e3) * __ms;
    2820:	20 e0       	ldi	r18, 0x00	; 0
    2822:	30 e0       	ldi	r19, 0x00	; 0
    2824:	4a e7       	ldi	r20, 0x7A	; 122
    2826:	55 e4       	ldi	r21, 0x45	; 69
    2828:	6d 8d       	ldd	r22, Y+29	; 0x1d
    282a:	7e 8d       	ldd	r23, Y+30	; 0x1e
    282c:	8f 8d       	ldd	r24, Y+31	; 0x1f
    282e:	98 a1       	ldd	r25, Y+32	; 0x20
    2830:	0e 94 2d 36 	call	0x6c5a	; 0x6c5a <__mulsf3>
    2834:	dc 01       	movw	r26, r24
    2836:	cb 01       	movw	r24, r22
    2838:	89 a3       	std	Y+33, r24	; 0x21
    283a:	9a a3       	std	Y+34, r25	; 0x22
    283c:	ab a3       	std	Y+35, r26	; 0x23
    283e:	bc a3       	std	Y+36, r27	; 0x24
	if (__tmp < 1.0)
    2840:	20 e0       	ldi	r18, 0x00	; 0
    2842:	30 e0       	ldi	r19, 0x00	; 0
    2844:	40 e8       	ldi	r20, 0x80	; 128
    2846:	5f e3       	ldi	r21, 0x3F	; 63
    2848:	69 a1       	ldd	r22, Y+33	; 0x21
    284a:	7a a1       	ldd	r23, Y+34	; 0x22
    284c:	8b a1       	ldd	r24, Y+35	; 0x23
    284e:	9c a1       	ldd	r25, Y+36	; 0x24
    2850:	0e 94 13 38 	call	0x7026	; 0x7026 <__ltsf2>
    2854:	88 23       	and	r24, r24
    2856:	2c f4       	brge	.+10     	; 0x2862 <Init_LCD+0x25c>
		__ticks = 1;
    2858:	81 e0       	ldi	r24, 0x01	; 1
    285a:	90 e0       	ldi	r25, 0x00	; 0
    285c:	9e a3       	std	Y+38, r25	; 0x26
    285e:	8d a3       	std	Y+37, r24	; 0x25
    2860:	42 c0       	rjmp	.+132    	; 0x28e6 <Init_LCD+0x2e0>
	else if (__tmp > 65535)
    2862:	20 e0       	ldi	r18, 0x00	; 0
    2864:	3f ef       	ldi	r19, 0xFF	; 255
    2866:	4f e7       	ldi	r20, 0x7F	; 127
    2868:	57 e4       	ldi	r21, 0x47	; 71
    286a:	69 a1       	ldd	r22, Y+33	; 0x21
    286c:	7a a1       	ldd	r23, Y+34	; 0x22
    286e:	8b a1       	ldd	r24, Y+35	; 0x23
    2870:	9c a1       	ldd	r25, Y+36	; 0x24
    2872:	0e 94 b5 37 	call	0x6f6a	; 0x6f6a <__gtsf2>
    2876:	18 16       	cp	r1, r24
    2878:	64 f5       	brge	.+88     	; 0x28d2 <Init_LCD+0x2cc>
	{
		//	__ticks = requested delay in 1/10 ms
		__ticks = (uint16_t) (__ms * 10.0);
    287a:	20 e0       	ldi	r18, 0x00	; 0
    287c:	30 e0       	ldi	r19, 0x00	; 0
    287e:	40 e2       	ldi	r20, 0x20	; 32
    2880:	51 e4       	ldi	r21, 0x41	; 65
    2882:	6d 8d       	ldd	r22, Y+29	; 0x1d
    2884:	7e 8d       	ldd	r23, Y+30	; 0x1e
    2886:	8f 8d       	ldd	r24, Y+31	; 0x1f
    2888:	98 a1       	ldd	r25, Y+32	; 0x20
    288a:	0e 94 2d 36 	call	0x6c5a	; 0x6c5a <__mulsf3>
    288e:	dc 01       	movw	r26, r24
    2890:	cb 01       	movw	r24, r22
    2892:	bc 01       	movw	r22, r24
    2894:	cd 01       	movw	r24, r26
    2896:	0e 94 48 34 	call	0x6890	; 0x6890 <__fixunssfsi>
    289a:	dc 01       	movw	r26, r24
    289c:	cb 01       	movw	r24, r22
    289e:	9e a3       	std	Y+38, r25	; 0x26
    28a0:	8d a3       	std	Y+37, r24	; 0x25
    28a2:	12 c0       	rjmp	.+36     	; 0x28c8 <Init_LCD+0x2c2>
    28a4:	80 e9       	ldi	r24, 0x90	; 144
    28a6:	91 e0       	ldi	r25, 0x01	; 1
    28a8:	98 a7       	std	Y+40, r25	; 0x28
    28aa:	8f a3       	std	Y+39, r24	; 0x27
    28ac:	8f a1       	ldd	r24, Y+39	; 0x27
    28ae:	98 a5       	ldd	r25, Y+40	; 0x28
    28b0:	8c 01       	movw	r16, r24
    28b2:	c8 01       	movw	r24, r16
    28b4:	01 97       	sbiw	r24, 0x01	; 1
    28b6:	f1 f7       	brne	.-4      	; 0x28b4 <Init_LCD+0x2ae>
    28b8:	8c 01       	movw	r16, r24
    28ba:	18 a7       	std	Y+40, r17	; 0x28
    28bc:	0f a3       	std	Y+39, r16	; 0x27
		while(__ticks)
		{
			// wait 1/10 ms
			_delay_loop_2(((F_CPU) / 4e3) / 10);
			__ticks --;
    28be:	8d a1       	ldd	r24, Y+37	; 0x25
    28c0:	9e a1       	ldd	r25, Y+38	; 0x26
    28c2:	01 97       	sbiw	r24, 0x01	; 1
    28c4:	9e a3       	std	Y+38, r25	; 0x26
    28c6:	8d a3       	std	Y+37, r24	; 0x25
		__ticks = 1;
	else if (__tmp > 65535)
	{
		//	__ticks = requested delay in 1/10 ms
		__ticks = (uint16_t) (__ms * 10.0);
		while(__ticks)
    28c8:	8d a1       	ldd	r24, Y+37	; 0x25
    28ca:	9e a1       	ldd	r25, Y+38	; 0x26
    28cc:	00 97       	sbiw	r24, 0x00	; 0
    28ce:	51 f7       	brne	.-44     	; 0x28a4 <Init_LCD+0x29e>
    28d0:	17 c0       	rjmp	.+46     	; 0x2900 <Init_LCD+0x2fa>
			__ticks --;
		}
		return;
	}
	else
		__ticks = (uint16_t)__tmp;
    28d2:	69 a1       	ldd	r22, Y+33	; 0x21
    28d4:	7a a1       	ldd	r23, Y+34	; 0x22
    28d6:	8b a1       	ldd	r24, Y+35	; 0x23
    28d8:	9c a1       	ldd	r25, Y+36	; 0x24
    28da:	0e 94 48 34 	call	0x6890	; 0x6890 <__fixunssfsi>
    28de:	dc 01       	movw	r26, r24
    28e0:	cb 01       	movw	r24, r22
    28e2:	9e a3       	std	Y+38, r25	; 0x26
    28e4:	8d a3       	std	Y+37, r24	; 0x25
    28e6:	8d a1       	ldd	r24, Y+37	; 0x25
    28e8:	9e a1       	ldd	r25, Y+38	; 0x26
    28ea:	9a a7       	std	Y+42, r25	; 0x2a
    28ec:	89 a7       	std	Y+41, r24	; 0x29
    28ee:	89 a5       	ldd	r24, Y+41	; 0x29
    28f0:	9a a5       	ldd	r25, Y+42	; 0x2a
    28f2:	8c 01       	movw	r16, r24
    28f4:	c8 01       	movw	r24, r16
    28f6:	01 97       	sbiw	r24, 0x01	; 1
    28f8:	f1 f7       	brne	.-4      	; 0x28f6 <Init_LCD+0x2f0>
    28fa:	8c 01       	movw	r16, r24
    28fc:	1a a7       	std	Y+42, r17	; 0x2a
    28fe:	09 a7       	std	Y+41, r16	; 0x29
	_delay_ms(2); // CLEAR DISPLAY
	writeCTRL((1<<LCD_ENTRY_MODE) | (1<<LCD_ENTRY_INC) | (0<<LCD_ENTRY_SHIFT));
    2900:	86 e0       	ldi	r24, 0x06	; 6
    2902:	0e 94 2a 02 	call	0x454	; 0x454 <writeCTRL>
    2906:	80 e0       	ldi	r24, 0x00	; 0
    2908:	90 e0       	ldi	r25, 0x00	; 0
    290a:	a0 e0       	ldi	r26, 0x00	; 0
    290c:	b0 e4       	ldi	r27, 0x40	; 64
    290e:	8b a7       	std	Y+43, r24	; 0x2b
    2910:	9c a7       	std	Y+44, r25	; 0x2c
    2912:	ad a7       	std	Y+45, r26	; 0x2d
    2914:	be a7       	std	Y+46, r27	; 0x2e
	#endif

	__builtin_avr_delay_cycles(__ticks_dc);

#else
	__tmp = ((F_CPU) / 4e3) * __ms;
    2916:	20 e0       	ldi	r18, 0x00	; 0
    2918:	30 e0       	ldi	r19, 0x00	; 0
    291a:	4a e7       	ldi	r20, 0x7A	; 122
    291c:	55 e4       	ldi	r21, 0x45	; 69
    291e:	6b a5       	ldd	r22, Y+43	; 0x2b
    2920:	7c a5       	ldd	r23, Y+44	; 0x2c
    2922:	8d a5       	ldd	r24, Y+45	; 0x2d
    2924:	9e a5       	ldd	r25, Y+46	; 0x2e
    2926:	0e 94 2d 36 	call	0x6c5a	; 0x6c5a <__mulsf3>
    292a:	dc 01       	movw	r26, r24
    292c:	cb 01       	movw	r24, r22
    292e:	8f a7       	std	Y+47, r24	; 0x2f
    2930:	98 ab       	std	Y+48, r25	; 0x30
    2932:	a9 ab       	std	Y+49, r26	; 0x31
    2934:	ba ab       	std	Y+50, r27	; 0x32
	if (__tmp < 1.0)
    2936:	20 e0       	ldi	r18, 0x00	; 0
    2938:	30 e0       	ldi	r19, 0x00	; 0
    293a:	40 e8       	ldi	r20, 0x80	; 128
    293c:	5f e3       	ldi	r21, 0x3F	; 63
    293e:	6f a5       	ldd	r22, Y+47	; 0x2f
    2940:	78 a9       	ldd	r23, Y+48	; 0x30
    2942:	89 a9       	ldd	r24, Y+49	; 0x31
    2944:	9a a9       	ldd	r25, Y+50	; 0x32
    2946:	0e 94 13 38 	call	0x7026	; 0x7026 <__ltsf2>
    294a:	88 23       	and	r24, r24
    294c:	2c f4       	brge	.+10     	; 0x2958 <Init_LCD+0x352>
		__ticks = 1;
    294e:	81 e0       	ldi	r24, 0x01	; 1
    2950:	90 e0       	ldi	r25, 0x00	; 0
    2952:	9c ab       	std	Y+52, r25	; 0x34
    2954:	8b ab       	std	Y+51, r24	; 0x33
    2956:	42 c0       	rjmp	.+132    	; 0x29dc <Init_LCD+0x3d6>
	else if (__tmp > 65535)
    2958:	20 e0       	ldi	r18, 0x00	; 0
    295a:	3f ef       	ldi	r19, 0xFF	; 255
    295c:	4f e7       	ldi	r20, 0x7F	; 127
    295e:	57 e4       	ldi	r21, 0x47	; 71
    2960:	6f a5       	ldd	r22, Y+47	; 0x2f
    2962:	78 a9       	ldd	r23, Y+48	; 0x30
    2964:	89 a9       	ldd	r24, Y+49	; 0x31
    2966:	9a a9       	ldd	r25, Y+50	; 0x32
    2968:	0e 94 b5 37 	call	0x6f6a	; 0x6f6a <__gtsf2>
    296c:	18 16       	cp	r1, r24
    296e:	64 f5       	brge	.+88     	; 0x29c8 <Init_LCD+0x3c2>
	{
		//	__ticks = requested delay in 1/10 ms
		__ticks = (uint16_t) (__ms * 10.0);
    2970:	20 e0       	ldi	r18, 0x00	; 0
    2972:	30 e0       	ldi	r19, 0x00	; 0
    2974:	40 e2       	ldi	r20, 0x20	; 32
    2976:	51 e4       	ldi	r21, 0x41	; 65
    2978:	6b a5       	ldd	r22, Y+43	; 0x2b
    297a:	7c a5       	ldd	r23, Y+44	; 0x2c
    297c:	8d a5       	ldd	r24, Y+45	; 0x2d
    297e:	9e a5       	ldd	r25, Y+46	; 0x2e
    2980:	0e 94 2d 36 	call	0x6c5a	; 0x6c5a <__mulsf3>
    2984:	dc 01       	movw	r26, r24
    2986:	cb 01       	movw	r24, r22
    2988:	bc 01       	movw	r22, r24
    298a:	cd 01       	movw	r24, r26
    298c:	0e 94 48 34 	call	0x6890	; 0x6890 <__fixunssfsi>
    2990:	dc 01       	movw	r26, r24
    2992:	cb 01       	movw	r24, r22
    2994:	9c ab       	std	Y+52, r25	; 0x34
    2996:	8b ab       	std	Y+51, r24	; 0x33
    2998:	12 c0       	rjmp	.+36     	; 0x29be <Init_LCD+0x3b8>
    299a:	80 e9       	ldi	r24, 0x90	; 144
    299c:	91 e0       	ldi	r25, 0x01	; 1
    299e:	9e ab       	std	Y+54, r25	; 0x36
    29a0:	8d ab       	std	Y+53, r24	; 0x35
    29a2:	8d a9       	ldd	r24, Y+53	; 0x35
    29a4:	9e a9       	ldd	r25, Y+54	; 0x36
    29a6:	8c 01       	movw	r16, r24
    29a8:	c8 01       	movw	r24, r16
    29aa:	01 97       	sbiw	r24, 0x01	; 1
    29ac:	f1 f7       	brne	.-4      	; 0x29aa <Init_LCD+0x3a4>
    29ae:	8c 01       	movw	r16, r24
    29b0:	1e ab       	std	Y+54, r17	; 0x36
    29b2:	0d ab       	std	Y+53, r16	; 0x35
		while(__ticks)
		{
			// wait 1/10 ms
			_delay_loop_2(((F_CPU) / 4e3) / 10);
			__ticks --;
    29b4:	8b a9       	ldd	r24, Y+51	; 0x33
    29b6:	9c a9       	ldd	r25, Y+52	; 0x34
    29b8:	01 97       	sbiw	r24, 0x01	; 1
    29ba:	9c ab       	std	Y+52, r25	; 0x34
    29bc:	8b ab       	std	Y+51, r24	; 0x33
		__ticks = 1;
	else if (__tmp > 65535)
	{
		//	__ticks = requested delay in 1/10 ms
		__ticks = (uint16_t) (__ms * 10.0);
		while(__ticks)
    29be:	8b a9       	ldd	r24, Y+51	; 0x33
    29c0:	9c a9       	ldd	r25, Y+52	; 0x34
    29c2:	00 97       	sbiw	r24, 0x00	; 0
    29c4:	51 f7       	brne	.-44     	; 0x299a <Init_LCD+0x394>
    29c6:	17 c0       	rjmp	.+46     	; 0x29f6 <Init_LCD+0x3f0>
			__ticks --;
		}
		return;
	}
	else
		__ticks = (uint16_t)__tmp;
    29c8:	6f a5       	ldd	r22, Y+47	; 0x2f
    29ca:	78 a9       	ldd	r23, Y+48	; 0x30
    29cc:	89 a9       	ldd	r24, Y+49	; 0x31
    29ce:	9a a9       	ldd	r25, Y+50	; 0x32
    29d0:	0e 94 48 34 	call	0x6890	; 0x6890 <__fixunssfsi>
    29d4:	dc 01       	movw	r26, r24
    29d6:	cb 01       	movw	r24, r22
    29d8:	9c ab       	std	Y+52, r25	; 0x34
    29da:	8b ab       	std	Y+51, r24	; 0x33
    29dc:	8b a9       	ldd	r24, Y+51	; 0x33
    29de:	9c a9       	ldd	r25, Y+52	; 0x34
    29e0:	98 af       	std	Y+56, r25	; 0x38
    29e2:	8f ab       	std	Y+55, r24	; 0x37
    29e4:	8f a9       	ldd	r24, Y+55	; 0x37
    29e6:	98 ad       	ldd	r25, Y+56	; 0x38
    29e8:	8c 01       	movw	r16, r24
    29ea:	c8 01       	movw	r24, r16
    29ec:	01 97       	sbiw	r24, 0x01	; 1
    29ee:	f1 f7       	brne	.-4      	; 0x29ec <Init_LCD+0x3e6>
    29f0:	8c 01       	movw	r16, r24
    29f2:	18 af       	std	Y+56, r17	; 0x38
    29f4:	0f ab       	std	Y+55, r16	; 0x37
	_delay_ms(2); // ENTRY MODE SET
}
    29f6:	e8 96       	adiw	r28, 0x38	; 56
    29f8:	0f b6       	in	r0, 0x3f	; 63
    29fa:	f8 94       	cli
    29fc:	de bf       	out	0x3e, r29	; 62
    29fe:	0f be       	out	0x3f, r0	; 63
    2a00:	cd bf       	out	0x3d, r28	; 61
    2a02:	df 91       	pop	r29
    2a04:	cf 91       	pop	r28
    2a06:	1f 91       	pop	r17
    2a08:	0f 91       	pop	r16
    2a0a:	08 95       	ret

00002a0c <Init_UART>:
#define BAUD_RATE 9600
#define BAUD_RATE_L (CPU_CLOCK / (16L * BAUD_RATE)) - 1
#define BAUD_RATE_H ((CPU_CLOCK / (16L * BAUD_RATE)) - 1) >> 8

void Init_UART()
{
    2a0c:	cf 93       	push	r28
    2a0e:	df 93       	push	r29
    2a10:	cd b7       	in	r28, 0x3d	; 61
    2a12:	de b7       	in	r29, 0x3e	; 62
	UBRR0L = (unsigned char)BAUD_RATE_L;
    2a14:	89 e2       	ldi	r24, 0x29	; 41
    2a16:	90 e0       	ldi	r25, 0x00	; 0
    2a18:	27 e6       	ldi	r18, 0x67	; 103
    2a1a:	fc 01       	movw	r30, r24
    2a1c:	20 83       	st	Z, r18
	UBRR0H = (unsigned char)BAUD_RATE_H;
    2a1e:	80 e9       	ldi	r24, 0x90	; 144
    2a20:	90 e0       	ldi	r25, 0x00	; 0
    2a22:	fc 01       	movw	r30, r24
    2a24:	10 82       	st	Z, r1

	UCSR0B = (1 << RXCIE0) | (1 << TXEN0) | (1 << RXEN0) | (0 << UCSZ02);
    2a26:	8a e2       	ldi	r24, 0x2A	; 42
    2a28:	90 e0       	ldi	r25, 0x00	; 0
    2a2a:	28 e9       	ldi	r18, 0x98	; 152
    2a2c:	fc 01       	movw	r30, r24
    2a2e:	20 83       	st	Z, r18
	UCSR0C = (0 << UPM01) | (0 << UPM00) | (0 << USBS0) | (1 << UCSZ01) | (1 << UCSZ00);
    2a30:	85 e9       	ldi	r24, 0x95	; 149
    2a32:	90 e0       	ldi	r25, 0x00	; 0
    2a34:	26 e0       	ldi	r18, 0x06	; 6
    2a36:	fc 01       	movw	r30, r24
    2a38:	20 83       	st	Z, r18
}
    2a3a:	df 91       	pop	r29
    2a3c:	cf 91       	pop	r28
    2a3e:	08 95       	ret

00002a40 <usart_send_byte>:

//문자 전송 보내기 
void usart_send_byte(unsigned char byte)
{
    2a40:	cf 93       	push	r28
    2a42:	df 93       	push	r29
    2a44:	1f 92       	push	r1
    2a46:	cd b7       	in	r28, 0x3d	; 61
    2a48:	de b7       	in	r29, 0x3e	; 62
    2a4a:	89 83       	std	Y+1, r24	; 0x01
	while (!(UCSR0A & (1 << UDRE0)));
    2a4c:	00 00       	nop
    2a4e:	8b e2       	ldi	r24, 0x2B	; 43
    2a50:	90 e0       	ldi	r25, 0x00	; 0
    2a52:	fc 01       	movw	r30, r24
    2a54:	80 81       	ld	r24, Z
    2a56:	88 2f       	mov	r24, r24
    2a58:	90 e0       	ldi	r25, 0x00	; 0
    2a5a:	80 72       	andi	r24, 0x20	; 32
    2a5c:	99 27       	eor	r25, r25
    2a5e:	00 97       	sbiw	r24, 0x00	; 0
    2a60:	b1 f3       	breq	.-20     	; 0x2a4e <usart_send_byte+0xe>
	UDR0 = byte;
    2a62:	8c e2       	ldi	r24, 0x2C	; 44
    2a64:	90 e0       	ldi	r25, 0x00	; 0
    2a66:	29 81       	ldd	r18, Y+1	; 0x01
    2a68:	fc 01       	movw	r30, r24
    2a6a:	20 83       	st	Z, r18
}
    2a6c:	0f 90       	pop	r0
    2a6e:	df 91       	pop	r29
    2a70:	cf 91       	pop	r28
    2a72:	08 95       	ret

00002a74 <usart_send_string>:

//문자열 전송 보내기
void usart_send_string(unsigned char *str, unsigned char len)
{
    2a74:	cf 93       	push	r28
    2a76:	df 93       	push	r29
    2a78:	00 d0       	rcall	.+0      	; 0x2a7a <usart_send_string+0x6>
    2a7a:	00 d0       	rcall	.+0      	; 0x2a7c <usart_send_string+0x8>
    2a7c:	1f 92       	push	r1
    2a7e:	cd b7       	in	r28, 0x3d	; 61
    2a80:	de b7       	in	r29, 0x3e	; 62
    2a82:	9c 83       	std	Y+4, r25	; 0x04
    2a84:	8b 83       	std	Y+3, r24	; 0x03
    2a86:	6d 83       	std	Y+5, r22	; 0x05
	int i;
	for (i = 0; i < len; i++)
    2a88:	1a 82       	std	Y+2, r1	; 0x02
    2a8a:	19 82       	std	Y+1, r1	; 0x01
    2a8c:	19 c0       	rjmp	.+50     	; 0x2ac0 <usart_send_string+0x4c>
	{
		if (!(*(str + i)))
    2a8e:	89 81       	ldd	r24, Y+1	; 0x01
    2a90:	9a 81       	ldd	r25, Y+2	; 0x02
    2a92:	2b 81       	ldd	r18, Y+3	; 0x03
    2a94:	3c 81       	ldd	r19, Y+4	; 0x04
    2a96:	82 0f       	add	r24, r18
    2a98:	93 1f       	adc	r25, r19
    2a9a:	fc 01       	movw	r30, r24
    2a9c:	80 81       	ld	r24, Z
    2a9e:	88 23       	and	r24, r24
    2aa0:	c1 f0       	breq	.+48     	; 0x2ad2 <usart_send_string+0x5e>
		{
			break;
		}
		usart_send_byte(*(str + i));
    2aa2:	89 81       	ldd	r24, Y+1	; 0x01
    2aa4:	9a 81       	ldd	r25, Y+2	; 0x02
    2aa6:	2b 81       	ldd	r18, Y+3	; 0x03
    2aa8:	3c 81       	ldd	r19, Y+4	; 0x04
    2aaa:	82 0f       	add	r24, r18
    2aac:	93 1f       	adc	r25, r19
    2aae:	fc 01       	movw	r30, r24
    2ab0:	80 81       	ld	r24, Z
    2ab2:	0e 94 20 15 	call	0x2a40	; 0x2a40 <usart_send_byte>

//문자열 전송 보내기
void usart_send_string(unsigned char *str, unsigned char len)
{
	int i;
	for (i = 0; i < len; i++)
    2ab6:	89 81       	ldd	r24, Y+1	; 0x01
    2ab8:	9a 81       	ldd	r25, Y+2	; 0x02
    2aba:	01 96       	adiw	r24, 0x01	; 1
    2abc:	9a 83       	std	Y+2, r25	; 0x02
    2abe:	89 83       	std	Y+1, r24	; 0x01
    2ac0:	8d 81       	ldd	r24, Y+5	; 0x05
    2ac2:	28 2f       	mov	r18, r24
    2ac4:	30 e0       	ldi	r19, 0x00	; 0
    2ac6:	89 81       	ldd	r24, Y+1	; 0x01
    2ac8:	9a 81       	ldd	r25, Y+2	; 0x02
    2aca:	82 17       	cp	r24, r18
    2acc:	93 07       	cpc	r25, r19
    2ace:	fc f2       	brlt	.-66     	; 0x2a8e <usart_send_string+0x1a>
    2ad0:	01 c0       	rjmp	.+2      	; 0x2ad4 <usart_send_string+0x60>
	{
		if (!(*(str + i)))
		{
			break;
    2ad2:	00 00       	nop
		}
		usart_send_byte(*(str + i));
	}
}
    2ad4:	0f 90       	pop	r0
    2ad6:	0f 90       	pop	r0
    2ad8:	0f 90       	pop	r0
    2ada:	0f 90       	pop	r0
    2adc:	0f 90       	pop	r0
    2ade:	df 91       	pop	r29
    2ae0:	cf 91       	pop	r28
    2ae2:	08 95       	ret

00002ae4 <usart_recv_byte>:

//문자 전송 받기
unsigned char usart_recv_byte(void)
{
    2ae4:	cf 93       	push	r28
    2ae6:	df 93       	push	r29
    2ae8:	cd b7       	in	r28, 0x3d	; 61
    2aea:	de b7       	in	r29, 0x3e	; 62
	while (!(UCSR0A & (1 << RXC0)));
    2aec:	00 00       	nop
    2aee:	8b e2       	ldi	r24, 0x2B	; 43
    2af0:	90 e0       	ldi	r25, 0x00	; 0
    2af2:	fc 01       	movw	r30, r24
    2af4:	80 81       	ld	r24, Z
    2af6:	88 23       	and	r24, r24
    2af8:	d4 f7       	brge	.-12     	; 0x2aee <usart_recv_byte+0xa>
	return UDR0;
    2afa:	8c e2       	ldi	r24, 0x2C	; 44
    2afc:	90 e0       	ldi	r25, 0x00	; 0
    2afe:	fc 01       	movw	r30, r24
    2b00:	80 81       	ld	r24, Z
}
    2b02:	df 91       	pop	r29
    2b04:	cf 91       	pop	r28
    2b06:	08 95       	ret

00002b08 <TX0_CHAR>:

//
void TX0_CHAR(char ch)
{ 
    2b08:	cf 93       	push	r28
    2b0a:	df 93       	push	r29
    2b0c:	1f 92       	push	r1
    2b0e:	cd b7       	in	r28, 0x3d	; 61
    2b10:	de b7       	in	r29, 0x3e	; 62
    2b12:	89 83       	std	Y+1, r24	; 0x01
	while(!(UCSR0A&0x20)); UDR0=ch; 
    2b14:	00 00       	nop
    2b16:	8b e2       	ldi	r24, 0x2B	; 43
    2b18:	90 e0       	ldi	r25, 0x00	; 0
    2b1a:	fc 01       	movw	r30, r24
    2b1c:	80 81       	ld	r24, Z
    2b1e:	88 2f       	mov	r24, r24
    2b20:	90 e0       	ldi	r25, 0x00	; 0
    2b22:	80 72       	andi	r24, 0x20	; 32
    2b24:	99 27       	eor	r25, r25
    2b26:	00 97       	sbiw	r24, 0x00	; 0
    2b28:	b1 f3       	breq	.-20     	; 0x2b16 <TX0_CHAR+0xe>
    2b2a:	8c e2       	ldi	r24, 0x2C	; 44
    2b2c:	90 e0       	ldi	r25, 0x00	; 0
    2b2e:	29 81       	ldd	r18, Y+1	; 0x01
    2b30:	fc 01       	movw	r30, r24
    2b32:	20 83       	st	Z, r18
}
    2b34:	0f 90       	pop	r0
    2b36:	df 91       	pop	r29
    2b38:	cf 91       	pop	r28
    2b3a:	08 95       	ret

00002b3c <TX0_STR>:
void TX0_STR(char *s)
{ 
    2b3c:	cf 93       	push	r28
    2b3e:	df 93       	push	r29
    2b40:	00 d0       	rcall	.+0      	; 0x2b42 <TX0_STR+0x6>
    2b42:	cd b7       	in	r28, 0x3d	; 61
    2b44:	de b7       	in	r29, 0x3e	; 62
    2b46:	9a 83       	std	Y+2, r25	; 0x02
    2b48:	89 83       	std	Y+1, r24	; 0x01
	while(*s)TX0_CHAR(*s++); 
    2b4a:	0c c0       	rjmp	.+24     	; 0x2b64 <TX0_STR+0x28>
    2b4c:	89 81       	ldd	r24, Y+1	; 0x01
    2b4e:	9a 81       	ldd	r25, Y+2	; 0x02
    2b50:	fc 01       	movw	r30, r24
    2b52:	20 81       	ld	r18, Z
    2b54:	89 81       	ldd	r24, Y+1	; 0x01
    2b56:	9a 81       	ldd	r25, Y+2	; 0x02
    2b58:	01 96       	adiw	r24, 0x01	; 1
    2b5a:	9a 83       	std	Y+2, r25	; 0x02
    2b5c:	89 83       	std	Y+1, r24	; 0x01
    2b5e:	82 2f       	mov	r24, r18
    2b60:	0e 94 84 15 	call	0x2b08	; 0x2b08 <TX0_CHAR>
    2b64:	89 81       	ldd	r24, Y+1	; 0x01
    2b66:	9a 81       	ldd	r25, Y+2	; 0x02
    2b68:	fc 01       	movw	r30, r24
    2b6a:	80 81       	ld	r24, Z
    2b6c:	88 23       	and	r24, r24
    2b6e:	71 f7       	brne	.-36     	; 0x2b4c <TX0_STR+0x10>
}
    2b70:	0f 90       	pop	r0
    2b72:	0f 90       	pop	r0
    2b74:	df 91       	pop	r29
    2b76:	cf 91       	pop	r28
    2b78:	08 95       	ret

00002b7a <usart0_rx_isr>:
//

//interrupt [USART0_RXC] 
void usart0_rx_isr(void) //수신 인터럽트
{ 
    2b7a:	cf 93       	push	r28
    2b7c:	df 93       	push	r29
    2b7e:	1f 92       	push	r1
    2b80:	cd b7       	in	r28, 0x3d	; 61
    2b82:	de b7       	in	r29, 0x3e	; 62
  char ch;
  ch=UDR0;
    2b84:	8c e2       	ldi	r24, 0x2C	; 44
    2b86:	90 e0       	ldi	r25, 0x00	; 0
    2b88:	fc 01       	movw	r30, r24
    2b8a:	80 81       	ld	r24, Z
    2b8c:	89 83       	std	Y+1, r24	; 0x01
}
    2b8e:	0f 90       	pop	r0
    2b90:	df 91       	pop	r29
    2b92:	cf 91       	pop	r28
    2b94:	08 95       	ret

00002b96 <s_write_byte>:

unsigned char error;
unsigned char checksum;

char s_write_byte(unsigned  char  value)
{
    2b96:	0f 93       	push	r16
    2b98:	1f 93       	push	r17
    2b9a:	cf 93       	push	r28
    2b9c:	df 93       	push	r29
    2b9e:	cd b7       	in	r28, 0x3d	; 61
    2ba0:	de b7       	in	r29, 0x3e	; 62
    2ba2:	c1 5a       	subi	r28, 0xA1	; 161
    2ba4:	d1 09       	sbc	r29, r1
    2ba6:	0f b6       	in	r0, 0x3f	; 63
    2ba8:	f8 94       	cli
    2baa:	de bf       	out	0x3e, r29	; 62
    2bac:	0f be       	out	0x3f, r0	; 63
    2bae:	cd bf       	out	0x3d, r28	; 61
    2bb0:	9e 01       	movw	r18, r28
    2bb2:	2f 55       	subi	r18, 0x5F	; 95
    2bb4:	3f 4f       	sbci	r19, 0xFF	; 255
    2bb6:	f9 01       	movw	r30, r18
    2bb8:	80 83       	st	Z, r24
	unsigned char  i, error=0;
    2bba:	1a 82       	std	Y+2, r1	; 0x02

	DATAOUT; 
    2bbc:	81 e6       	ldi	r24, 0x61	; 97
    2bbe:	90 e0       	ldi	r25, 0x00	; 0
    2bc0:	21 e6       	ldi	r18, 0x61	; 97
    2bc2:	30 e0       	ldi	r19, 0x00	; 0
    2bc4:	f9 01       	movw	r30, r18
    2bc6:	20 81       	ld	r18, Z
    2bc8:	21 60       	ori	r18, 0x01	; 1
    2bca:	fc 01       	movw	r30, r24
    2bcc:	20 83       	st	Z, r18
	SHTOUT;
    2bce:	81 e6       	ldi	r24, 0x61	; 97
    2bd0:	90 e0       	ldi	r25, 0x00	; 0
    2bd2:	21 e6       	ldi	r18, 0x61	; 97
    2bd4:	30 e0       	ldi	r19, 0x00	; 0
    2bd6:	f9 01       	movw	r30, r18
    2bd8:	20 81       	ld	r18, Z
    2bda:	22 60       	ori	r18, 0x02	; 2
    2bdc:	fc 01       	movw	r30, r24
    2bde:	20 83       	st	Z, r18

	for (i=0x80; i>0; i>>=1)
    2be0:	80 e8       	ldi	r24, 0x80	; 128
    2be2:	89 83       	std	Y+1, r24	; 0x01
    2be4:	d2 c2       	rjmp	.+1444   	; 0x318a <s_write_byte+0x5f4>
	{ 	if (i & value)
    2be6:	ce 01       	movw	r24, r28
    2be8:	8f 55       	subi	r24, 0x5F	; 95
    2bea:	9f 4f       	sbci	r25, 0xFF	; 255
    2bec:	29 81       	ldd	r18, Y+1	; 0x01
    2bee:	fc 01       	movw	r30, r24
    2bf0:	80 81       	ld	r24, Z
    2bf2:	82 23       	and	r24, r18
    2bf4:	88 23       	and	r24, r24
    2bf6:	51 f0       	breq	.+20     	; 0x2c0c <s_write_byte+0x76>
			DATA_OUT_1; 
    2bf8:	82 e6       	ldi	r24, 0x62	; 98
    2bfa:	90 e0       	ldi	r25, 0x00	; 0
    2bfc:	22 e6       	ldi	r18, 0x62	; 98
    2bfe:	30 e0       	ldi	r19, 0x00	; 0
    2c00:	f9 01       	movw	r30, r18
    2c02:	20 81       	ld	r18, Z
    2c04:	21 60       	ori	r18, 0x01	; 1
    2c06:	fc 01       	movw	r30, r24
    2c08:	20 83       	st	Z, r18
    2c0a:	09 c0       	rjmp	.+18     	; 0x2c1e <s_write_byte+0x88>
		else 
			DATA_OUT_0;
    2c0c:	82 e6       	ldi	r24, 0x62	; 98
    2c0e:	90 e0       	ldi	r25, 0x00	; 0
    2c10:	22 e6       	ldi	r18, 0x62	; 98
    2c12:	30 e0       	ldi	r19, 0x00	; 0
    2c14:	f9 01       	movw	r30, r18
    2c16:	20 81       	ld	r18, Z
    2c18:	2e 7f       	andi	r18, 0xFE	; 254
    2c1a:	fc 01       	movw	r30, r24
    2c1c:	20 83       	st	Z, r18
    2c1e:	80 e0       	ldi	r24, 0x00	; 0
    2c20:	90 e0       	ldi	r25, 0x00	; 0
    2c22:	a0 e4       	ldi	r26, 0x40	; 64
    2c24:	b0 e4       	ldi	r27, 0x40	; 64
    2c26:	8b 83       	std	Y+3, r24	; 0x03
    2c28:	9c 83       	std	Y+4, r25	; 0x04
    2c2a:	ad 83       	std	Y+5, r26	; 0x05
    2c2c:	be 83       	std	Y+6, r27	; 0x06
	#endif

	__builtin_avr_delay_cycles(__ticks_dc);

#else
	__tmp = ((F_CPU) / 3e6) * __us;
    2c2e:	2b ea       	ldi	r18, 0xAB	; 171
    2c30:	3a ea       	ldi	r19, 0xAA	; 170
    2c32:	4a ea       	ldi	r20, 0xAA	; 170
    2c34:	50 e4       	ldi	r21, 0x40	; 64
    2c36:	6b 81       	ldd	r22, Y+3	; 0x03
    2c38:	7c 81       	ldd	r23, Y+4	; 0x04
    2c3a:	8d 81       	ldd	r24, Y+5	; 0x05
    2c3c:	9e 81       	ldd	r25, Y+6	; 0x06
    2c3e:	0e 94 2d 36 	call	0x6c5a	; 0x6c5a <__mulsf3>
    2c42:	dc 01       	movw	r26, r24
    2c44:	cb 01       	movw	r24, r22
    2c46:	8f 83       	std	Y+7, r24	; 0x07
    2c48:	98 87       	std	Y+8, r25	; 0x08
    2c4a:	a9 87       	std	Y+9, r26	; 0x09
    2c4c:	ba 87       	std	Y+10, r27	; 0x0a
	if (__tmp < 1.0)
    2c4e:	20 e0       	ldi	r18, 0x00	; 0
    2c50:	30 e0       	ldi	r19, 0x00	; 0
    2c52:	40 e8       	ldi	r20, 0x80	; 128
    2c54:	5f e3       	ldi	r21, 0x3F	; 63
    2c56:	6f 81       	ldd	r22, Y+7	; 0x07
    2c58:	78 85       	ldd	r23, Y+8	; 0x08
    2c5a:	89 85       	ldd	r24, Y+9	; 0x09
    2c5c:	9a 85       	ldd	r25, Y+10	; 0x0a
    2c5e:	0e 94 13 38 	call	0x7026	; 0x7026 <__ltsf2>
    2c62:	88 23       	and	r24, r24
    2c64:	1c f4       	brge	.+6      	; 0x2c6c <s_write_byte+0xd6>
		__ticks = 1;
    2c66:	81 e0       	ldi	r24, 0x01	; 1
    2c68:	8b 87       	std	Y+11, r24	; 0x0b
    2c6a:	97 c0       	rjmp	.+302    	; 0x2d9a <s_write_byte+0x204>
	else if (__tmp > 255)
    2c6c:	20 e0       	ldi	r18, 0x00	; 0
    2c6e:	30 e0       	ldi	r19, 0x00	; 0
    2c70:	4f e7       	ldi	r20, 0x7F	; 127
    2c72:	53 e4       	ldi	r21, 0x43	; 67
    2c74:	6f 81       	ldd	r22, Y+7	; 0x07
    2c76:	78 85       	ldd	r23, Y+8	; 0x08
    2c78:	89 85       	ldd	r24, Y+9	; 0x09
    2c7a:	9a 85       	ldd	r25, Y+10	; 0x0a
    2c7c:	0e 94 b5 37 	call	0x6f6a	; 0x6f6a <__gtsf2>
    2c80:	18 16       	cp	r1, r24
    2c82:	0c f0       	brlt	.+2      	; 0x2c86 <s_write_byte+0xf0>
    2c84:	81 c0       	rjmp	.+258    	; 0x2d88 <s_write_byte+0x1f2>
	{
		_delay_ms(__us / 1000.0);
    2c86:	20 e0       	ldi	r18, 0x00	; 0
    2c88:	30 e0       	ldi	r19, 0x00	; 0
    2c8a:	4a e7       	ldi	r20, 0x7A	; 122
    2c8c:	54 e4       	ldi	r21, 0x44	; 68
    2c8e:	6b 81       	ldd	r22, Y+3	; 0x03
    2c90:	7c 81       	ldd	r23, Y+4	; 0x04
    2c92:	8d 81       	ldd	r24, Y+5	; 0x05
    2c94:	9e 81       	ldd	r25, Y+6	; 0x06
    2c96:	0e 94 12 37 	call	0x6e24	; 0x6e24 <__divsf3>
    2c9a:	dc 01       	movw	r26, r24
    2c9c:	cb 01       	movw	r24, r22
    2c9e:	8c 87       	std	Y+12, r24	; 0x0c
    2ca0:	9d 87       	std	Y+13, r25	; 0x0d
    2ca2:	ae 87       	std	Y+14, r26	; 0x0e
    2ca4:	bf 87       	std	Y+15, r27	; 0x0f
	#endif

	__builtin_avr_delay_cycles(__ticks_dc);

#else
	__tmp = ((F_CPU) / 4e3) * __ms;
    2ca6:	20 e0       	ldi	r18, 0x00	; 0
    2ca8:	30 e0       	ldi	r19, 0x00	; 0
    2caa:	4a e7       	ldi	r20, 0x7A	; 122
    2cac:	55 e4       	ldi	r21, 0x45	; 69
    2cae:	6c 85       	ldd	r22, Y+12	; 0x0c
    2cb0:	7d 85       	ldd	r23, Y+13	; 0x0d
    2cb2:	8e 85       	ldd	r24, Y+14	; 0x0e
    2cb4:	9f 85       	ldd	r25, Y+15	; 0x0f
    2cb6:	0e 94 2d 36 	call	0x6c5a	; 0x6c5a <__mulsf3>
    2cba:	dc 01       	movw	r26, r24
    2cbc:	cb 01       	movw	r24, r22
    2cbe:	88 8b       	std	Y+16, r24	; 0x10
    2cc0:	99 8b       	std	Y+17, r25	; 0x11
    2cc2:	aa 8b       	std	Y+18, r26	; 0x12
    2cc4:	bb 8b       	std	Y+19, r27	; 0x13
	if (__tmp < 1.0)
    2cc6:	20 e0       	ldi	r18, 0x00	; 0
    2cc8:	30 e0       	ldi	r19, 0x00	; 0
    2cca:	40 e8       	ldi	r20, 0x80	; 128
    2ccc:	5f e3       	ldi	r21, 0x3F	; 63
    2cce:	68 89       	ldd	r22, Y+16	; 0x10
    2cd0:	79 89       	ldd	r23, Y+17	; 0x11
    2cd2:	8a 89       	ldd	r24, Y+18	; 0x12
    2cd4:	9b 89       	ldd	r25, Y+19	; 0x13
    2cd6:	0e 94 13 38 	call	0x7026	; 0x7026 <__ltsf2>
    2cda:	88 23       	and	r24, r24
    2cdc:	2c f4       	brge	.+10     	; 0x2ce8 <s_write_byte+0x152>
		__ticks = 1;
    2cde:	81 e0       	ldi	r24, 0x01	; 1
    2ce0:	90 e0       	ldi	r25, 0x00	; 0
    2ce2:	9d 8b       	std	Y+21, r25	; 0x15
    2ce4:	8c 8b       	std	Y+20, r24	; 0x14
    2ce6:	42 c0       	rjmp	.+132    	; 0x2d6c <s_write_byte+0x1d6>
	else if (__tmp > 65535)
    2ce8:	20 e0       	ldi	r18, 0x00	; 0
    2cea:	3f ef       	ldi	r19, 0xFF	; 255
    2cec:	4f e7       	ldi	r20, 0x7F	; 127
    2cee:	57 e4       	ldi	r21, 0x47	; 71
    2cf0:	68 89       	ldd	r22, Y+16	; 0x10
    2cf2:	79 89       	ldd	r23, Y+17	; 0x11
    2cf4:	8a 89       	ldd	r24, Y+18	; 0x12
    2cf6:	9b 89       	ldd	r25, Y+19	; 0x13
    2cf8:	0e 94 b5 37 	call	0x6f6a	; 0x6f6a <__gtsf2>
    2cfc:	18 16       	cp	r1, r24
    2cfe:	64 f5       	brge	.+88     	; 0x2d58 <s_write_byte+0x1c2>
	{
		//	__ticks = requested delay in 1/10 ms
		__ticks = (uint16_t) (__ms * 10.0);
    2d00:	20 e0       	ldi	r18, 0x00	; 0
    2d02:	30 e0       	ldi	r19, 0x00	; 0
    2d04:	40 e2       	ldi	r20, 0x20	; 32
    2d06:	51 e4       	ldi	r21, 0x41	; 65
    2d08:	6c 85       	ldd	r22, Y+12	; 0x0c
    2d0a:	7d 85       	ldd	r23, Y+13	; 0x0d
    2d0c:	8e 85       	ldd	r24, Y+14	; 0x0e
    2d0e:	9f 85       	ldd	r25, Y+15	; 0x0f
    2d10:	0e 94 2d 36 	call	0x6c5a	; 0x6c5a <__mulsf3>
    2d14:	dc 01       	movw	r26, r24
    2d16:	cb 01       	movw	r24, r22
    2d18:	bc 01       	movw	r22, r24
    2d1a:	cd 01       	movw	r24, r26
    2d1c:	0e 94 48 34 	call	0x6890	; 0x6890 <__fixunssfsi>
    2d20:	dc 01       	movw	r26, r24
    2d22:	cb 01       	movw	r24, r22
    2d24:	9d 8b       	std	Y+21, r25	; 0x15
    2d26:	8c 8b       	std	Y+20, r24	; 0x14
    2d28:	12 c0       	rjmp	.+36     	; 0x2d4e <s_write_byte+0x1b8>
    2d2a:	80 e9       	ldi	r24, 0x90	; 144
    2d2c:	91 e0       	ldi	r25, 0x01	; 1
    2d2e:	9f 8b       	std	Y+23, r25	; 0x17
    2d30:	8e 8b       	std	Y+22, r24	; 0x16
    2d32:	8e 89       	ldd	r24, Y+22	; 0x16
    2d34:	9f 89       	ldd	r25, Y+23	; 0x17
    2d36:	8c 01       	movw	r16, r24
    2d38:	c8 01       	movw	r24, r16
    2d3a:	01 97       	sbiw	r24, 0x01	; 1
    2d3c:	f1 f7       	brne	.-4      	; 0x2d3a <s_write_byte+0x1a4>
    2d3e:	8c 01       	movw	r16, r24
    2d40:	1f 8b       	std	Y+23, r17	; 0x17
    2d42:	0e 8b       	std	Y+22, r16	; 0x16
		while(__ticks)
		{
			// wait 1/10 ms
			_delay_loop_2(((F_CPU) / 4e3) / 10);
			__ticks --;
    2d44:	8c 89       	ldd	r24, Y+20	; 0x14
    2d46:	9d 89       	ldd	r25, Y+21	; 0x15
    2d48:	01 97       	sbiw	r24, 0x01	; 1
    2d4a:	9d 8b       	std	Y+21, r25	; 0x15
    2d4c:	8c 8b       	std	Y+20, r24	; 0x14
		__ticks = 1;
	else if (__tmp > 65535)
	{
		//	__ticks = requested delay in 1/10 ms
		__ticks = (uint16_t) (__ms * 10.0);
		while(__ticks)
    2d4e:	8c 89       	ldd	r24, Y+20	; 0x14
    2d50:	9d 89       	ldd	r25, Y+21	; 0x15
    2d52:	00 97       	sbiw	r24, 0x00	; 0
    2d54:	51 f7       	brne	.-44     	; 0x2d2a <s_write_byte+0x194>
    2d56:	28 c0       	rjmp	.+80     	; 0x2da8 <s_write_byte+0x212>
			__ticks --;
		}
		return;
	}
	else
		__ticks = (uint16_t)__tmp;
    2d58:	68 89       	ldd	r22, Y+16	; 0x10
    2d5a:	79 89       	ldd	r23, Y+17	; 0x11
    2d5c:	8a 89       	ldd	r24, Y+18	; 0x12
    2d5e:	9b 89       	ldd	r25, Y+19	; 0x13
    2d60:	0e 94 48 34 	call	0x6890	; 0x6890 <__fixunssfsi>
    2d64:	dc 01       	movw	r26, r24
    2d66:	cb 01       	movw	r24, r22
    2d68:	9d 8b       	std	Y+21, r25	; 0x15
    2d6a:	8c 8b       	std	Y+20, r24	; 0x14
    2d6c:	8c 89       	ldd	r24, Y+20	; 0x14
    2d6e:	9d 89       	ldd	r25, Y+21	; 0x15
    2d70:	99 8f       	std	Y+25, r25	; 0x19
    2d72:	88 8f       	std	Y+24, r24	; 0x18
    2d74:	88 8d       	ldd	r24, Y+24	; 0x18
    2d76:	99 8d       	ldd	r25, Y+25	; 0x19
    2d78:	8c 01       	movw	r16, r24
    2d7a:	f8 01       	movw	r30, r16
    2d7c:	31 97       	sbiw	r30, 0x01	; 1
    2d7e:	f1 f7       	brne	.-4      	; 0x2d7c <s_write_byte+0x1e6>
    2d80:	8f 01       	movw	r16, r30
    2d82:	19 8f       	std	Y+25, r17	; 0x19
    2d84:	08 8f       	std	Y+24, r16	; 0x18
    2d86:	10 c0       	rjmp	.+32     	; 0x2da8 <s_write_byte+0x212>
	{
		_delay_ms(__us / 1000.0);
		return;
	}
	else
		__ticks = (uint8_t)__tmp;
    2d88:	6f 81       	ldd	r22, Y+7	; 0x07
    2d8a:	78 85       	ldd	r23, Y+8	; 0x08
    2d8c:	89 85       	ldd	r24, Y+9	; 0x09
    2d8e:	9a 85       	ldd	r25, Y+10	; 0x0a
    2d90:	0e 94 48 34 	call	0x6890	; 0x6890 <__fixunssfsi>
    2d94:	dc 01       	movw	r26, r24
    2d96:	cb 01       	movw	r24, r22
    2d98:	8b 87       	std	Y+11, r24	; 0x0b
    2d9a:	8b 85       	ldd	r24, Y+11	; 0x0b
    2d9c:	8a 8f       	std	Y+26, r24	; 0x1a
    can be achieved.
*/
void
_delay_loop_1(uint8_t __count)
{
	__asm__ volatile (
    2d9e:	8a 8d       	ldd	r24, Y+26	; 0x1a
    2da0:	18 2f       	mov	r17, r24
    2da2:	1a 95       	dec	r17
    2da4:	f1 f7       	brne	.-4      	; 0x2da2 <s_write_byte+0x20c>
    2da6:	1a 8f       	std	Y+26, r17	; 0x1a
		_delay_us(3); 

		SHT_SCK_1; 
    2da8:	82 e6       	ldi	r24, 0x62	; 98
    2daa:	90 e0       	ldi	r25, 0x00	; 0
    2dac:	22 e6       	ldi	r18, 0x62	; 98
    2dae:	30 e0       	ldi	r19, 0x00	; 0
    2db0:	f9 01       	movw	r30, r18
    2db2:	20 81       	ld	r18, Z
    2db4:	22 60       	ori	r18, 0x02	; 2
    2db6:	fc 01       	movw	r30, r24
    2db8:	20 83       	st	Z, r18
    2dba:	80 e0       	ldi	r24, 0x00	; 0
    2dbc:	90 e0       	ldi	r25, 0x00	; 0
    2dbe:	a0 ec       	ldi	r26, 0xC0	; 192
    2dc0:	b0 e4       	ldi	r27, 0x40	; 64
    2dc2:	8b 8f       	std	Y+27, r24	; 0x1b
    2dc4:	9c 8f       	std	Y+28, r25	; 0x1c
    2dc6:	ad 8f       	std	Y+29, r26	; 0x1d
    2dc8:	be 8f       	std	Y+30, r27	; 0x1e
	#endif

	__builtin_avr_delay_cycles(__ticks_dc);

#else
	__tmp = ((F_CPU) / 3e6) * __us;
    2dca:	2b ea       	ldi	r18, 0xAB	; 171
    2dcc:	3a ea       	ldi	r19, 0xAA	; 170
    2dce:	4a ea       	ldi	r20, 0xAA	; 170
    2dd0:	50 e4       	ldi	r21, 0x40	; 64
    2dd2:	6b 8d       	ldd	r22, Y+27	; 0x1b
    2dd4:	7c 8d       	ldd	r23, Y+28	; 0x1c
    2dd6:	8d 8d       	ldd	r24, Y+29	; 0x1d
    2dd8:	9e 8d       	ldd	r25, Y+30	; 0x1e
    2dda:	0e 94 2d 36 	call	0x6c5a	; 0x6c5a <__mulsf3>
    2dde:	dc 01       	movw	r26, r24
    2de0:	cb 01       	movw	r24, r22
    2de2:	8f 8f       	std	Y+31, r24	; 0x1f
    2de4:	98 a3       	std	Y+32, r25	; 0x20
    2de6:	a9 a3       	std	Y+33, r26	; 0x21
    2de8:	ba a3       	std	Y+34, r27	; 0x22
	if (__tmp < 1.0)
    2dea:	20 e0       	ldi	r18, 0x00	; 0
    2dec:	30 e0       	ldi	r19, 0x00	; 0
    2dee:	40 e8       	ldi	r20, 0x80	; 128
    2df0:	5f e3       	ldi	r21, 0x3F	; 63
    2df2:	6f 8d       	ldd	r22, Y+31	; 0x1f
    2df4:	78 a1       	ldd	r23, Y+32	; 0x20
    2df6:	89 a1       	ldd	r24, Y+33	; 0x21
    2df8:	9a a1       	ldd	r25, Y+34	; 0x22
    2dfa:	0e 94 13 38 	call	0x7026	; 0x7026 <__ltsf2>
    2dfe:	88 23       	and	r24, r24
    2e00:	1c f4       	brge	.+6      	; 0x2e08 <s_write_byte+0x272>
		__ticks = 1;
    2e02:	81 e0       	ldi	r24, 0x01	; 1
    2e04:	8b a3       	std	Y+35, r24	; 0x23
    2e06:	97 c0       	rjmp	.+302    	; 0x2f36 <s_write_byte+0x3a0>
	else if (__tmp > 255)
    2e08:	20 e0       	ldi	r18, 0x00	; 0
    2e0a:	30 e0       	ldi	r19, 0x00	; 0
    2e0c:	4f e7       	ldi	r20, 0x7F	; 127
    2e0e:	53 e4       	ldi	r21, 0x43	; 67
    2e10:	6f 8d       	ldd	r22, Y+31	; 0x1f
    2e12:	78 a1       	ldd	r23, Y+32	; 0x20
    2e14:	89 a1       	ldd	r24, Y+33	; 0x21
    2e16:	9a a1       	ldd	r25, Y+34	; 0x22
    2e18:	0e 94 b5 37 	call	0x6f6a	; 0x6f6a <__gtsf2>
    2e1c:	18 16       	cp	r1, r24
    2e1e:	0c f0       	brlt	.+2      	; 0x2e22 <s_write_byte+0x28c>
    2e20:	81 c0       	rjmp	.+258    	; 0x2f24 <s_write_byte+0x38e>
	{
		_delay_ms(__us / 1000.0);
    2e22:	20 e0       	ldi	r18, 0x00	; 0
    2e24:	30 e0       	ldi	r19, 0x00	; 0
    2e26:	4a e7       	ldi	r20, 0x7A	; 122
    2e28:	54 e4       	ldi	r21, 0x44	; 68
    2e2a:	6b 8d       	ldd	r22, Y+27	; 0x1b
    2e2c:	7c 8d       	ldd	r23, Y+28	; 0x1c
    2e2e:	8d 8d       	ldd	r24, Y+29	; 0x1d
    2e30:	9e 8d       	ldd	r25, Y+30	; 0x1e
    2e32:	0e 94 12 37 	call	0x6e24	; 0x6e24 <__divsf3>
    2e36:	dc 01       	movw	r26, r24
    2e38:	cb 01       	movw	r24, r22
    2e3a:	8c a3       	std	Y+36, r24	; 0x24
    2e3c:	9d a3       	std	Y+37, r25	; 0x25
    2e3e:	ae a3       	std	Y+38, r26	; 0x26
    2e40:	bf a3       	std	Y+39, r27	; 0x27
	#endif

	__builtin_avr_delay_cycles(__ticks_dc);

#else
	__tmp = ((F_CPU) / 4e3) * __ms;
    2e42:	20 e0       	ldi	r18, 0x00	; 0
    2e44:	30 e0       	ldi	r19, 0x00	; 0
    2e46:	4a e7       	ldi	r20, 0x7A	; 122
    2e48:	55 e4       	ldi	r21, 0x45	; 69
    2e4a:	6c a1       	ldd	r22, Y+36	; 0x24
    2e4c:	7d a1       	ldd	r23, Y+37	; 0x25
    2e4e:	8e a1       	ldd	r24, Y+38	; 0x26
    2e50:	9f a1       	ldd	r25, Y+39	; 0x27
    2e52:	0e 94 2d 36 	call	0x6c5a	; 0x6c5a <__mulsf3>
    2e56:	dc 01       	movw	r26, r24
    2e58:	cb 01       	movw	r24, r22
    2e5a:	88 a7       	std	Y+40, r24	; 0x28
    2e5c:	99 a7       	std	Y+41, r25	; 0x29
    2e5e:	aa a7       	std	Y+42, r26	; 0x2a
    2e60:	bb a7       	std	Y+43, r27	; 0x2b
	if (__tmp < 1.0)
    2e62:	20 e0       	ldi	r18, 0x00	; 0
    2e64:	30 e0       	ldi	r19, 0x00	; 0
    2e66:	40 e8       	ldi	r20, 0x80	; 128
    2e68:	5f e3       	ldi	r21, 0x3F	; 63
    2e6a:	68 a5       	ldd	r22, Y+40	; 0x28
    2e6c:	79 a5       	ldd	r23, Y+41	; 0x29
    2e6e:	8a a5       	ldd	r24, Y+42	; 0x2a
    2e70:	9b a5       	ldd	r25, Y+43	; 0x2b
    2e72:	0e 94 13 38 	call	0x7026	; 0x7026 <__ltsf2>
    2e76:	88 23       	and	r24, r24
    2e78:	2c f4       	brge	.+10     	; 0x2e84 <s_write_byte+0x2ee>
		__ticks = 1;
    2e7a:	81 e0       	ldi	r24, 0x01	; 1
    2e7c:	90 e0       	ldi	r25, 0x00	; 0
    2e7e:	9d a7       	std	Y+45, r25	; 0x2d
    2e80:	8c a7       	std	Y+44, r24	; 0x2c
    2e82:	42 c0       	rjmp	.+132    	; 0x2f08 <s_write_byte+0x372>
	else if (__tmp > 65535)
    2e84:	20 e0       	ldi	r18, 0x00	; 0
    2e86:	3f ef       	ldi	r19, 0xFF	; 255
    2e88:	4f e7       	ldi	r20, 0x7F	; 127
    2e8a:	57 e4       	ldi	r21, 0x47	; 71
    2e8c:	68 a5       	ldd	r22, Y+40	; 0x28
    2e8e:	79 a5       	ldd	r23, Y+41	; 0x29
    2e90:	8a a5       	ldd	r24, Y+42	; 0x2a
    2e92:	9b a5       	ldd	r25, Y+43	; 0x2b
    2e94:	0e 94 b5 37 	call	0x6f6a	; 0x6f6a <__gtsf2>
    2e98:	18 16       	cp	r1, r24
    2e9a:	64 f5       	brge	.+88     	; 0x2ef4 <s_write_byte+0x35e>
	{
		//	__ticks = requested delay in 1/10 ms
		__ticks = (uint16_t) (__ms * 10.0);
    2e9c:	20 e0       	ldi	r18, 0x00	; 0
    2e9e:	30 e0       	ldi	r19, 0x00	; 0
    2ea0:	40 e2       	ldi	r20, 0x20	; 32
    2ea2:	51 e4       	ldi	r21, 0x41	; 65
    2ea4:	6c a1       	ldd	r22, Y+36	; 0x24
    2ea6:	7d a1       	ldd	r23, Y+37	; 0x25
    2ea8:	8e a1       	ldd	r24, Y+38	; 0x26
    2eaa:	9f a1       	ldd	r25, Y+39	; 0x27
    2eac:	0e 94 2d 36 	call	0x6c5a	; 0x6c5a <__mulsf3>
    2eb0:	dc 01       	movw	r26, r24
    2eb2:	cb 01       	movw	r24, r22
    2eb4:	bc 01       	movw	r22, r24
    2eb6:	cd 01       	movw	r24, r26
    2eb8:	0e 94 48 34 	call	0x6890	; 0x6890 <__fixunssfsi>
    2ebc:	dc 01       	movw	r26, r24
    2ebe:	cb 01       	movw	r24, r22
    2ec0:	9d a7       	std	Y+45, r25	; 0x2d
    2ec2:	8c a7       	std	Y+44, r24	; 0x2c
    2ec4:	12 c0       	rjmp	.+36     	; 0x2eea <s_write_byte+0x354>
    2ec6:	80 e9       	ldi	r24, 0x90	; 144
    2ec8:	91 e0       	ldi	r25, 0x01	; 1
    2eca:	9f a7       	std	Y+47, r25	; 0x2f
    2ecc:	8e a7       	std	Y+46, r24	; 0x2e
    milliseconds can be achieved.
 */
void
_delay_loop_2(uint16_t __count)
{
	__asm__ volatile (
    2ece:	8e a5       	ldd	r24, Y+46	; 0x2e
    2ed0:	9f a5       	ldd	r25, Y+47	; 0x2f
    2ed2:	8c 01       	movw	r16, r24
    2ed4:	c8 01       	movw	r24, r16
    2ed6:	01 97       	sbiw	r24, 0x01	; 1
    2ed8:	f1 f7       	brne	.-4      	; 0x2ed6 <s_write_byte+0x340>
    2eda:	8c 01       	movw	r16, r24
    2edc:	1f a7       	std	Y+47, r17	; 0x2f
    2ede:	0e a7       	std	Y+46, r16	; 0x2e
		while(__ticks)
		{
			// wait 1/10 ms
			_delay_loop_2(((F_CPU) / 4e3) / 10);
			__ticks --;
    2ee0:	8c a5       	ldd	r24, Y+44	; 0x2c
    2ee2:	9d a5       	ldd	r25, Y+45	; 0x2d
    2ee4:	01 97       	sbiw	r24, 0x01	; 1
    2ee6:	9d a7       	std	Y+45, r25	; 0x2d
    2ee8:	8c a7       	std	Y+44, r24	; 0x2c
		__ticks = 1;
	else if (__tmp > 65535)
	{
		//	__ticks = requested delay in 1/10 ms
		__ticks = (uint16_t) (__ms * 10.0);
		while(__ticks)
    2eea:	8c a5       	ldd	r24, Y+44	; 0x2c
    2eec:	9d a5       	ldd	r25, Y+45	; 0x2d
    2eee:	00 97       	sbiw	r24, 0x00	; 0
    2ef0:	51 f7       	brne	.-44     	; 0x2ec6 <s_write_byte+0x330>
    2ef2:	28 c0       	rjmp	.+80     	; 0x2f44 <s_write_byte+0x3ae>
			__ticks --;
		}
		return;
	}
	else
		__ticks = (uint16_t)__tmp;
    2ef4:	68 a5       	ldd	r22, Y+40	; 0x28
    2ef6:	79 a5       	ldd	r23, Y+41	; 0x29
    2ef8:	8a a5       	ldd	r24, Y+42	; 0x2a
    2efa:	9b a5       	ldd	r25, Y+43	; 0x2b
    2efc:	0e 94 48 34 	call	0x6890	; 0x6890 <__fixunssfsi>
    2f00:	dc 01       	movw	r26, r24
    2f02:	cb 01       	movw	r24, r22
    2f04:	9d a7       	std	Y+45, r25	; 0x2d
    2f06:	8c a7       	std	Y+44, r24	; 0x2c
    2f08:	8c a5       	ldd	r24, Y+44	; 0x2c
    2f0a:	9d a5       	ldd	r25, Y+45	; 0x2d
    2f0c:	99 ab       	std	Y+49, r25	; 0x31
    2f0e:	88 ab       	std	Y+48, r24	; 0x30
    2f10:	88 a9       	ldd	r24, Y+48	; 0x30
    2f12:	99 a9       	ldd	r25, Y+49	; 0x31
    2f14:	8c 01       	movw	r16, r24
    2f16:	f8 01       	movw	r30, r16
    2f18:	31 97       	sbiw	r30, 0x01	; 1
    2f1a:	f1 f7       	brne	.-4      	; 0x2f18 <s_write_byte+0x382>
    2f1c:	8f 01       	movw	r16, r30
    2f1e:	19 ab       	std	Y+49, r17	; 0x31
    2f20:	08 ab       	std	Y+48, r16	; 0x30
    2f22:	10 c0       	rjmp	.+32     	; 0x2f44 <s_write_byte+0x3ae>
	{
		_delay_ms(__us / 1000.0);
		return;
	}
	else
		__ticks = (uint8_t)__tmp;
    2f24:	6f 8d       	ldd	r22, Y+31	; 0x1f
    2f26:	78 a1       	ldd	r23, Y+32	; 0x20
    2f28:	89 a1       	ldd	r24, Y+33	; 0x21
    2f2a:	9a a1       	ldd	r25, Y+34	; 0x22
    2f2c:	0e 94 48 34 	call	0x6890	; 0x6890 <__fixunssfsi>
    2f30:	dc 01       	movw	r26, r24
    2f32:	cb 01       	movw	r24, r22
    2f34:	8b a3       	std	Y+35, r24	; 0x23
    2f36:	8b a1       	ldd	r24, Y+35	; 0x23
    2f38:	8a ab       	std	Y+50, r24	; 0x32
    can be achieved.
*/
void
_delay_loop_1(uint8_t __count)
{
	__asm__ volatile (
    2f3a:	8a a9       	ldd	r24, Y+50	; 0x32
    2f3c:	18 2f       	mov	r17, r24
    2f3e:	1a 95       	dec	r17
    2f40:	f1 f7       	brne	.-4      	; 0x2f3e <s_write_byte+0x3a8>
    2f42:	1a ab       	std	Y+50, r17	; 0x32
		_delay_us(6); 

		SHT_SCK_0;
    2f44:	82 e6       	ldi	r24, 0x62	; 98
    2f46:	90 e0       	ldi	r25, 0x00	; 0
    2f48:	22 e6       	ldi	r18, 0x62	; 98
    2f4a:	30 e0       	ldi	r19, 0x00	; 0
    2f4c:	f9 01       	movw	r30, r18
    2f4e:	20 81       	ld	r18, Z
    2f50:	2d 7f       	andi	r18, 0xFD	; 253
    2f52:	fc 01       	movw	r30, r24
    2f54:	20 83       	st	Z, r18
    2f56:	80 e0       	ldi	r24, 0x00	; 0
    2f58:	90 e0       	ldi	r25, 0x00	; 0
    2f5a:	a0 e4       	ldi	r26, 0x40	; 64
    2f5c:	b0 e4       	ldi	r27, 0x40	; 64
    2f5e:	8b ab       	std	Y+51, r24	; 0x33
    2f60:	9c ab       	std	Y+52, r25	; 0x34
    2f62:	ad ab       	std	Y+53, r26	; 0x35
    2f64:	be ab       	std	Y+54, r27	; 0x36
	#endif

	__builtin_avr_delay_cycles(__ticks_dc);

#else
	__tmp = ((F_CPU) / 3e6) * __us;
    2f66:	2b ea       	ldi	r18, 0xAB	; 171
    2f68:	3a ea       	ldi	r19, 0xAA	; 170
    2f6a:	4a ea       	ldi	r20, 0xAA	; 170
    2f6c:	50 e4       	ldi	r21, 0x40	; 64
    2f6e:	6b a9       	ldd	r22, Y+51	; 0x33
    2f70:	7c a9       	ldd	r23, Y+52	; 0x34
    2f72:	8d a9       	ldd	r24, Y+53	; 0x35
    2f74:	9e a9       	ldd	r25, Y+54	; 0x36
    2f76:	0e 94 2d 36 	call	0x6c5a	; 0x6c5a <__mulsf3>
    2f7a:	dc 01       	movw	r26, r24
    2f7c:	cb 01       	movw	r24, r22
    2f7e:	8f ab       	std	Y+55, r24	; 0x37
    2f80:	98 af       	std	Y+56, r25	; 0x38
    2f82:	a9 af       	std	Y+57, r26	; 0x39
    2f84:	ba af       	std	Y+58, r27	; 0x3a
	if (__tmp < 1.0)
    2f86:	20 e0       	ldi	r18, 0x00	; 0
    2f88:	30 e0       	ldi	r19, 0x00	; 0
    2f8a:	40 e8       	ldi	r20, 0x80	; 128
    2f8c:	5f e3       	ldi	r21, 0x3F	; 63
    2f8e:	6f a9       	ldd	r22, Y+55	; 0x37
    2f90:	78 ad       	ldd	r23, Y+56	; 0x38
    2f92:	89 ad       	ldd	r24, Y+57	; 0x39
    2f94:	9a ad       	ldd	r25, Y+58	; 0x3a
    2f96:	0e 94 13 38 	call	0x7026	; 0x7026 <__ltsf2>
    2f9a:	88 23       	and	r24, r24
    2f9c:	1c f4       	brge	.+6      	; 0x2fa4 <s_write_byte+0x40e>
		__ticks = 1;
    2f9e:	81 e0       	ldi	r24, 0x01	; 1
    2fa0:	8b af       	std	Y+59, r24	; 0x3b
    2fa2:	dd c0       	rjmp	.+442    	; 0x315e <s_write_byte+0x5c8>
	else if (__tmp > 255)
    2fa4:	20 e0       	ldi	r18, 0x00	; 0
    2fa6:	30 e0       	ldi	r19, 0x00	; 0
    2fa8:	4f e7       	ldi	r20, 0x7F	; 127
    2faa:	53 e4       	ldi	r21, 0x43	; 67
    2fac:	6f a9       	ldd	r22, Y+55	; 0x37
    2fae:	78 ad       	ldd	r23, Y+56	; 0x38
    2fb0:	89 ad       	ldd	r24, Y+57	; 0x39
    2fb2:	9a ad       	ldd	r25, Y+58	; 0x3a
    2fb4:	0e 94 b5 37 	call	0x6f6a	; 0x6f6a <__gtsf2>
    2fb8:	18 16       	cp	r1, r24
    2fba:	0c f0       	brlt	.+2      	; 0x2fbe <s_write_byte+0x428>
    2fbc:	c7 c0       	rjmp	.+398    	; 0x314c <s_write_byte+0x5b6>
	{
		_delay_ms(__us / 1000.0);
    2fbe:	20 e0       	ldi	r18, 0x00	; 0
    2fc0:	30 e0       	ldi	r19, 0x00	; 0
    2fc2:	4a e7       	ldi	r20, 0x7A	; 122
    2fc4:	54 e4       	ldi	r21, 0x44	; 68
    2fc6:	6b a9       	ldd	r22, Y+51	; 0x33
    2fc8:	7c a9       	ldd	r23, Y+52	; 0x34
    2fca:	8d a9       	ldd	r24, Y+53	; 0x35
    2fcc:	9e a9       	ldd	r25, Y+54	; 0x36
    2fce:	0e 94 12 37 	call	0x6e24	; 0x6e24 <__divsf3>
    2fd2:	dc 01       	movw	r26, r24
    2fd4:	cb 01       	movw	r24, r22
    2fd6:	8c af       	std	Y+60, r24	; 0x3c
    2fd8:	9d af       	std	Y+61, r25	; 0x3d
    2fda:	ae af       	std	Y+62, r26	; 0x3e
    2fdc:	bf af       	std	Y+63, r27	; 0x3f
	#endif

	__builtin_avr_delay_cycles(__ticks_dc);

#else
	__tmp = ((F_CPU) / 4e3) * __ms;
    2fde:	8e 01       	movw	r16, r28
    2fe0:	00 5c       	subi	r16, 0xC0	; 192
    2fe2:	1f 4f       	sbci	r17, 0xFF	; 255
    2fe4:	20 e0       	ldi	r18, 0x00	; 0
    2fe6:	30 e0       	ldi	r19, 0x00	; 0
    2fe8:	4a e7       	ldi	r20, 0x7A	; 122
    2fea:	55 e4       	ldi	r21, 0x45	; 69
    2fec:	6c ad       	ldd	r22, Y+60	; 0x3c
    2fee:	7d ad       	ldd	r23, Y+61	; 0x3d
    2ff0:	8e ad       	ldd	r24, Y+62	; 0x3e
    2ff2:	9f ad       	ldd	r25, Y+63	; 0x3f
    2ff4:	0e 94 2d 36 	call	0x6c5a	; 0x6c5a <__mulsf3>
    2ff8:	dc 01       	movw	r26, r24
    2ffa:	cb 01       	movw	r24, r22
    2ffc:	f8 01       	movw	r30, r16
    2ffe:	80 83       	st	Z, r24
    3000:	91 83       	std	Z+1, r25	; 0x01
    3002:	a2 83       	std	Z+2, r26	; 0x02
    3004:	b3 83       	std	Z+3, r27	; 0x03
	if (__tmp < 1.0)
    3006:	ce 01       	movw	r24, r28
    3008:	80 5c       	subi	r24, 0xC0	; 192
    300a:	9f 4f       	sbci	r25, 0xFF	; 255
    300c:	20 e0       	ldi	r18, 0x00	; 0
    300e:	30 e0       	ldi	r19, 0x00	; 0
    3010:	40 e8       	ldi	r20, 0x80	; 128
    3012:	5f e3       	ldi	r21, 0x3F	; 63
    3014:	fc 01       	movw	r30, r24
    3016:	60 81       	ld	r22, Z
    3018:	71 81       	ldd	r23, Z+1	; 0x01
    301a:	82 81       	ldd	r24, Z+2	; 0x02
    301c:	93 81       	ldd	r25, Z+3	; 0x03
    301e:	0e 94 13 38 	call	0x7026	; 0x7026 <__ltsf2>
    3022:	88 23       	and	r24, r24
    3024:	4c f4       	brge	.+18     	; 0x3038 <s_write_byte+0x4a2>
		__ticks = 1;
    3026:	ce 01       	movw	r24, r28
    3028:	8c 5b       	subi	r24, 0xBC	; 188
    302a:	9f 4f       	sbci	r25, 0xFF	; 255
    302c:	21 e0       	ldi	r18, 0x01	; 1
    302e:	30 e0       	ldi	r19, 0x00	; 0
    3030:	fc 01       	movw	r30, r24
    3032:	31 83       	std	Z+1, r19	; 0x01
    3034:	20 83       	st	Z, r18
    3036:	6c c0       	rjmp	.+216    	; 0x3110 <s_write_byte+0x57a>
	else if (__tmp > 65535)
    3038:	ce 01       	movw	r24, r28
    303a:	80 5c       	subi	r24, 0xC0	; 192
    303c:	9f 4f       	sbci	r25, 0xFF	; 255
    303e:	20 e0       	ldi	r18, 0x00	; 0
    3040:	3f ef       	ldi	r19, 0xFF	; 255
    3042:	4f e7       	ldi	r20, 0x7F	; 127
    3044:	57 e4       	ldi	r21, 0x47	; 71
    3046:	fc 01       	movw	r30, r24
    3048:	60 81       	ld	r22, Z
    304a:	71 81       	ldd	r23, Z+1	; 0x01
    304c:	82 81       	ldd	r24, Z+2	; 0x02
    304e:	93 81       	ldd	r25, Z+3	; 0x03
    3050:	0e 94 b5 37 	call	0x6f6a	; 0x6f6a <__gtsf2>
    3054:	18 16       	cp	r1, r24
    3056:	0c f0       	brlt	.+2      	; 0x305a <s_write_byte+0x4c4>
    3058:	49 c0       	rjmp	.+146    	; 0x30ec <s_write_byte+0x556>
	{
		//	__ticks = requested delay in 1/10 ms
		__ticks = (uint16_t) (__ms * 10.0);
    305a:	20 e0       	ldi	r18, 0x00	; 0
    305c:	30 e0       	ldi	r19, 0x00	; 0
    305e:	40 e2       	ldi	r20, 0x20	; 32
    3060:	51 e4       	ldi	r21, 0x41	; 65
    3062:	6c ad       	ldd	r22, Y+60	; 0x3c
    3064:	7d ad       	ldd	r23, Y+61	; 0x3d
    3066:	8e ad       	ldd	r24, Y+62	; 0x3e
    3068:	9f ad       	ldd	r25, Y+63	; 0x3f
    306a:	0e 94 2d 36 	call	0x6c5a	; 0x6c5a <__mulsf3>
    306e:	dc 01       	movw	r26, r24
    3070:	cb 01       	movw	r24, r22
    3072:	8e 01       	movw	r16, r28
    3074:	0c 5b       	subi	r16, 0xBC	; 188
    3076:	1f 4f       	sbci	r17, 0xFF	; 255
    3078:	bc 01       	movw	r22, r24
    307a:	cd 01       	movw	r24, r26
    307c:	0e 94 48 34 	call	0x6890	; 0x6890 <__fixunssfsi>
    3080:	dc 01       	movw	r26, r24
    3082:	cb 01       	movw	r24, r22
    3084:	f8 01       	movw	r30, r16
    3086:	91 83       	std	Z+1, r25	; 0x01
    3088:	80 83       	st	Z, r24
    308a:	27 c0       	rjmp	.+78     	; 0x30da <s_write_byte+0x544>
    308c:	ce 01       	movw	r24, r28
    308e:	8a 5b       	subi	r24, 0xBA	; 186
    3090:	9f 4f       	sbci	r25, 0xFF	; 255
    3092:	20 e9       	ldi	r18, 0x90	; 144
    3094:	31 e0       	ldi	r19, 0x01	; 1
    3096:	fc 01       	movw	r30, r24
    3098:	31 83       	std	Z+1, r19	; 0x01
    309a:	20 83       	st	Z, r18
    milliseconds can be achieved.
 */
void
_delay_loop_2(uint16_t __count)
{
	__asm__ volatile (
    309c:	ce 01       	movw	r24, r28
    309e:	8a 5b       	subi	r24, 0xBA	; 186
    30a0:	9f 4f       	sbci	r25, 0xFF	; 255
    30a2:	fc 01       	movw	r30, r24
    30a4:	80 81       	ld	r24, Z
    30a6:	91 81       	ldd	r25, Z+1	; 0x01
    30a8:	8c 01       	movw	r16, r24
    30aa:	c8 01       	movw	r24, r16
    30ac:	01 97       	sbiw	r24, 0x01	; 1
    30ae:	f1 f7       	brne	.-4      	; 0x30ac <s_write_byte+0x516>
    30b0:	8c 01       	movw	r16, r24
    30b2:	ce 01       	movw	r24, r28
    30b4:	8a 5b       	subi	r24, 0xBA	; 186
    30b6:	9f 4f       	sbci	r25, 0xFF	; 255
    30b8:	fc 01       	movw	r30, r24
    30ba:	11 83       	std	Z+1, r17	; 0x01
    30bc:	00 83       	st	Z, r16
		while(__ticks)
		{
			// wait 1/10 ms
			_delay_loop_2(((F_CPU) / 4e3) / 10);
			__ticks --;
    30be:	ce 01       	movw	r24, r28
    30c0:	8c 5b       	subi	r24, 0xBC	; 188
    30c2:	9f 4f       	sbci	r25, 0xFF	; 255
    30c4:	9e 01       	movw	r18, r28
    30c6:	2c 5b       	subi	r18, 0xBC	; 188
    30c8:	3f 4f       	sbci	r19, 0xFF	; 255
    30ca:	f9 01       	movw	r30, r18
    30cc:	20 81       	ld	r18, Z
    30ce:	31 81       	ldd	r19, Z+1	; 0x01
    30d0:	21 50       	subi	r18, 0x01	; 1
    30d2:	31 09       	sbc	r19, r1
    30d4:	fc 01       	movw	r30, r24
    30d6:	31 83       	std	Z+1, r19	; 0x01
    30d8:	20 83       	st	Z, r18
		__ticks = 1;
	else if (__tmp > 65535)
	{
		//	__ticks = requested delay in 1/10 ms
		__ticks = (uint16_t) (__ms * 10.0);
		while(__ticks)
    30da:	ce 01       	movw	r24, r28
    30dc:	8c 5b       	subi	r24, 0xBC	; 188
    30de:	9f 4f       	sbci	r25, 0xFF	; 255
    30e0:	fc 01       	movw	r30, r24
    30e2:	80 81       	ld	r24, Z
    30e4:	91 81       	ldd	r25, Z+1	; 0x01
    30e6:	00 97       	sbiw	r24, 0x00	; 0
    30e8:	89 f6       	brne	.-94     	; 0x308c <s_write_byte+0x4f6>
    30ea:	4c c0       	rjmp	.+152    	; 0x3184 <s_write_byte+0x5ee>
			__ticks --;
		}
		return;
	}
	else
		__ticks = (uint16_t)__tmp;
    30ec:	8e 01       	movw	r16, r28
    30ee:	0c 5b       	subi	r16, 0xBC	; 188
    30f0:	1f 4f       	sbci	r17, 0xFF	; 255
    30f2:	ce 01       	movw	r24, r28
    30f4:	80 5c       	subi	r24, 0xC0	; 192
    30f6:	9f 4f       	sbci	r25, 0xFF	; 255
    30f8:	fc 01       	movw	r30, r24
    30fa:	60 81       	ld	r22, Z
    30fc:	71 81       	ldd	r23, Z+1	; 0x01
    30fe:	82 81       	ldd	r24, Z+2	; 0x02
    3100:	93 81       	ldd	r25, Z+3	; 0x03
    3102:	0e 94 48 34 	call	0x6890	; 0x6890 <__fixunssfsi>
    3106:	dc 01       	movw	r26, r24
    3108:	cb 01       	movw	r24, r22
    310a:	f8 01       	movw	r30, r16
    310c:	91 83       	std	Z+1, r25	; 0x01
    310e:	80 83       	st	Z, r24
    3110:	ce 01       	movw	r24, r28
    3112:	88 5b       	subi	r24, 0xB8	; 184
    3114:	9f 4f       	sbci	r25, 0xFF	; 255
    3116:	9e 01       	movw	r18, r28
    3118:	2c 5b       	subi	r18, 0xBC	; 188
    311a:	3f 4f       	sbci	r19, 0xFF	; 255
    311c:	f9 01       	movw	r30, r18
    311e:	20 81       	ld	r18, Z
    3120:	31 81       	ldd	r19, Z+1	; 0x01
    3122:	fc 01       	movw	r30, r24
    3124:	31 83       	std	Z+1, r19	; 0x01
    3126:	20 83       	st	Z, r18
    3128:	ce 01       	movw	r24, r28
    312a:	88 5b       	subi	r24, 0xB8	; 184
    312c:	9f 4f       	sbci	r25, 0xFF	; 255
    312e:	fc 01       	movw	r30, r24
    3130:	80 81       	ld	r24, Z
    3132:	91 81       	ldd	r25, Z+1	; 0x01
    3134:	8c 01       	movw	r16, r24
    3136:	c8 01       	movw	r24, r16
    3138:	01 97       	sbiw	r24, 0x01	; 1
    313a:	f1 f7       	brne	.-4      	; 0x3138 <s_write_byte+0x5a2>
    313c:	8c 01       	movw	r16, r24
    313e:	ce 01       	movw	r24, r28
    3140:	88 5b       	subi	r24, 0xB8	; 184
    3142:	9f 4f       	sbci	r25, 0xFF	; 255
    3144:	fc 01       	movw	r30, r24
    3146:	11 83       	std	Z+1, r17	; 0x01
    3148:	00 83       	st	Z, r16
    314a:	1c c0       	rjmp	.+56     	; 0x3184 <s_write_byte+0x5ee>
	{
		_delay_ms(__us / 1000.0);
		return;
	}
	else
		__ticks = (uint8_t)__tmp;
    314c:	6f a9       	ldd	r22, Y+55	; 0x37
    314e:	78 ad       	ldd	r23, Y+56	; 0x38
    3150:	89 ad       	ldd	r24, Y+57	; 0x39
    3152:	9a ad       	ldd	r25, Y+58	; 0x3a
    3154:	0e 94 48 34 	call	0x6890	; 0x6890 <__fixunssfsi>
    3158:	dc 01       	movw	r26, r24
    315a:	cb 01       	movw	r24, r22
    315c:	8b af       	std	Y+59, r24	; 0x3b
    315e:	ce 01       	movw	r24, r28
    3160:	86 5b       	subi	r24, 0xB6	; 182
    3162:	9f 4f       	sbci	r25, 0xFF	; 255
    3164:	2b ad       	ldd	r18, Y+59	; 0x3b
    3166:	fc 01       	movw	r30, r24
    3168:	20 83       	st	Z, r18
    can be achieved.
*/
void
_delay_loop_1(uint8_t __count)
{
	__asm__ volatile (
    316a:	ce 01       	movw	r24, r28
    316c:	86 5b       	subi	r24, 0xB6	; 182
    316e:	9f 4f       	sbci	r25, 0xFF	; 255
    3170:	fc 01       	movw	r30, r24
    3172:	80 81       	ld	r24, Z
    3174:	18 2f       	mov	r17, r24
    3176:	1a 95       	dec	r17
    3178:	f1 f7       	brne	.-4      	; 0x3176 <s_write_byte+0x5e0>
    317a:	ce 01       	movw	r24, r28
    317c:	86 5b       	subi	r24, 0xB6	; 182
    317e:	9f 4f       	sbci	r25, 0xFF	; 255
    3180:	fc 01       	movw	r30, r24
    3182:	10 83       	st	Z, r17
	unsigned char  i, error=0;

	DATAOUT; 
	SHTOUT;

	for (i=0x80; i>0; i>>=1)
    3184:	89 81       	ldd	r24, Y+1	; 0x01
    3186:	86 95       	lsr	r24
    3188:	89 83       	std	Y+1, r24	; 0x01
    318a:	89 81       	ldd	r24, Y+1	; 0x01
    318c:	88 23       	and	r24, r24
    318e:	09 f0       	breq	.+2      	; 0x3192 <s_write_byte+0x5fc>
    3190:	2a cd       	rjmp	.-1452   	; 0x2be6 <s_write_byte+0x50>

		SHT_SCK_0;
		_delay_us(3); 
	 }

	DATA_OUT_0; 
    3192:	82 e6       	ldi	r24, 0x62	; 98
    3194:	90 e0       	ldi	r25, 0x00	; 0
    3196:	22 e6       	ldi	r18, 0x62	; 98
    3198:	30 e0       	ldi	r19, 0x00	; 0
    319a:	f9 01       	movw	r30, r18
    319c:	20 81       	ld	r18, Z
    319e:	2e 7f       	andi	r18, 0xFE	; 254
    31a0:	fc 01       	movw	r30, r24
    31a2:	20 83       	st	Z, r18
    31a4:	9e 01       	movw	r18, r28
    31a6:	25 5b       	subi	r18, 0xB5	; 181
    31a8:	3f 4f       	sbci	r19, 0xFF	; 255
    31aa:	80 e0       	ldi	r24, 0x00	; 0
    31ac:	90 e0       	ldi	r25, 0x00	; 0
    31ae:	a0 e4       	ldi	r26, 0x40	; 64
    31b0:	b0 e4       	ldi	r27, 0x40	; 64
    31b2:	f9 01       	movw	r30, r18
    31b4:	80 83       	st	Z, r24
    31b6:	91 83       	std	Z+1, r25	; 0x01
    31b8:	a2 83       	std	Z+2, r26	; 0x02
    31ba:	b3 83       	std	Z+3, r27	; 0x03
	#endif

	__builtin_avr_delay_cycles(__ticks_dc);

#else
	__tmp = ((F_CPU) / 3e6) * __us;
    31bc:	8e 01       	movw	r16, r28
    31be:	01 5b       	subi	r16, 0xB1	; 177
    31c0:	1f 4f       	sbci	r17, 0xFF	; 255
    31c2:	ce 01       	movw	r24, r28
    31c4:	85 5b       	subi	r24, 0xB5	; 181
    31c6:	9f 4f       	sbci	r25, 0xFF	; 255
    31c8:	2b ea       	ldi	r18, 0xAB	; 171
    31ca:	3a ea       	ldi	r19, 0xAA	; 170
    31cc:	4a ea       	ldi	r20, 0xAA	; 170
    31ce:	50 e4       	ldi	r21, 0x40	; 64
    31d0:	fc 01       	movw	r30, r24
    31d2:	60 81       	ld	r22, Z
    31d4:	71 81       	ldd	r23, Z+1	; 0x01
    31d6:	82 81       	ldd	r24, Z+2	; 0x02
    31d8:	93 81       	ldd	r25, Z+3	; 0x03
    31da:	0e 94 2d 36 	call	0x6c5a	; 0x6c5a <__mulsf3>
    31de:	dc 01       	movw	r26, r24
    31e0:	cb 01       	movw	r24, r22
    31e2:	f8 01       	movw	r30, r16
    31e4:	80 83       	st	Z, r24
    31e6:	91 83       	std	Z+1, r25	; 0x01
    31e8:	a2 83       	std	Z+2, r26	; 0x02
    31ea:	b3 83       	std	Z+3, r27	; 0x03
	if (__tmp < 1.0)
    31ec:	ce 01       	movw	r24, r28
    31ee:	81 5b       	subi	r24, 0xB1	; 177
    31f0:	9f 4f       	sbci	r25, 0xFF	; 255
    31f2:	20 e0       	ldi	r18, 0x00	; 0
    31f4:	30 e0       	ldi	r19, 0x00	; 0
    31f6:	40 e8       	ldi	r20, 0x80	; 128
    31f8:	5f e3       	ldi	r21, 0x3F	; 63
    31fa:	fc 01       	movw	r30, r24
    31fc:	60 81       	ld	r22, Z
    31fe:	71 81       	ldd	r23, Z+1	; 0x01
    3200:	82 81       	ldd	r24, Z+2	; 0x02
    3202:	93 81       	ldd	r25, Z+3	; 0x03
    3204:	0e 94 13 38 	call	0x7026	; 0x7026 <__ltsf2>
    3208:	88 23       	and	r24, r24
    320a:	3c f4       	brge	.+14     	; 0x321a <s_write_byte+0x684>
		__ticks = 1;
    320c:	ce 01       	movw	r24, r28
    320e:	8d 5a       	subi	r24, 0xAD	; 173
    3210:	9f 4f       	sbci	r25, 0xFF	; 255
    3212:	21 e0       	ldi	r18, 0x01	; 1
    3214:	fc 01       	movw	r30, r24
    3216:	20 83       	st	Z, r18
    3218:	f9 c0       	rjmp	.+498    	; 0x340c <s_write_byte+0x876>
	else if (__tmp > 255)
    321a:	ce 01       	movw	r24, r28
    321c:	81 5b       	subi	r24, 0xB1	; 177
    321e:	9f 4f       	sbci	r25, 0xFF	; 255
    3220:	20 e0       	ldi	r18, 0x00	; 0
    3222:	30 e0       	ldi	r19, 0x00	; 0
    3224:	4f e7       	ldi	r20, 0x7F	; 127
    3226:	53 e4       	ldi	r21, 0x43	; 67
    3228:	fc 01       	movw	r30, r24
    322a:	60 81       	ld	r22, Z
    322c:	71 81       	ldd	r23, Z+1	; 0x01
    322e:	82 81       	ldd	r24, Z+2	; 0x02
    3230:	93 81       	ldd	r25, Z+3	; 0x03
    3232:	0e 94 b5 37 	call	0x6f6a	; 0x6f6a <__gtsf2>
    3236:	18 16       	cp	r1, r24
    3238:	0c f0       	brlt	.+2      	; 0x323c <s_write_byte+0x6a6>
    323a:	d7 c0       	rjmp	.+430    	; 0x33ea <s_write_byte+0x854>
	{
		_delay_ms(__us / 1000.0);
    323c:	ce 01       	movw	r24, r28
    323e:	85 5b       	subi	r24, 0xB5	; 181
    3240:	9f 4f       	sbci	r25, 0xFF	; 255
    3242:	20 e0       	ldi	r18, 0x00	; 0
    3244:	30 e0       	ldi	r19, 0x00	; 0
    3246:	4a e7       	ldi	r20, 0x7A	; 122
    3248:	54 e4       	ldi	r21, 0x44	; 68
    324a:	fc 01       	movw	r30, r24
    324c:	60 81       	ld	r22, Z
    324e:	71 81       	ldd	r23, Z+1	; 0x01
    3250:	82 81       	ldd	r24, Z+2	; 0x02
    3252:	93 81       	ldd	r25, Z+3	; 0x03
    3254:	0e 94 12 37 	call	0x6e24	; 0x6e24 <__divsf3>
    3258:	dc 01       	movw	r26, r24
    325a:	cb 01       	movw	r24, r22
    325c:	9e 01       	movw	r18, r28
    325e:	2c 5a       	subi	r18, 0xAC	; 172
    3260:	3f 4f       	sbci	r19, 0xFF	; 255
    3262:	f9 01       	movw	r30, r18
    3264:	80 83       	st	Z, r24
    3266:	91 83       	std	Z+1, r25	; 0x01
    3268:	a2 83       	std	Z+2, r26	; 0x02
    326a:	b3 83       	std	Z+3, r27	; 0x03
	#endif

	__builtin_avr_delay_cycles(__ticks_dc);

#else
	__tmp = ((F_CPU) / 4e3) * __ms;
    326c:	8e 01       	movw	r16, r28
    326e:	08 5a       	subi	r16, 0xA8	; 168
    3270:	1f 4f       	sbci	r17, 0xFF	; 255
    3272:	ce 01       	movw	r24, r28
    3274:	8c 5a       	subi	r24, 0xAC	; 172
    3276:	9f 4f       	sbci	r25, 0xFF	; 255
    3278:	20 e0       	ldi	r18, 0x00	; 0
    327a:	30 e0       	ldi	r19, 0x00	; 0
    327c:	4a e7       	ldi	r20, 0x7A	; 122
    327e:	55 e4       	ldi	r21, 0x45	; 69
    3280:	fc 01       	movw	r30, r24
    3282:	60 81       	ld	r22, Z
    3284:	71 81       	ldd	r23, Z+1	; 0x01
    3286:	82 81       	ldd	r24, Z+2	; 0x02
    3288:	93 81       	ldd	r25, Z+3	; 0x03
    328a:	0e 94 2d 36 	call	0x6c5a	; 0x6c5a <__mulsf3>
    328e:	dc 01       	movw	r26, r24
    3290:	cb 01       	movw	r24, r22
    3292:	f8 01       	movw	r30, r16
    3294:	80 83       	st	Z, r24
    3296:	91 83       	std	Z+1, r25	; 0x01
    3298:	a2 83       	std	Z+2, r26	; 0x02
    329a:	b3 83       	std	Z+3, r27	; 0x03
	if (__tmp < 1.0)
    329c:	ce 01       	movw	r24, r28
    329e:	88 5a       	subi	r24, 0xA8	; 168
    32a0:	9f 4f       	sbci	r25, 0xFF	; 255
    32a2:	20 e0       	ldi	r18, 0x00	; 0
    32a4:	30 e0       	ldi	r19, 0x00	; 0
    32a6:	40 e8       	ldi	r20, 0x80	; 128
    32a8:	5f e3       	ldi	r21, 0x3F	; 63
    32aa:	fc 01       	movw	r30, r24
    32ac:	60 81       	ld	r22, Z
    32ae:	71 81       	ldd	r23, Z+1	; 0x01
    32b0:	82 81       	ldd	r24, Z+2	; 0x02
    32b2:	93 81       	ldd	r25, Z+3	; 0x03
    32b4:	0e 94 13 38 	call	0x7026	; 0x7026 <__ltsf2>
    32b8:	88 23       	and	r24, r24
    32ba:	4c f4       	brge	.+18     	; 0x32ce <s_write_byte+0x738>
		__ticks = 1;
    32bc:	ce 01       	movw	r24, r28
    32be:	84 5a       	subi	r24, 0xA4	; 164
    32c0:	9f 4f       	sbci	r25, 0xFF	; 255
    32c2:	21 e0       	ldi	r18, 0x01	; 1
    32c4:	30 e0       	ldi	r19, 0x00	; 0
    32c6:	fc 01       	movw	r30, r24
    32c8:	31 83       	std	Z+1, r19	; 0x01
    32ca:	20 83       	st	Z, r18
    32cc:	70 c0       	rjmp	.+224    	; 0x33ae <s_write_byte+0x818>
	else if (__tmp > 65535)
    32ce:	ce 01       	movw	r24, r28
    32d0:	88 5a       	subi	r24, 0xA8	; 168
    32d2:	9f 4f       	sbci	r25, 0xFF	; 255
    32d4:	20 e0       	ldi	r18, 0x00	; 0
    32d6:	3f ef       	ldi	r19, 0xFF	; 255
    32d8:	4f e7       	ldi	r20, 0x7F	; 127
    32da:	57 e4       	ldi	r21, 0x47	; 71
    32dc:	fc 01       	movw	r30, r24
    32de:	60 81       	ld	r22, Z
    32e0:	71 81       	ldd	r23, Z+1	; 0x01
    32e2:	82 81       	ldd	r24, Z+2	; 0x02
    32e4:	93 81       	ldd	r25, Z+3	; 0x03
    32e6:	0e 94 b5 37 	call	0x6f6a	; 0x6f6a <__gtsf2>
    32ea:	18 16       	cp	r1, r24
    32ec:	0c f0       	brlt	.+2      	; 0x32f0 <s_write_byte+0x75a>
    32ee:	4d c0       	rjmp	.+154    	; 0x338a <s_write_byte+0x7f4>
	{
		//	__ticks = requested delay in 1/10 ms
		__ticks = (uint16_t) (__ms * 10.0);
    32f0:	ce 01       	movw	r24, r28
    32f2:	8c 5a       	subi	r24, 0xAC	; 172
    32f4:	9f 4f       	sbci	r25, 0xFF	; 255
    32f6:	20 e0       	ldi	r18, 0x00	; 0
    32f8:	30 e0       	ldi	r19, 0x00	; 0
    32fa:	40 e2       	ldi	r20, 0x20	; 32
    32fc:	51 e4       	ldi	r21, 0x41	; 65
    32fe:	fc 01       	movw	r30, r24
    3300:	60 81       	ld	r22, Z
    3302:	71 81       	ldd	r23, Z+1	; 0x01
    3304:	82 81       	ldd	r24, Z+2	; 0x02
    3306:	93 81       	ldd	r25, Z+3	; 0x03
    3308:	0e 94 2d 36 	call	0x6c5a	; 0x6c5a <__mulsf3>
    330c:	dc 01       	movw	r26, r24
    330e:	cb 01       	movw	r24, r22
    3310:	8e 01       	movw	r16, r28
    3312:	04 5a       	subi	r16, 0xA4	; 164
    3314:	1f 4f       	sbci	r17, 0xFF	; 255
    3316:	bc 01       	movw	r22, r24
    3318:	cd 01       	movw	r24, r26
    331a:	0e 94 48 34 	call	0x6890	; 0x6890 <__fixunssfsi>
    331e:	dc 01       	movw	r26, r24
    3320:	cb 01       	movw	r24, r22
    3322:	f8 01       	movw	r30, r16
    3324:	91 83       	std	Z+1, r25	; 0x01
    3326:	80 83       	st	Z, r24
    3328:	27 c0       	rjmp	.+78     	; 0x3378 <s_write_byte+0x7e2>
    332a:	ce 01       	movw	r24, r28
    332c:	82 5a       	subi	r24, 0xA2	; 162
    332e:	9f 4f       	sbci	r25, 0xFF	; 255
    3330:	20 e9       	ldi	r18, 0x90	; 144
    3332:	31 e0       	ldi	r19, 0x01	; 1
    3334:	fc 01       	movw	r30, r24
    3336:	31 83       	std	Z+1, r19	; 0x01
    3338:	20 83       	st	Z, r18
    milliseconds can be achieved.
 */
void
_delay_loop_2(uint16_t __count)
{
	__asm__ volatile (
    333a:	ce 01       	movw	r24, r28
    333c:	82 5a       	subi	r24, 0xA2	; 162
    333e:	9f 4f       	sbci	r25, 0xFF	; 255
    3340:	fc 01       	movw	r30, r24
    3342:	80 81       	ld	r24, Z
    3344:	91 81       	ldd	r25, Z+1	; 0x01
    3346:	8c 01       	movw	r16, r24
    3348:	c8 01       	movw	r24, r16
    334a:	01 97       	sbiw	r24, 0x01	; 1
    334c:	f1 f7       	brne	.-4      	; 0x334a <s_write_byte+0x7b4>
    334e:	8c 01       	movw	r16, r24
    3350:	ce 01       	movw	r24, r28
    3352:	82 5a       	subi	r24, 0xA2	; 162
    3354:	9f 4f       	sbci	r25, 0xFF	; 255
    3356:	fc 01       	movw	r30, r24
    3358:	11 83       	std	Z+1, r17	; 0x01
    335a:	00 83       	st	Z, r16
		while(__ticks)
		{
			// wait 1/10 ms
			_delay_loop_2(((F_CPU) / 4e3) / 10);
			__ticks --;
    335c:	ce 01       	movw	r24, r28
    335e:	84 5a       	subi	r24, 0xA4	; 164
    3360:	9f 4f       	sbci	r25, 0xFF	; 255
    3362:	9e 01       	movw	r18, r28
    3364:	24 5a       	subi	r18, 0xA4	; 164
    3366:	3f 4f       	sbci	r19, 0xFF	; 255
    3368:	f9 01       	movw	r30, r18
    336a:	20 81       	ld	r18, Z
    336c:	31 81       	ldd	r19, Z+1	; 0x01
    336e:	21 50       	subi	r18, 0x01	; 1
    3370:	31 09       	sbc	r19, r1
    3372:	fc 01       	movw	r30, r24
    3374:	31 83       	std	Z+1, r19	; 0x01
    3376:	20 83       	st	Z, r18
		__ticks = 1;
	else if (__tmp > 65535)
	{
		//	__ticks = requested delay in 1/10 ms
		__ticks = (uint16_t) (__ms * 10.0);
		while(__ticks)
    3378:	ce 01       	movw	r24, r28
    337a:	84 5a       	subi	r24, 0xA4	; 164
    337c:	9f 4f       	sbci	r25, 0xFF	; 255
    337e:	fc 01       	movw	r30, r24
    3380:	80 81       	ld	r24, Z
    3382:	91 81       	ldd	r25, Z+1	; 0x01
    3384:	00 97       	sbiw	r24, 0x00	; 0
    3386:	89 f6       	brne	.-94     	; 0x332a <s_write_byte+0x794>
    3388:	58 c0       	rjmp	.+176    	; 0x343a <s_write_byte+0x8a4>
			__ticks --;
		}
		return;
	}
	else
		__ticks = (uint16_t)__tmp;
    338a:	8e 01       	movw	r16, r28
    338c:	04 5a       	subi	r16, 0xA4	; 164
    338e:	1f 4f       	sbci	r17, 0xFF	; 255
    3390:	ce 01       	movw	r24, r28
    3392:	88 5a       	subi	r24, 0xA8	; 168
    3394:	9f 4f       	sbci	r25, 0xFF	; 255
    3396:	fc 01       	movw	r30, r24
    3398:	60 81       	ld	r22, Z
    339a:	71 81       	ldd	r23, Z+1	; 0x01
    339c:	82 81       	ldd	r24, Z+2	; 0x02
    339e:	93 81       	ldd	r25, Z+3	; 0x03
    33a0:	0e 94 48 34 	call	0x6890	; 0x6890 <__fixunssfsi>
    33a4:	dc 01       	movw	r26, r24
    33a6:	cb 01       	movw	r24, r22
    33a8:	f8 01       	movw	r30, r16
    33aa:	91 83       	std	Z+1, r25	; 0x01
    33ac:	80 83       	st	Z, r24
    33ae:	ce 01       	movw	r24, r28
    33b0:	80 5a       	subi	r24, 0xA0	; 160
    33b2:	9f 4f       	sbci	r25, 0xFF	; 255
    33b4:	9e 01       	movw	r18, r28
    33b6:	24 5a       	subi	r18, 0xA4	; 164
    33b8:	3f 4f       	sbci	r19, 0xFF	; 255
    33ba:	f9 01       	movw	r30, r18
    33bc:	20 81       	ld	r18, Z
    33be:	31 81       	ldd	r19, Z+1	; 0x01
    33c0:	fc 01       	movw	r30, r24
    33c2:	31 83       	std	Z+1, r19	; 0x01
    33c4:	20 83       	st	Z, r18
    33c6:	ce 01       	movw	r24, r28
    33c8:	80 5a       	subi	r24, 0xA0	; 160
    33ca:	9f 4f       	sbci	r25, 0xFF	; 255
    33cc:	fc 01       	movw	r30, r24
    33ce:	80 81       	ld	r24, Z
    33d0:	91 81       	ldd	r25, Z+1	; 0x01
    33d2:	8c 01       	movw	r16, r24
    33d4:	c8 01       	movw	r24, r16
    33d6:	01 97       	sbiw	r24, 0x01	; 1
    33d8:	f1 f7       	brne	.-4      	; 0x33d6 <s_write_byte+0x840>
    33da:	8c 01       	movw	r16, r24
    33dc:	ce 01       	movw	r24, r28
    33de:	80 5a       	subi	r24, 0xA0	; 160
    33e0:	9f 4f       	sbci	r25, 0xFF	; 255
    33e2:	fc 01       	movw	r30, r24
    33e4:	11 83       	std	Z+1, r17	; 0x01
    33e6:	00 83       	st	Z, r16
    33e8:	28 c0       	rjmp	.+80     	; 0x343a <s_write_byte+0x8a4>
	{
		_delay_ms(__us / 1000.0);
		return;
	}
	else
		__ticks = (uint8_t)__tmp;
    33ea:	8e 01       	movw	r16, r28
    33ec:	0d 5a       	subi	r16, 0xAD	; 173
    33ee:	1f 4f       	sbci	r17, 0xFF	; 255
    33f0:	ce 01       	movw	r24, r28
    33f2:	81 5b       	subi	r24, 0xB1	; 177
    33f4:	9f 4f       	sbci	r25, 0xFF	; 255
    33f6:	fc 01       	movw	r30, r24
    33f8:	60 81       	ld	r22, Z
    33fa:	71 81       	ldd	r23, Z+1	; 0x01
    33fc:	82 81       	ldd	r24, Z+2	; 0x02
    33fe:	93 81       	ldd	r25, Z+3	; 0x03
    3400:	0e 94 48 34 	call	0x6890	; 0x6890 <__fixunssfsi>
    3404:	dc 01       	movw	r26, r24
    3406:	cb 01       	movw	r24, r22
    3408:	f8 01       	movw	r30, r16
    340a:	80 83       	st	Z, r24
    340c:	ce 01       	movw	r24, r28
    340e:	8e 59       	subi	r24, 0x9E	; 158
    3410:	9f 4f       	sbci	r25, 0xFF	; 255
    3412:	9e 01       	movw	r18, r28
    3414:	2d 5a       	subi	r18, 0xAD	; 173
    3416:	3f 4f       	sbci	r19, 0xFF	; 255
    3418:	f9 01       	movw	r30, r18
    341a:	20 81       	ld	r18, Z
    341c:	fc 01       	movw	r30, r24
    341e:	20 83       	st	Z, r18
    can be achieved.
*/
void
_delay_loop_1(uint8_t __count)
{
	__asm__ volatile (
    3420:	ce 01       	movw	r24, r28
    3422:	8e 59       	subi	r24, 0x9E	; 158
    3424:	9f 4f       	sbci	r25, 0xFF	; 255
    3426:	fc 01       	movw	r30, r24
    3428:	80 81       	ld	r24, Z
    342a:	18 2f       	mov	r17, r24
    342c:	1a 95       	dec	r17
    342e:	f1 f7       	brne	.-4      	; 0x342c <s_write_byte+0x896>
    3430:	ce 01       	movw	r24, r28
    3432:	8e 59       	subi	r24, 0x9E	; 158
    3434:	9f 4f       	sbci	r25, 0xFF	; 255
    3436:	fc 01       	movw	r30, r24
    3438:	10 83       	st	Z, r17
	_delay_us(3); 
	SHT_SCK_1; 
    343a:	82 e6       	ldi	r24, 0x62	; 98
    343c:	90 e0       	ldi	r25, 0x00	; 0
    343e:	22 e6       	ldi	r18, 0x62	; 98
    3440:	30 e0       	ldi	r19, 0x00	; 0
    3442:	f9 01       	movw	r30, r18
    3444:	20 81       	ld	r18, Z
    3446:	22 60       	ori	r18, 0x02	; 2
    3448:	fc 01       	movw	r30, r24
    344a:	20 83       	st	Z, r18
    344c:	9e 01       	movw	r18, r28
    344e:	2d 59       	subi	r18, 0x9D	; 157
    3450:	3f 4f       	sbci	r19, 0xFF	; 255
    3452:	80 e0       	ldi	r24, 0x00	; 0
    3454:	90 e0       	ldi	r25, 0x00	; 0
    3456:	a0 e4       	ldi	r26, 0x40	; 64
    3458:	b0 e4       	ldi	r27, 0x40	; 64
    345a:	f9 01       	movw	r30, r18
    345c:	80 83       	st	Z, r24
    345e:	91 83       	std	Z+1, r25	; 0x01
    3460:	a2 83       	std	Z+2, r26	; 0x02
    3462:	b3 83       	std	Z+3, r27	; 0x03
	#endif

	__builtin_avr_delay_cycles(__ticks_dc);

#else
	__tmp = ((F_CPU) / 3e6) * __us;
    3464:	8e 01       	movw	r16, r28
    3466:	09 59       	subi	r16, 0x99	; 153
    3468:	1f 4f       	sbci	r17, 0xFF	; 255
    346a:	ce 01       	movw	r24, r28
    346c:	8d 59       	subi	r24, 0x9D	; 157
    346e:	9f 4f       	sbci	r25, 0xFF	; 255
    3470:	2b ea       	ldi	r18, 0xAB	; 171
    3472:	3a ea       	ldi	r19, 0xAA	; 170
    3474:	4a ea       	ldi	r20, 0xAA	; 170
    3476:	50 e4       	ldi	r21, 0x40	; 64
    3478:	fc 01       	movw	r30, r24
    347a:	60 81       	ld	r22, Z
    347c:	71 81       	ldd	r23, Z+1	; 0x01
    347e:	82 81       	ldd	r24, Z+2	; 0x02
    3480:	93 81       	ldd	r25, Z+3	; 0x03
    3482:	0e 94 2d 36 	call	0x6c5a	; 0x6c5a <__mulsf3>
    3486:	dc 01       	movw	r26, r24
    3488:	cb 01       	movw	r24, r22
    348a:	f8 01       	movw	r30, r16
    348c:	80 83       	st	Z, r24
    348e:	91 83       	std	Z+1, r25	; 0x01
    3490:	a2 83       	std	Z+2, r26	; 0x02
    3492:	b3 83       	std	Z+3, r27	; 0x03
	if (__tmp < 1.0)
    3494:	ce 01       	movw	r24, r28
    3496:	89 59       	subi	r24, 0x99	; 153
    3498:	9f 4f       	sbci	r25, 0xFF	; 255
    349a:	20 e0       	ldi	r18, 0x00	; 0
    349c:	30 e0       	ldi	r19, 0x00	; 0
    349e:	40 e8       	ldi	r20, 0x80	; 128
    34a0:	5f e3       	ldi	r21, 0x3F	; 63
    34a2:	fc 01       	movw	r30, r24
    34a4:	60 81       	ld	r22, Z
    34a6:	71 81       	ldd	r23, Z+1	; 0x01
    34a8:	82 81       	ldd	r24, Z+2	; 0x02
    34aa:	93 81       	ldd	r25, Z+3	; 0x03
    34ac:	0e 94 13 38 	call	0x7026	; 0x7026 <__ltsf2>
    34b0:	88 23       	and	r24, r24
    34b2:	3c f4       	brge	.+14     	; 0x34c2 <s_write_byte+0x92c>
		__ticks = 1;
    34b4:	ce 01       	movw	r24, r28
    34b6:	85 59       	subi	r24, 0x95	; 149
    34b8:	9f 4f       	sbci	r25, 0xFF	; 255
    34ba:	21 e0       	ldi	r18, 0x01	; 1
    34bc:	fc 01       	movw	r30, r24
    34be:	20 83       	st	Z, r18
    34c0:	f9 c0       	rjmp	.+498    	; 0x36b4 <s_write_byte+0xb1e>
	else if (__tmp > 255)
    34c2:	ce 01       	movw	r24, r28
    34c4:	89 59       	subi	r24, 0x99	; 153
    34c6:	9f 4f       	sbci	r25, 0xFF	; 255
    34c8:	20 e0       	ldi	r18, 0x00	; 0
    34ca:	30 e0       	ldi	r19, 0x00	; 0
    34cc:	4f e7       	ldi	r20, 0x7F	; 127
    34ce:	53 e4       	ldi	r21, 0x43	; 67
    34d0:	fc 01       	movw	r30, r24
    34d2:	60 81       	ld	r22, Z
    34d4:	71 81       	ldd	r23, Z+1	; 0x01
    34d6:	82 81       	ldd	r24, Z+2	; 0x02
    34d8:	93 81       	ldd	r25, Z+3	; 0x03
    34da:	0e 94 b5 37 	call	0x6f6a	; 0x6f6a <__gtsf2>
    34de:	18 16       	cp	r1, r24
    34e0:	0c f0       	brlt	.+2      	; 0x34e4 <s_write_byte+0x94e>
    34e2:	d7 c0       	rjmp	.+430    	; 0x3692 <s_write_byte+0xafc>
	{
		_delay_ms(__us / 1000.0);
    34e4:	ce 01       	movw	r24, r28
    34e6:	8d 59       	subi	r24, 0x9D	; 157
    34e8:	9f 4f       	sbci	r25, 0xFF	; 255
    34ea:	20 e0       	ldi	r18, 0x00	; 0
    34ec:	30 e0       	ldi	r19, 0x00	; 0
    34ee:	4a e7       	ldi	r20, 0x7A	; 122
    34f0:	54 e4       	ldi	r21, 0x44	; 68
    34f2:	fc 01       	movw	r30, r24
    34f4:	60 81       	ld	r22, Z
    34f6:	71 81       	ldd	r23, Z+1	; 0x01
    34f8:	82 81       	ldd	r24, Z+2	; 0x02
    34fa:	93 81       	ldd	r25, Z+3	; 0x03
    34fc:	0e 94 12 37 	call	0x6e24	; 0x6e24 <__divsf3>
    3500:	dc 01       	movw	r26, r24
    3502:	cb 01       	movw	r24, r22
    3504:	9e 01       	movw	r18, r28
    3506:	24 59       	subi	r18, 0x94	; 148
    3508:	3f 4f       	sbci	r19, 0xFF	; 255
    350a:	f9 01       	movw	r30, r18
    350c:	80 83       	st	Z, r24
    350e:	91 83       	std	Z+1, r25	; 0x01
    3510:	a2 83       	std	Z+2, r26	; 0x02
    3512:	b3 83       	std	Z+3, r27	; 0x03
	#endif

	__builtin_avr_delay_cycles(__ticks_dc);

#else
	__tmp = ((F_CPU) / 4e3) * __ms;
    3514:	8e 01       	movw	r16, r28
    3516:	00 59       	subi	r16, 0x90	; 144
    3518:	1f 4f       	sbci	r17, 0xFF	; 255
    351a:	ce 01       	movw	r24, r28
    351c:	84 59       	subi	r24, 0x94	; 148
    351e:	9f 4f       	sbci	r25, 0xFF	; 255
    3520:	20 e0       	ldi	r18, 0x00	; 0
    3522:	30 e0       	ldi	r19, 0x00	; 0
    3524:	4a e7       	ldi	r20, 0x7A	; 122
    3526:	55 e4       	ldi	r21, 0x45	; 69
    3528:	fc 01       	movw	r30, r24
    352a:	60 81       	ld	r22, Z
    352c:	71 81       	ldd	r23, Z+1	; 0x01
    352e:	82 81       	ldd	r24, Z+2	; 0x02
    3530:	93 81       	ldd	r25, Z+3	; 0x03
    3532:	0e 94 2d 36 	call	0x6c5a	; 0x6c5a <__mulsf3>
    3536:	dc 01       	movw	r26, r24
    3538:	cb 01       	movw	r24, r22
    353a:	f8 01       	movw	r30, r16
    353c:	80 83       	st	Z, r24
    353e:	91 83       	std	Z+1, r25	; 0x01
    3540:	a2 83       	std	Z+2, r26	; 0x02
    3542:	b3 83       	std	Z+3, r27	; 0x03
	if (__tmp < 1.0)
    3544:	ce 01       	movw	r24, r28
    3546:	80 59       	subi	r24, 0x90	; 144
    3548:	9f 4f       	sbci	r25, 0xFF	; 255
    354a:	20 e0       	ldi	r18, 0x00	; 0
    354c:	30 e0       	ldi	r19, 0x00	; 0
    354e:	40 e8       	ldi	r20, 0x80	; 128
    3550:	5f e3       	ldi	r21, 0x3F	; 63
    3552:	fc 01       	movw	r30, r24
    3554:	60 81       	ld	r22, Z
    3556:	71 81       	ldd	r23, Z+1	; 0x01
    3558:	82 81       	ldd	r24, Z+2	; 0x02
    355a:	93 81       	ldd	r25, Z+3	; 0x03
    355c:	0e 94 13 38 	call	0x7026	; 0x7026 <__ltsf2>
    3560:	88 23       	and	r24, r24
    3562:	4c f4       	brge	.+18     	; 0x3576 <s_write_byte+0x9e0>
		__ticks = 1;
    3564:	ce 01       	movw	r24, r28
    3566:	8c 58       	subi	r24, 0x8C	; 140
    3568:	9f 4f       	sbci	r25, 0xFF	; 255
    356a:	21 e0       	ldi	r18, 0x01	; 1
    356c:	30 e0       	ldi	r19, 0x00	; 0
    356e:	fc 01       	movw	r30, r24
    3570:	31 83       	std	Z+1, r19	; 0x01
    3572:	20 83       	st	Z, r18
    3574:	70 c0       	rjmp	.+224    	; 0x3656 <s_write_byte+0xac0>
	else if (__tmp > 65535)
    3576:	ce 01       	movw	r24, r28
    3578:	80 59       	subi	r24, 0x90	; 144
    357a:	9f 4f       	sbci	r25, 0xFF	; 255
    357c:	20 e0       	ldi	r18, 0x00	; 0
    357e:	3f ef       	ldi	r19, 0xFF	; 255
    3580:	4f e7       	ldi	r20, 0x7F	; 127
    3582:	57 e4       	ldi	r21, 0x47	; 71
    3584:	fc 01       	movw	r30, r24
    3586:	60 81       	ld	r22, Z
    3588:	71 81       	ldd	r23, Z+1	; 0x01
    358a:	82 81       	ldd	r24, Z+2	; 0x02
    358c:	93 81       	ldd	r25, Z+3	; 0x03
    358e:	0e 94 b5 37 	call	0x6f6a	; 0x6f6a <__gtsf2>
    3592:	18 16       	cp	r1, r24
    3594:	0c f0       	brlt	.+2      	; 0x3598 <s_write_byte+0xa02>
    3596:	4d c0       	rjmp	.+154    	; 0x3632 <s_write_byte+0xa9c>
	{
		//	__ticks = requested delay in 1/10 ms
		__ticks = (uint16_t) (__ms * 10.0);
    3598:	ce 01       	movw	r24, r28
    359a:	84 59       	subi	r24, 0x94	; 148
    359c:	9f 4f       	sbci	r25, 0xFF	; 255
    359e:	20 e0       	ldi	r18, 0x00	; 0
    35a0:	30 e0       	ldi	r19, 0x00	; 0
    35a2:	40 e2       	ldi	r20, 0x20	; 32
    35a4:	51 e4       	ldi	r21, 0x41	; 65
    35a6:	fc 01       	movw	r30, r24
    35a8:	60 81       	ld	r22, Z
    35aa:	71 81       	ldd	r23, Z+1	; 0x01
    35ac:	82 81       	ldd	r24, Z+2	; 0x02
    35ae:	93 81       	ldd	r25, Z+3	; 0x03
    35b0:	0e 94 2d 36 	call	0x6c5a	; 0x6c5a <__mulsf3>
    35b4:	dc 01       	movw	r26, r24
    35b6:	cb 01       	movw	r24, r22
    35b8:	8e 01       	movw	r16, r28
    35ba:	0c 58       	subi	r16, 0x8C	; 140
    35bc:	1f 4f       	sbci	r17, 0xFF	; 255
    35be:	bc 01       	movw	r22, r24
    35c0:	cd 01       	movw	r24, r26
    35c2:	0e 94 48 34 	call	0x6890	; 0x6890 <__fixunssfsi>
    35c6:	dc 01       	movw	r26, r24
    35c8:	cb 01       	movw	r24, r22
    35ca:	f8 01       	movw	r30, r16
    35cc:	91 83       	std	Z+1, r25	; 0x01
    35ce:	80 83       	st	Z, r24
    35d0:	27 c0       	rjmp	.+78     	; 0x3620 <s_write_byte+0xa8a>
    35d2:	ce 01       	movw	r24, r28
    35d4:	8a 58       	subi	r24, 0x8A	; 138
    35d6:	9f 4f       	sbci	r25, 0xFF	; 255
    35d8:	20 e9       	ldi	r18, 0x90	; 144
    35da:	31 e0       	ldi	r19, 0x01	; 1
    35dc:	fc 01       	movw	r30, r24
    35de:	31 83       	std	Z+1, r19	; 0x01
    35e0:	20 83       	st	Z, r18
    milliseconds can be achieved.
 */
void
_delay_loop_2(uint16_t __count)
{
	__asm__ volatile (
    35e2:	ce 01       	movw	r24, r28
    35e4:	8a 58       	subi	r24, 0x8A	; 138
    35e6:	9f 4f       	sbci	r25, 0xFF	; 255
    35e8:	fc 01       	movw	r30, r24
    35ea:	80 81       	ld	r24, Z
    35ec:	91 81       	ldd	r25, Z+1	; 0x01
    35ee:	8c 01       	movw	r16, r24
    35f0:	c8 01       	movw	r24, r16
    35f2:	01 97       	sbiw	r24, 0x01	; 1
    35f4:	f1 f7       	brne	.-4      	; 0x35f2 <s_write_byte+0xa5c>
    35f6:	8c 01       	movw	r16, r24
    35f8:	ce 01       	movw	r24, r28
    35fa:	8a 58       	subi	r24, 0x8A	; 138
    35fc:	9f 4f       	sbci	r25, 0xFF	; 255
    35fe:	fc 01       	movw	r30, r24
    3600:	11 83       	std	Z+1, r17	; 0x01
    3602:	00 83       	st	Z, r16
		while(__ticks)
		{
			// wait 1/10 ms
			_delay_loop_2(((F_CPU) / 4e3) / 10);
			__ticks --;
    3604:	ce 01       	movw	r24, r28
    3606:	8c 58       	subi	r24, 0x8C	; 140
    3608:	9f 4f       	sbci	r25, 0xFF	; 255
    360a:	9e 01       	movw	r18, r28
    360c:	2c 58       	subi	r18, 0x8C	; 140
    360e:	3f 4f       	sbci	r19, 0xFF	; 255
    3610:	f9 01       	movw	r30, r18
    3612:	20 81       	ld	r18, Z
    3614:	31 81       	ldd	r19, Z+1	; 0x01
    3616:	21 50       	subi	r18, 0x01	; 1
    3618:	31 09       	sbc	r19, r1
    361a:	fc 01       	movw	r30, r24
    361c:	31 83       	std	Z+1, r19	; 0x01
    361e:	20 83       	st	Z, r18
		__ticks = 1;
	else if (__tmp > 65535)
	{
		//	__ticks = requested delay in 1/10 ms
		__ticks = (uint16_t) (__ms * 10.0);
		while(__ticks)
    3620:	ce 01       	movw	r24, r28
    3622:	8c 58       	subi	r24, 0x8C	; 140
    3624:	9f 4f       	sbci	r25, 0xFF	; 255
    3626:	fc 01       	movw	r30, r24
    3628:	80 81       	ld	r24, Z
    362a:	91 81       	ldd	r25, Z+1	; 0x01
    362c:	00 97       	sbiw	r24, 0x00	; 0
    362e:	89 f6       	brne	.-94     	; 0x35d2 <s_write_byte+0xa3c>
    3630:	58 c0       	rjmp	.+176    	; 0x36e2 <s_write_byte+0xb4c>
			__ticks --;
		}
		return;
	}
	else
		__ticks = (uint16_t)__tmp;
    3632:	8e 01       	movw	r16, r28
    3634:	0c 58       	subi	r16, 0x8C	; 140
    3636:	1f 4f       	sbci	r17, 0xFF	; 255
    3638:	ce 01       	movw	r24, r28
    363a:	80 59       	subi	r24, 0x90	; 144
    363c:	9f 4f       	sbci	r25, 0xFF	; 255
    363e:	fc 01       	movw	r30, r24
    3640:	60 81       	ld	r22, Z
    3642:	71 81       	ldd	r23, Z+1	; 0x01
    3644:	82 81       	ldd	r24, Z+2	; 0x02
    3646:	93 81       	ldd	r25, Z+3	; 0x03
    3648:	0e 94 48 34 	call	0x6890	; 0x6890 <__fixunssfsi>
    364c:	dc 01       	movw	r26, r24
    364e:	cb 01       	movw	r24, r22
    3650:	f8 01       	movw	r30, r16
    3652:	91 83       	std	Z+1, r25	; 0x01
    3654:	80 83       	st	Z, r24
    3656:	ce 01       	movw	r24, r28
    3658:	88 58       	subi	r24, 0x88	; 136
    365a:	9f 4f       	sbci	r25, 0xFF	; 255
    365c:	9e 01       	movw	r18, r28
    365e:	2c 58       	subi	r18, 0x8C	; 140
    3660:	3f 4f       	sbci	r19, 0xFF	; 255
    3662:	f9 01       	movw	r30, r18
    3664:	20 81       	ld	r18, Z
    3666:	31 81       	ldd	r19, Z+1	; 0x01
    3668:	fc 01       	movw	r30, r24
    366a:	31 83       	std	Z+1, r19	; 0x01
    366c:	20 83       	st	Z, r18
    366e:	ce 01       	movw	r24, r28
    3670:	88 58       	subi	r24, 0x88	; 136
    3672:	9f 4f       	sbci	r25, 0xFF	; 255
    3674:	fc 01       	movw	r30, r24
    3676:	80 81       	ld	r24, Z
    3678:	91 81       	ldd	r25, Z+1	; 0x01
    367a:	8c 01       	movw	r16, r24
    367c:	c8 01       	movw	r24, r16
    367e:	01 97       	sbiw	r24, 0x01	; 1
    3680:	f1 f7       	brne	.-4      	; 0x367e <s_write_byte+0xae8>
    3682:	8c 01       	movw	r16, r24
    3684:	ce 01       	movw	r24, r28
    3686:	88 58       	subi	r24, 0x88	; 136
    3688:	9f 4f       	sbci	r25, 0xFF	; 255
    368a:	fc 01       	movw	r30, r24
    368c:	11 83       	std	Z+1, r17	; 0x01
    368e:	00 83       	st	Z, r16
    3690:	28 c0       	rjmp	.+80     	; 0x36e2 <s_write_byte+0xb4c>
	{
		_delay_ms(__us / 1000.0);
		return;
	}
	else
		__ticks = (uint8_t)__tmp;
    3692:	8e 01       	movw	r16, r28
    3694:	05 59       	subi	r16, 0x95	; 149
    3696:	1f 4f       	sbci	r17, 0xFF	; 255
    3698:	ce 01       	movw	r24, r28
    369a:	89 59       	subi	r24, 0x99	; 153
    369c:	9f 4f       	sbci	r25, 0xFF	; 255
    369e:	fc 01       	movw	r30, r24
    36a0:	60 81       	ld	r22, Z
    36a2:	71 81       	ldd	r23, Z+1	; 0x01
    36a4:	82 81       	ldd	r24, Z+2	; 0x02
    36a6:	93 81       	ldd	r25, Z+3	; 0x03
    36a8:	0e 94 48 34 	call	0x6890	; 0x6890 <__fixunssfsi>
    36ac:	dc 01       	movw	r26, r24
    36ae:	cb 01       	movw	r24, r22
    36b0:	f8 01       	movw	r30, r16
    36b2:	80 83       	st	Z, r24
    36b4:	ce 01       	movw	r24, r28
    36b6:	86 58       	subi	r24, 0x86	; 134
    36b8:	9f 4f       	sbci	r25, 0xFF	; 255
    36ba:	9e 01       	movw	r18, r28
    36bc:	25 59       	subi	r18, 0x95	; 149
    36be:	3f 4f       	sbci	r19, 0xFF	; 255
    36c0:	f9 01       	movw	r30, r18
    36c2:	20 81       	ld	r18, Z
    36c4:	fc 01       	movw	r30, r24
    36c6:	20 83       	st	Z, r18
    can be achieved.
*/
void
_delay_loop_1(uint8_t __count)
{
	__asm__ volatile (
    36c8:	ce 01       	movw	r24, r28
    36ca:	86 58       	subi	r24, 0x86	; 134
    36cc:	9f 4f       	sbci	r25, 0xFF	; 255
    36ce:	fc 01       	movw	r30, r24
    36d0:	80 81       	ld	r24, Z
    36d2:	18 2f       	mov	r17, r24
    36d4:	1a 95       	dec	r17
    36d6:	f1 f7       	brne	.-4      	; 0x36d4 <s_write_byte+0xb3e>
    36d8:	ce 01       	movw	r24, r28
    36da:	86 58       	subi	r24, 0x86	; 134
    36dc:	9f 4f       	sbci	r25, 0xFF	; 255
    36de:	fc 01       	movw	r30, r24
    36e0:	10 83       	st	Z, r17
	_delay_us(3);

	DATAIN;
    36e2:	81 e6       	ldi	r24, 0x61	; 97
    36e4:	90 e0       	ldi	r25, 0x00	; 0
    36e6:	21 e6       	ldi	r18, 0x61	; 97
    36e8:	30 e0       	ldi	r19, 0x00	; 0
    36ea:	f9 01       	movw	r30, r18
    36ec:	20 81       	ld	r18, Z
    36ee:	2e 7f       	andi	r18, 0xFE	; 254
    36f0:	fc 01       	movw	r30, r24
    36f2:	20 83       	st	Z, r18
    36f4:	9e 01       	movw	r18, r28
    36f6:	25 58       	subi	r18, 0x85	; 133
    36f8:	3f 4f       	sbci	r19, 0xFF	; 255
    36fa:	80 e0       	ldi	r24, 0x00	; 0
    36fc:	90 e0       	ldi	r25, 0x00	; 0
    36fe:	a0 e4       	ldi	r26, 0x40	; 64
    3700:	b0 e4       	ldi	r27, 0x40	; 64
    3702:	f9 01       	movw	r30, r18
    3704:	80 83       	st	Z, r24
    3706:	91 83       	std	Z+1, r25	; 0x01
    3708:	a2 83       	std	Z+2, r26	; 0x02
    370a:	b3 83       	std	Z+3, r27	; 0x03
	#endif

	__builtin_avr_delay_cycles(__ticks_dc);

#else
	__tmp = ((F_CPU) / 3e6) * __us;
    370c:	8e 01       	movw	r16, r28
    370e:	01 58       	subi	r16, 0x81	; 129
    3710:	1f 4f       	sbci	r17, 0xFF	; 255
    3712:	ce 01       	movw	r24, r28
    3714:	85 58       	subi	r24, 0x85	; 133
    3716:	9f 4f       	sbci	r25, 0xFF	; 255
    3718:	2b ea       	ldi	r18, 0xAB	; 171
    371a:	3a ea       	ldi	r19, 0xAA	; 170
    371c:	4a ea       	ldi	r20, 0xAA	; 170
    371e:	50 e4       	ldi	r21, 0x40	; 64
    3720:	fc 01       	movw	r30, r24
    3722:	60 81       	ld	r22, Z
    3724:	71 81       	ldd	r23, Z+1	; 0x01
    3726:	82 81       	ldd	r24, Z+2	; 0x02
    3728:	93 81       	ldd	r25, Z+3	; 0x03
    372a:	0e 94 2d 36 	call	0x6c5a	; 0x6c5a <__mulsf3>
    372e:	dc 01       	movw	r26, r24
    3730:	cb 01       	movw	r24, r22
    3732:	f8 01       	movw	r30, r16
    3734:	80 83       	st	Z, r24
    3736:	91 83       	std	Z+1, r25	; 0x01
    3738:	a2 83       	std	Z+2, r26	; 0x02
    373a:	b3 83       	std	Z+3, r27	; 0x03
	if (__tmp < 1.0)
    373c:	ce 01       	movw	r24, r28
    373e:	81 58       	subi	r24, 0x81	; 129
    3740:	9f 4f       	sbci	r25, 0xFF	; 255
    3742:	20 e0       	ldi	r18, 0x00	; 0
    3744:	30 e0       	ldi	r19, 0x00	; 0
    3746:	40 e8       	ldi	r20, 0x80	; 128
    3748:	5f e3       	ldi	r21, 0x3F	; 63
    374a:	fc 01       	movw	r30, r24
    374c:	60 81       	ld	r22, Z
    374e:	71 81       	ldd	r23, Z+1	; 0x01
    3750:	82 81       	ldd	r24, Z+2	; 0x02
    3752:	93 81       	ldd	r25, Z+3	; 0x03
    3754:	0e 94 13 38 	call	0x7026	; 0x7026 <__ltsf2>
    3758:	88 23       	and	r24, r24
    375a:	3c f4       	brge	.+14     	; 0x376a <s_write_byte+0xbd4>
		__ticks = 1;
    375c:	ce 01       	movw	r24, r28
    375e:	8d 57       	subi	r24, 0x7D	; 125
    3760:	9f 4f       	sbci	r25, 0xFF	; 255
    3762:	21 e0       	ldi	r18, 0x01	; 1
    3764:	fc 01       	movw	r30, r24
    3766:	20 83       	st	Z, r18
    3768:	f9 c0       	rjmp	.+498    	; 0x395c <s_write_byte+0xdc6>
	else if (__tmp > 255)
    376a:	ce 01       	movw	r24, r28
    376c:	81 58       	subi	r24, 0x81	; 129
    376e:	9f 4f       	sbci	r25, 0xFF	; 255
    3770:	20 e0       	ldi	r18, 0x00	; 0
    3772:	30 e0       	ldi	r19, 0x00	; 0
    3774:	4f e7       	ldi	r20, 0x7F	; 127
    3776:	53 e4       	ldi	r21, 0x43	; 67
    3778:	fc 01       	movw	r30, r24
    377a:	60 81       	ld	r22, Z
    377c:	71 81       	ldd	r23, Z+1	; 0x01
    377e:	82 81       	ldd	r24, Z+2	; 0x02
    3780:	93 81       	ldd	r25, Z+3	; 0x03
    3782:	0e 94 b5 37 	call	0x6f6a	; 0x6f6a <__gtsf2>
    3786:	18 16       	cp	r1, r24
    3788:	0c f0       	brlt	.+2      	; 0x378c <s_write_byte+0xbf6>
    378a:	d7 c0       	rjmp	.+430    	; 0x393a <s_write_byte+0xda4>
	{
		_delay_ms(__us / 1000.0);
    378c:	ce 01       	movw	r24, r28
    378e:	85 58       	subi	r24, 0x85	; 133
    3790:	9f 4f       	sbci	r25, 0xFF	; 255
    3792:	20 e0       	ldi	r18, 0x00	; 0
    3794:	30 e0       	ldi	r19, 0x00	; 0
    3796:	4a e7       	ldi	r20, 0x7A	; 122
    3798:	54 e4       	ldi	r21, 0x44	; 68
    379a:	fc 01       	movw	r30, r24
    379c:	60 81       	ld	r22, Z
    379e:	71 81       	ldd	r23, Z+1	; 0x01
    37a0:	82 81       	ldd	r24, Z+2	; 0x02
    37a2:	93 81       	ldd	r25, Z+3	; 0x03
    37a4:	0e 94 12 37 	call	0x6e24	; 0x6e24 <__divsf3>
    37a8:	dc 01       	movw	r26, r24
    37aa:	cb 01       	movw	r24, r22
    37ac:	9e 01       	movw	r18, r28
    37ae:	2c 57       	subi	r18, 0x7C	; 124
    37b0:	3f 4f       	sbci	r19, 0xFF	; 255
    37b2:	f9 01       	movw	r30, r18
    37b4:	80 83       	st	Z, r24
    37b6:	91 83       	std	Z+1, r25	; 0x01
    37b8:	a2 83       	std	Z+2, r26	; 0x02
    37ba:	b3 83       	std	Z+3, r27	; 0x03
	#endif

	__builtin_avr_delay_cycles(__ticks_dc);

#else
	__tmp = ((F_CPU) / 4e3) * __ms;
    37bc:	8e 01       	movw	r16, r28
    37be:	08 57       	subi	r16, 0x78	; 120
    37c0:	1f 4f       	sbci	r17, 0xFF	; 255
    37c2:	ce 01       	movw	r24, r28
    37c4:	8c 57       	subi	r24, 0x7C	; 124
    37c6:	9f 4f       	sbci	r25, 0xFF	; 255
    37c8:	20 e0       	ldi	r18, 0x00	; 0
    37ca:	30 e0       	ldi	r19, 0x00	; 0
    37cc:	4a e7       	ldi	r20, 0x7A	; 122
    37ce:	55 e4       	ldi	r21, 0x45	; 69
    37d0:	fc 01       	movw	r30, r24
    37d2:	60 81       	ld	r22, Z
    37d4:	71 81       	ldd	r23, Z+1	; 0x01
    37d6:	82 81       	ldd	r24, Z+2	; 0x02
    37d8:	93 81       	ldd	r25, Z+3	; 0x03
    37da:	0e 94 2d 36 	call	0x6c5a	; 0x6c5a <__mulsf3>
    37de:	dc 01       	movw	r26, r24
    37e0:	cb 01       	movw	r24, r22
    37e2:	f8 01       	movw	r30, r16
    37e4:	80 83       	st	Z, r24
    37e6:	91 83       	std	Z+1, r25	; 0x01
    37e8:	a2 83       	std	Z+2, r26	; 0x02
    37ea:	b3 83       	std	Z+3, r27	; 0x03
	if (__tmp < 1.0)
    37ec:	ce 01       	movw	r24, r28
    37ee:	88 57       	subi	r24, 0x78	; 120
    37f0:	9f 4f       	sbci	r25, 0xFF	; 255
    37f2:	20 e0       	ldi	r18, 0x00	; 0
    37f4:	30 e0       	ldi	r19, 0x00	; 0
    37f6:	40 e8       	ldi	r20, 0x80	; 128
    37f8:	5f e3       	ldi	r21, 0x3F	; 63
    37fa:	fc 01       	movw	r30, r24
    37fc:	60 81       	ld	r22, Z
    37fe:	71 81       	ldd	r23, Z+1	; 0x01
    3800:	82 81       	ldd	r24, Z+2	; 0x02
    3802:	93 81       	ldd	r25, Z+3	; 0x03
    3804:	0e 94 13 38 	call	0x7026	; 0x7026 <__ltsf2>
    3808:	88 23       	and	r24, r24
    380a:	4c f4       	brge	.+18     	; 0x381e <s_write_byte+0xc88>
		__ticks = 1;
    380c:	ce 01       	movw	r24, r28
    380e:	84 57       	subi	r24, 0x74	; 116
    3810:	9f 4f       	sbci	r25, 0xFF	; 255
    3812:	21 e0       	ldi	r18, 0x01	; 1
    3814:	30 e0       	ldi	r19, 0x00	; 0
    3816:	fc 01       	movw	r30, r24
    3818:	31 83       	std	Z+1, r19	; 0x01
    381a:	20 83       	st	Z, r18
    381c:	70 c0       	rjmp	.+224    	; 0x38fe <s_write_byte+0xd68>
	else if (__tmp > 65535)
    381e:	ce 01       	movw	r24, r28
    3820:	88 57       	subi	r24, 0x78	; 120
    3822:	9f 4f       	sbci	r25, 0xFF	; 255
    3824:	20 e0       	ldi	r18, 0x00	; 0
    3826:	3f ef       	ldi	r19, 0xFF	; 255
    3828:	4f e7       	ldi	r20, 0x7F	; 127
    382a:	57 e4       	ldi	r21, 0x47	; 71
    382c:	fc 01       	movw	r30, r24
    382e:	60 81       	ld	r22, Z
    3830:	71 81       	ldd	r23, Z+1	; 0x01
    3832:	82 81       	ldd	r24, Z+2	; 0x02
    3834:	93 81       	ldd	r25, Z+3	; 0x03
    3836:	0e 94 b5 37 	call	0x6f6a	; 0x6f6a <__gtsf2>
    383a:	18 16       	cp	r1, r24
    383c:	0c f0       	brlt	.+2      	; 0x3840 <s_write_byte+0xcaa>
    383e:	4d c0       	rjmp	.+154    	; 0x38da <s_write_byte+0xd44>
	{
		//	__ticks = requested delay in 1/10 ms
		__ticks = (uint16_t) (__ms * 10.0);
    3840:	ce 01       	movw	r24, r28
    3842:	8c 57       	subi	r24, 0x7C	; 124
    3844:	9f 4f       	sbci	r25, 0xFF	; 255
    3846:	20 e0       	ldi	r18, 0x00	; 0
    3848:	30 e0       	ldi	r19, 0x00	; 0
    384a:	40 e2       	ldi	r20, 0x20	; 32
    384c:	51 e4       	ldi	r21, 0x41	; 65
    384e:	fc 01       	movw	r30, r24
    3850:	60 81       	ld	r22, Z
    3852:	71 81       	ldd	r23, Z+1	; 0x01
    3854:	82 81       	ldd	r24, Z+2	; 0x02
    3856:	93 81       	ldd	r25, Z+3	; 0x03
    3858:	0e 94 2d 36 	call	0x6c5a	; 0x6c5a <__mulsf3>
    385c:	dc 01       	movw	r26, r24
    385e:	cb 01       	movw	r24, r22
    3860:	8e 01       	movw	r16, r28
    3862:	04 57       	subi	r16, 0x74	; 116
    3864:	1f 4f       	sbci	r17, 0xFF	; 255
    3866:	bc 01       	movw	r22, r24
    3868:	cd 01       	movw	r24, r26
    386a:	0e 94 48 34 	call	0x6890	; 0x6890 <__fixunssfsi>
    386e:	dc 01       	movw	r26, r24
    3870:	cb 01       	movw	r24, r22
    3872:	f8 01       	movw	r30, r16
    3874:	91 83       	std	Z+1, r25	; 0x01
    3876:	80 83       	st	Z, r24
    3878:	27 c0       	rjmp	.+78     	; 0x38c8 <s_write_byte+0xd32>
    387a:	ce 01       	movw	r24, r28
    387c:	82 57       	subi	r24, 0x72	; 114
    387e:	9f 4f       	sbci	r25, 0xFF	; 255
    3880:	20 e9       	ldi	r18, 0x90	; 144
    3882:	31 e0       	ldi	r19, 0x01	; 1
    3884:	fc 01       	movw	r30, r24
    3886:	31 83       	std	Z+1, r19	; 0x01
    3888:	20 83       	st	Z, r18
    milliseconds can be achieved.
 */
void
_delay_loop_2(uint16_t __count)
{
	__asm__ volatile (
    388a:	ce 01       	movw	r24, r28
    388c:	82 57       	subi	r24, 0x72	; 114
    388e:	9f 4f       	sbci	r25, 0xFF	; 255
    3890:	fc 01       	movw	r30, r24
    3892:	80 81       	ld	r24, Z
    3894:	91 81       	ldd	r25, Z+1	; 0x01
    3896:	8c 01       	movw	r16, r24
    3898:	c8 01       	movw	r24, r16
    389a:	01 97       	sbiw	r24, 0x01	; 1
    389c:	f1 f7       	brne	.-4      	; 0x389a <s_write_byte+0xd04>
    389e:	8c 01       	movw	r16, r24
    38a0:	ce 01       	movw	r24, r28
    38a2:	82 57       	subi	r24, 0x72	; 114
    38a4:	9f 4f       	sbci	r25, 0xFF	; 255
    38a6:	fc 01       	movw	r30, r24
    38a8:	11 83       	std	Z+1, r17	; 0x01
    38aa:	00 83       	st	Z, r16
		while(__ticks)
		{
			// wait 1/10 ms
			_delay_loop_2(((F_CPU) / 4e3) / 10);
			__ticks --;
    38ac:	ce 01       	movw	r24, r28
    38ae:	84 57       	subi	r24, 0x74	; 116
    38b0:	9f 4f       	sbci	r25, 0xFF	; 255
    38b2:	9e 01       	movw	r18, r28
    38b4:	24 57       	subi	r18, 0x74	; 116
    38b6:	3f 4f       	sbci	r19, 0xFF	; 255
    38b8:	f9 01       	movw	r30, r18
    38ba:	20 81       	ld	r18, Z
    38bc:	31 81       	ldd	r19, Z+1	; 0x01
    38be:	21 50       	subi	r18, 0x01	; 1
    38c0:	31 09       	sbc	r19, r1
    38c2:	fc 01       	movw	r30, r24
    38c4:	31 83       	std	Z+1, r19	; 0x01
    38c6:	20 83       	st	Z, r18
		__ticks = 1;
	else if (__tmp > 65535)
	{
		//	__ticks = requested delay in 1/10 ms
		__ticks = (uint16_t) (__ms * 10.0);
		while(__ticks)
    38c8:	ce 01       	movw	r24, r28
    38ca:	84 57       	subi	r24, 0x74	; 116
    38cc:	9f 4f       	sbci	r25, 0xFF	; 255
    38ce:	fc 01       	movw	r30, r24
    38d0:	80 81       	ld	r24, Z
    38d2:	91 81       	ldd	r25, Z+1	; 0x01
    38d4:	00 97       	sbiw	r24, 0x00	; 0
    38d6:	89 f6       	brne	.-94     	; 0x387a <s_write_byte+0xce4>
    38d8:	58 c0       	rjmp	.+176    	; 0x398a <s_write_byte+0xdf4>
			__ticks --;
		}
		return;
	}
	else
		__ticks = (uint16_t)__tmp;
    38da:	8e 01       	movw	r16, r28
    38dc:	04 57       	subi	r16, 0x74	; 116
    38de:	1f 4f       	sbci	r17, 0xFF	; 255
    38e0:	ce 01       	movw	r24, r28
    38e2:	88 57       	subi	r24, 0x78	; 120
    38e4:	9f 4f       	sbci	r25, 0xFF	; 255
    38e6:	fc 01       	movw	r30, r24
    38e8:	60 81       	ld	r22, Z
    38ea:	71 81       	ldd	r23, Z+1	; 0x01
    38ec:	82 81       	ldd	r24, Z+2	; 0x02
    38ee:	93 81       	ldd	r25, Z+3	; 0x03
    38f0:	0e 94 48 34 	call	0x6890	; 0x6890 <__fixunssfsi>
    38f4:	dc 01       	movw	r26, r24
    38f6:	cb 01       	movw	r24, r22
    38f8:	f8 01       	movw	r30, r16
    38fa:	91 83       	std	Z+1, r25	; 0x01
    38fc:	80 83       	st	Z, r24
    38fe:	ce 01       	movw	r24, r28
    3900:	80 57       	subi	r24, 0x70	; 112
    3902:	9f 4f       	sbci	r25, 0xFF	; 255
    3904:	9e 01       	movw	r18, r28
    3906:	24 57       	subi	r18, 0x74	; 116
    3908:	3f 4f       	sbci	r19, 0xFF	; 255
    390a:	f9 01       	movw	r30, r18
    390c:	20 81       	ld	r18, Z
    390e:	31 81       	ldd	r19, Z+1	; 0x01
    3910:	fc 01       	movw	r30, r24
    3912:	31 83       	std	Z+1, r19	; 0x01
    3914:	20 83       	st	Z, r18
    3916:	ce 01       	movw	r24, r28
    3918:	80 57       	subi	r24, 0x70	; 112
    391a:	9f 4f       	sbci	r25, 0xFF	; 255
    391c:	fc 01       	movw	r30, r24
    391e:	80 81       	ld	r24, Z
    3920:	91 81       	ldd	r25, Z+1	; 0x01
    3922:	8c 01       	movw	r16, r24
    3924:	c8 01       	movw	r24, r16
    3926:	01 97       	sbiw	r24, 0x01	; 1
    3928:	f1 f7       	brne	.-4      	; 0x3926 <s_write_byte+0xd90>
    392a:	8c 01       	movw	r16, r24
    392c:	ce 01       	movw	r24, r28
    392e:	80 57       	subi	r24, 0x70	; 112
    3930:	9f 4f       	sbci	r25, 0xFF	; 255
    3932:	fc 01       	movw	r30, r24
    3934:	11 83       	std	Z+1, r17	; 0x01
    3936:	00 83       	st	Z, r16
    3938:	28 c0       	rjmp	.+80     	; 0x398a <s_write_byte+0xdf4>
	{
		_delay_ms(__us / 1000.0);
		return;
	}
	else
		__ticks = (uint8_t)__tmp;
    393a:	8e 01       	movw	r16, r28
    393c:	0d 57       	subi	r16, 0x7D	; 125
    393e:	1f 4f       	sbci	r17, 0xFF	; 255
    3940:	ce 01       	movw	r24, r28
    3942:	81 58       	subi	r24, 0x81	; 129
    3944:	9f 4f       	sbci	r25, 0xFF	; 255
    3946:	fc 01       	movw	r30, r24
    3948:	60 81       	ld	r22, Z
    394a:	71 81       	ldd	r23, Z+1	; 0x01
    394c:	82 81       	ldd	r24, Z+2	; 0x02
    394e:	93 81       	ldd	r25, Z+3	; 0x03
    3950:	0e 94 48 34 	call	0x6890	; 0x6890 <__fixunssfsi>
    3954:	dc 01       	movw	r26, r24
    3956:	cb 01       	movw	r24, r22
    3958:	f8 01       	movw	r30, r16
    395a:	80 83       	st	Z, r24
    395c:	ce 01       	movw	r24, r28
    395e:	8e 56       	subi	r24, 0x6E	; 110
    3960:	9f 4f       	sbci	r25, 0xFF	; 255
    3962:	9e 01       	movw	r18, r28
    3964:	2d 57       	subi	r18, 0x7D	; 125
    3966:	3f 4f       	sbci	r19, 0xFF	; 255
    3968:	f9 01       	movw	r30, r18
    396a:	20 81       	ld	r18, Z
    396c:	fc 01       	movw	r30, r24
    396e:	20 83       	st	Z, r18
    can be achieved.
*/
void
_delay_loop_1(uint8_t __count)
{
	__asm__ volatile (
    3970:	ce 01       	movw	r24, r28
    3972:	8e 56       	subi	r24, 0x6E	; 110
    3974:	9f 4f       	sbci	r25, 0xFF	; 255
    3976:	fc 01       	movw	r30, r24
    3978:	80 81       	ld	r24, Z
    397a:	18 2f       	mov	r17, r24
    397c:	1a 95       	dec	r17
    397e:	f1 f7       	brne	.-4      	; 0x397c <s_write_byte+0xde6>
    3980:	ce 01       	movw	r24, r28
    3982:	8e 56       	subi	r24, 0x6E	; 110
    3984:	9f 4f       	sbci	r25, 0xFF	; 255
    3986:	fc 01       	movw	r30, r24
    3988:	10 83       	st	Z, r17
	_delay_us(3);

	if(DATA_IN) 
    398a:	80 e2       	ldi	r24, 0x20	; 32
    398c:	90 e0       	ldi	r25, 0x00	; 0
    398e:	fc 01       	movw	r30, r24
    3990:	80 81       	ld	r24, Z
    3992:	88 2f       	mov	r24, r24
    3994:	90 e0       	ldi	r25, 0x00	; 0
    3996:	81 70       	andi	r24, 0x01	; 1
    3998:	99 27       	eor	r25, r25
    399a:	00 97       	sbiw	r24, 0x00	; 0
    399c:	19 f0       	breq	.+6      	; 0x39a4 <s_write_byte+0xe0e>
		error=1; 
    399e:	81 e0       	ldi	r24, 0x01	; 1
    39a0:	8a 83       	std	Y+2, r24	; 0x02
    39a2:	01 c0       	rjmp	.+2      	; 0x39a6 <s_write_byte+0xe10>
	else 
		error=0;  
    39a4:	1a 82       	std	Y+2, r1	; 0x02

	SHT_SCK_0;
    39a6:	82 e6       	ldi	r24, 0x62	; 98
    39a8:	90 e0       	ldi	r25, 0x00	; 0
    39aa:	22 e6       	ldi	r18, 0x62	; 98
    39ac:	30 e0       	ldi	r19, 0x00	; 0
    39ae:	f9 01       	movw	r30, r18
    39b0:	20 81       	ld	r18, Z
    39b2:	2d 7f       	andi	r18, 0xFD	; 253
    39b4:	fc 01       	movw	r30, r24
    39b6:	20 83       	st	Z, r18
    39b8:	9e 01       	movw	r18, r28
    39ba:	2d 56       	subi	r18, 0x6D	; 109
    39bc:	3f 4f       	sbci	r19, 0xFF	; 255
    39be:	80 e0       	ldi	r24, 0x00	; 0
    39c0:	90 e0       	ldi	r25, 0x00	; 0
    39c2:	a8 ec       	ldi	r26, 0xC8	; 200
    39c4:	b3 e4       	ldi	r27, 0x43	; 67
    39c6:	f9 01       	movw	r30, r18
    39c8:	80 83       	st	Z, r24
    39ca:	91 83       	std	Z+1, r25	; 0x01
    39cc:	a2 83       	std	Z+2, r26	; 0x02
    39ce:	b3 83       	std	Z+3, r27	; 0x03
	#endif

	__builtin_avr_delay_cycles(__ticks_dc);

#else
	__tmp = ((F_CPU) / 4e3) * __ms;
    39d0:	8e 01       	movw	r16, r28
    39d2:	09 56       	subi	r16, 0x69	; 105
    39d4:	1f 4f       	sbci	r17, 0xFF	; 255
    39d6:	ce 01       	movw	r24, r28
    39d8:	8d 56       	subi	r24, 0x6D	; 109
    39da:	9f 4f       	sbci	r25, 0xFF	; 255
    39dc:	20 e0       	ldi	r18, 0x00	; 0
    39de:	30 e0       	ldi	r19, 0x00	; 0
    39e0:	4a e7       	ldi	r20, 0x7A	; 122
    39e2:	55 e4       	ldi	r21, 0x45	; 69
    39e4:	fc 01       	movw	r30, r24
    39e6:	60 81       	ld	r22, Z
    39e8:	71 81       	ldd	r23, Z+1	; 0x01
    39ea:	82 81       	ldd	r24, Z+2	; 0x02
    39ec:	93 81       	ldd	r25, Z+3	; 0x03
    39ee:	0e 94 2d 36 	call	0x6c5a	; 0x6c5a <__mulsf3>
    39f2:	dc 01       	movw	r26, r24
    39f4:	cb 01       	movw	r24, r22
    39f6:	f8 01       	movw	r30, r16
    39f8:	80 83       	st	Z, r24
    39fa:	91 83       	std	Z+1, r25	; 0x01
    39fc:	a2 83       	std	Z+2, r26	; 0x02
    39fe:	b3 83       	std	Z+3, r27	; 0x03
	if (__tmp < 1.0)
    3a00:	ce 01       	movw	r24, r28
    3a02:	89 56       	subi	r24, 0x69	; 105
    3a04:	9f 4f       	sbci	r25, 0xFF	; 255
    3a06:	20 e0       	ldi	r18, 0x00	; 0
    3a08:	30 e0       	ldi	r19, 0x00	; 0
    3a0a:	40 e8       	ldi	r20, 0x80	; 128
    3a0c:	5f e3       	ldi	r21, 0x3F	; 63
    3a0e:	fc 01       	movw	r30, r24
    3a10:	60 81       	ld	r22, Z
    3a12:	71 81       	ldd	r23, Z+1	; 0x01
    3a14:	82 81       	ldd	r24, Z+2	; 0x02
    3a16:	93 81       	ldd	r25, Z+3	; 0x03
    3a18:	0e 94 13 38 	call	0x7026	; 0x7026 <__ltsf2>
    3a1c:	88 23       	and	r24, r24
    3a1e:	4c f4       	brge	.+18     	; 0x3a32 <s_write_byte+0xe9c>
		__ticks = 1;
    3a20:	ce 01       	movw	r24, r28
    3a22:	85 56       	subi	r24, 0x65	; 101
    3a24:	9f 4f       	sbci	r25, 0xFF	; 255
    3a26:	21 e0       	ldi	r18, 0x01	; 1
    3a28:	30 e0       	ldi	r19, 0x00	; 0
    3a2a:	fc 01       	movw	r30, r24
    3a2c:	31 83       	std	Z+1, r19	; 0x01
    3a2e:	20 83       	st	Z, r18
    3a30:	70 c0       	rjmp	.+224    	; 0x3b12 <s_write_byte+0xf7c>
	else if (__tmp > 65535)
    3a32:	ce 01       	movw	r24, r28
    3a34:	89 56       	subi	r24, 0x69	; 105
    3a36:	9f 4f       	sbci	r25, 0xFF	; 255
    3a38:	20 e0       	ldi	r18, 0x00	; 0
    3a3a:	3f ef       	ldi	r19, 0xFF	; 255
    3a3c:	4f e7       	ldi	r20, 0x7F	; 127
    3a3e:	57 e4       	ldi	r21, 0x47	; 71
    3a40:	fc 01       	movw	r30, r24
    3a42:	60 81       	ld	r22, Z
    3a44:	71 81       	ldd	r23, Z+1	; 0x01
    3a46:	82 81       	ldd	r24, Z+2	; 0x02
    3a48:	93 81       	ldd	r25, Z+3	; 0x03
    3a4a:	0e 94 b5 37 	call	0x6f6a	; 0x6f6a <__gtsf2>
    3a4e:	18 16       	cp	r1, r24
    3a50:	0c f0       	brlt	.+2      	; 0x3a54 <s_write_byte+0xebe>
    3a52:	4d c0       	rjmp	.+154    	; 0x3aee <s_write_byte+0xf58>
	{
		//	__ticks = requested delay in 1/10 ms
		__ticks = (uint16_t) (__ms * 10.0);
    3a54:	ce 01       	movw	r24, r28
    3a56:	8d 56       	subi	r24, 0x6D	; 109
    3a58:	9f 4f       	sbci	r25, 0xFF	; 255
    3a5a:	20 e0       	ldi	r18, 0x00	; 0
    3a5c:	30 e0       	ldi	r19, 0x00	; 0
    3a5e:	40 e2       	ldi	r20, 0x20	; 32
    3a60:	51 e4       	ldi	r21, 0x41	; 65
    3a62:	fc 01       	movw	r30, r24
    3a64:	60 81       	ld	r22, Z
    3a66:	71 81       	ldd	r23, Z+1	; 0x01
    3a68:	82 81       	ldd	r24, Z+2	; 0x02
    3a6a:	93 81       	ldd	r25, Z+3	; 0x03
    3a6c:	0e 94 2d 36 	call	0x6c5a	; 0x6c5a <__mulsf3>
    3a70:	dc 01       	movw	r26, r24
    3a72:	cb 01       	movw	r24, r22
    3a74:	8e 01       	movw	r16, r28
    3a76:	05 56       	subi	r16, 0x65	; 101
    3a78:	1f 4f       	sbci	r17, 0xFF	; 255
    3a7a:	bc 01       	movw	r22, r24
    3a7c:	cd 01       	movw	r24, r26
    3a7e:	0e 94 48 34 	call	0x6890	; 0x6890 <__fixunssfsi>
    3a82:	dc 01       	movw	r26, r24
    3a84:	cb 01       	movw	r24, r22
    3a86:	f8 01       	movw	r30, r16
    3a88:	91 83       	std	Z+1, r25	; 0x01
    3a8a:	80 83       	st	Z, r24
    3a8c:	27 c0       	rjmp	.+78     	; 0x3adc <s_write_byte+0xf46>
    3a8e:	ce 01       	movw	r24, r28
    3a90:	83 56       	subi	r24, 0x63	; 99
    3a92:	9f 4f       	sbci	r25, 0xFF	; 255
    3a94:	20 e9       	ldi	r18, 0x90	; 144
    3a96:	31 e0       	ldi	r19, 0x01	; 1
    3a98:	fc 01       	movw	r30, r24
    3a9a:	31 83       	std	Z+1, r19	; 0x01
    3a9c:	20 83       	st	Z, r18
    milliseconds can be achieved.
 */
void
_delay_loop_2(uint16_t __count)
{
	__asm__ volatile (
    3a9e:	ce 01       	movw	r24, r28
    3aa0:	83 56       	subi	r24, 0x63	; 99
    3aa2:	9f 4f       	sbci	r25, 0xFF	; 255
    3aa4:	fc 01       	movw	r30, r24
    3aa6:	80 81       	ld	r24, Z
    3aa8:	91 81       	ldd	r25, Z+1	; 0x01
    3aaa:	8c 01       	movw	r16, r24
    3aac:	c8 01       	movw	r24, r16
    3aae:	01 97       	sbiw	r24, 0x01	; 1
    3ab0:	f1 f7       	brne	.-4      	; 0x3aae <s_write_byte+0xf18>
    3ab2:	8c 01       	movw	r16, r24
    3ab4:	ce 01       	movw	r24, r28
    3ab6:	83 56       	subi	r24, 0x63	; 99
    3ab8:	9f 4f       	sbci	r25, 0xFF	; 255
    3aba:	fc 01       	movw	r30, r24
    3abc:	11 83       	std	Z+1, r17	; 0x01
    3abe:	00 83       	st	Z, r16
		while(__ticks)
		{
			// wait 1/10 ms
			_delay_loop_2(((F_CPU) / 4e3) / 10);
			__ticks --;
    3ac0:	ce 01       	movw	r24, r28
    3ac2:	85 56       	subi	r24, 0x65	; 101
    3ac4:	9f 4f       	sbci	r25, 0xFF	; 255
    3ac6:	9e 01       	movw	r18, r28
    3ac8:	25 56       	subi	r18, 0x65	; 101
    3aca:	3f 4f       	sbci	r19, 0xFF	; 255
    3acc:	f9 01       	movw	r30, r18
    3ace:	20 81       	ld	r18, Z
    3ad0:	31 81       	ldd	r19, Z+1	; 0x01
    3ad2:	21 50       	subi	r18, 0x01	; 1
    3ad4:	31 09       	sbc	r19, r1
    3ad6:	fc 01       	movw	r30, r24
    3ad8:	31 83       	std	Z+1, r19	; 0x01
    3ada:	20 83       	st	Z, r18
		__ticks = 1;
	else if (__tmp > 65535)
	{
		//	__ticks = requested delay in 1/10 ms
		__ticks = (uint16_t) (__ms * 10.0);
		while(__ticks)
    3adc:	ce 01       	movw	r24, r28
    3ade:	85 56       	subi	r24, 0x65	; 101
    3ae0:	9f 4f       	sbci	r25, 0xFF	; 255
    3ae2:	fc 01       	movw	r30, r24
    3ae4:	80 81       	ld	r24, Z
    3ae6:	91 81       	ldd	r25, Z+1	; 0x01
    3ae8:	00 97       	sbiw	r24, 0x00	; 0
    3aea:	89 f6       	brne	.-94     	; 0x3a8e <s_write_byte+0xef8>
    3aec:	2f c0       	rjmp	.+94     	; 0x3b4c <s_write_byte+0xfb6>
			__ticks --;
		}
		return;
	}
	else
		__ticks = (uint16_t)__tmp;
    3aee:	8e 01       	movw	r16, r28
    3af0:	05 56       	subi	r16, 0x65	; 101
    3af2:	1f 4f       	sbci	r17, 0xFF	; 255
    3af4:	ce 01       	movw	r24, r28
    3af6:	89 56       	subi	r24, 0x69	; 105
    3af8:	9f 4f       	sbci	r25, 0xFF	; 255
    3afa:	fc 01       	movw	r30, r24
    3afc:	60 81       	ld	r22, Z
    3afe:	71 81       	ldd	r23, Z+1	; 0x01
    3b00:	82 81       	ldd	r24, Z+2	; 0x02
    3b02:	93 81       	ldd	r25, Z+3	; 0x03
    3b04:	0e 94 48 34 	call	0x6890	; 0x6890 <__fixunssfsi>
    3b08:	dc 01       	movw	r26, r24
    3b0a:	cb 01       	movw	r24, r22
    3b0c:	f8 01       	movw	r30, r16
    3b0e:	91 83       	std	Z+1, r25	; 0x01
    3b10:	80 83       	st	Z, r24
    3b12:	ce 01       	movw	r24, r28
    3b14:	81 56       	subi	r24, 0x61	; 97
    3b16:	9f 4f       	sbci	r25, 0xFF	; 255
    3b18:	9e 01       	movw	r18, r28
    3b1a:	25 56       	subi	r18, 0x65	; 101
    3b1c:	3f 4f       	sbci	r19, 0xFF	; 255
    3b1e:	f9 01       	movw	r30, r18
    3b20:	20 81       	ld	r18, Z
    3b22:	31 81       	ldd	r19, Z+1	; 0x01
    3b24:	fc 01       	movw	r30, r24
    3b26:	31 83       	std	Z+1, r19	; 0x01
    3b28:	20 83       	st	Z, r18
    3b2a:	ce 01       	movw	r24, r28
    3b2c:	81 56       	subi	r24, 0x61	; 97
    3b2e:	9f 4f       	sbci	r25, 0xFF	; 255
    3b30:	fc 01       	movw	r30, r24
    3b32:	80 81       	ld	r24, Z
    3b34:	91 81       	ldd	r25, Z+1	; 0x01
    3b36:	8c 01       	movw	r16, r24
    3b38:	c8 01       	movw	r24, r16
    3b3a:	01 97       	sbiw	r24, 0x01	; 1
    3b3c:	f1 f7       	brne	.-4      	; 0x3b3a <s_write_byte+0xfa4>
    3b3e:	8c 01       	movw	r16, r24
    3b40:	ce 01       	movw	r24, r28
    3b42:	81 56       	subi	r24, 0x61	; 97
    3b44:	9f 4f       	sbci	r25, 0xFF	; 255
    3b46:	fc 01       	movw	r30, r24
    3b48:	11 83       	std	Z+1, r17	; 0x01
    3b4a:	00 83       	st	Z, r16
	_delay_ms(400);

	return error; 
    3b4c:	8a 81       	ldd	r24, Y+2	; 0x02
}
    3b4e:	cf 55       	subi	r28, 0x5F	; 95
    3b50:	df 4f       	sbci	r29, 0xFF	; 255
    3b52:	0f b6       	in	r0, 0x3f	; 63
    3b54:	f8 94       	cli
    3b56:	de bf       	out	0x3e, r29	; 62
    3b58:	0f be       	out	0x3f, r0	; 63
    3b5a:	cd bf       	out	0x3d, r28	; 61
    3b5c:	df 91       	pop	r29
    3b5e:	cf 91       	pop	r28
    3b60:	1f 91       	pop	r17
    3b62:	0f 91       	pop	r16
    3b64:	08 95       	ret

00003b66 <s_read_byte>:

char s_read_byte(unsigned  char  ack)
{
    3b66:	0f 93       	push	r16
    3b68:	1f 93       	push	r17
    3b6a:	cf 93       	push	r28
    3b6c:	df 93       	push	r29
    3b6e:	cd b7       	in	r28, 0x3d	; 61
    3b70:	de b7       	in	r29, 0x3e	; 62
    3b72:	c3 5c       	subi	r28, 0xC3	; 195
    3b74:	d1 09       	sbc	r29, r1
    3b76:	0f b6       	in	r0, 0x3f	; 63
    3b78:	f8 94       	cli
    3b7a:	de bf       	out	0x3e, r29	; 62
    3b7c:	0f be       	out	0x3f, r0	; 63
    3b7e:	cd bf       	out	0x3d, r28	; 61
    3b80:	9e 01       	movw	r18, r28
    3b82:	2d 53       	subi	r18, 0x3D	; 61
    3b84:	3f 4f       	sbci	r19, 0xFF	; 255
    3b86:	f9 01       	movw	r30, r18
    3b88:	80 83       	st	Z, r24
	unsigned char  i, val = 0;
    3b8a:	1a 82       	std	Y+2, r1	; 0x02
	DATAOUT; 
    3b8c:	81 e6       	ldi	r24, 0x61	; 97
    3b8e:	90 e0       	ldi	r25, 0x00	; 0
    3b90:	21 e6       	ldi	r18, 0x61	; 97
    3b92:	30 e0       	ldi	r19, 0x00	; 0
    3b94:	f9 01       	movw	r30, r18
    3b96:	20 81       	ld	r18, Z
    3b98:	21 60       	ori	r18, 0x01	; 1
    3b9a:	fc 01       	movw	r30, r24
    3b9c:	20 83       	st	Z, r18
	SHTOUT;
    3b9e:	81 e6       	ldi	r24, 0x61	; 97
    3ba0:	90 e0       	ldi	r25, 0x00	; 0
    3ba2:	21 e6       	ldi	r18, 0x61	; 97
    3ba4:	30 e0       	ldi	r19, 0x00	; 0
    3ba6:	f9 01       	movw	r30, r18
    3ba8:	20 81       	ld	r18, Z
    3baa:	22 60       	ori	r18, 0x02	; 2
    3bac:	fc 01       	movw	r30, r24
    3bae:	20 83       	st	Z, r18
    3bb0:	80 e0       	ldi	r24, 0x00	; 0
    3bb2:	90 e0       	ldi	r25, 0x00	; 0
    3bb4:	a0 e4       	ldi	r26, 0x40	; 64
    3bb6:	b0 e4       	ldi	r27, 0x40	; 64
    3bb8:	8b 83       	std	Y+3, r24	; 0x03
    3bba:	9c 83       	std	Y+4, r25	; 0x04
    3bbc:	ad 83       	std	Y+5, r26	; 0x05
    3bbe:	be 83       	std	Y+6, r27	; 0x06
	#endif

	__builtin_avr_delay_cycles(__ticks_dc);

#else
	__tmp = ((F_CPU) / 3e6) * __us;
    3bc0:	2b ea       	ldi	r18, 0xAB	; 171
    3bc2:	3a ea       	ldi	r19, 0xAA	; 170
    3bc4:	4a ea       	ldi	r20, 0xAA	; 170
    3bc6:	50 e4       	ldi	r21, 0x40	; 64
    3bc8:	6b 81       	ldd	r22, Y+3	; 0x03
    3bca:	7c 81       	ldd	r23, Y+4	; 0x04
    3bcc:	8d 81       	ldd	r24, Y+5	; 0x05
    3bce:	9e 81       	ldd	r25, Y+6	; 0x06
    3bd0:	0e 94 2d 36 	call	0x6c5a	; 0x6c5a <__mulsf3>
    3bd4:	dc 01       	movw	r26, r24
    3bd6:	cb 01       	movw	r24, r22
    3bd8:	8f 83       	std	Y+7, r24	; 0x07
    3bda:	98 87       	std	Y+8, r25	; 0x08
    3bdc:	a9 87       	std	Y+9, r26	; 0x09
    3bde:	ba 87       	std	Y+10, r27	; 0x0a
	if (__tmp < 1.0)
    3be0:	20 e0       	ldi	r18, 0x00	; 0
    3be2:	30 e0       	ldi	r19, 0x00	; 0
    3be4:	40 e8       	ldi	r20, 0x80	; 128
    3be6:	5f e3       	ldi	r21, 0x3F	; 63
    3be8:	6f 81       	ldd	r22, Y+7	; 0x07
    3bea:	78 85       	ldd	r23, Y+8	; 0x08
    3bec:	89 85       	ldd	r24, Y+9	; 0x09
    3bee:	9a 85       	ldd	r25, Y+10	; 0x0a
    3bf0:	0e 94 13 38 	call	0x7026	; 0x7026 <__ltsf2>
    3bf4:	88 23       	and	r24, r24
    3bf6:	1c f4       	brge	.+6      	; 0x3bfe <s_read_byte+0x98>
		__ticks = 1;
    3bf8:	81 e0       	ldi	r24, 0x01	; 1
    3bfa:	8b 87       	std	Y+11, r24	; 0x0b
    3bfc:	97 c0       	rjmp	.+302    	; 0x3d2c <s_read_byte+0x1c6>
	else if (__tmp > 255)
    3bfe:	20 e0       	ldi	r18, 0x00	; 0
    3c00:	30 e0       	ldi	r19, 0x00	; 0
    3c02:	4f e7       	ldi	r20, 0x7F	; 127
    3c04:	53 e4       	ldi	r21, 0x43	; 67
    3c06:	6f 81       	ldd	r22, Y+7	; 0x07
    3c08:	78 85       	ldd	r23, Y+8	; 0x08
    3c0a:	89 85       	ldd	r24, Y+9	; 0x09
    3c0c:	9a 85       	ldd	r25, Y+10	; 0x0a
    3c0e:	0e 94 b5 37 	call	0x6f6a	; 0x6f6a <__gtsf2>
    3c12:	18 16       	cp	r1, r24
    3c14:	0c f0       	brlt	.+2      	; 0x3c18 <s_read_byte+0xb2>
    3c16:	81 c0       	rjmp	.+258    	; 0x3d1a <s_read_byte+0x1b4>
	{
		_delay_ms(__us / 1000.0);
    3c18:	20 e0       	ldi	r18, 0x00	; 0
    3c1a:	30 e0       	ldi	r19, 0x00	; 0
    3c1c:	4a e7       	ldi	r20, 0x7A	; 122
    3c1e:	54 e4       	ldi	r21, 0x44	; 68
    3c20:	6b 81       	ldd	r22, Y+3	; 0x03
    3c22:	7c 81       	ldd	r23, Y+4	; 0x04
    3c24:	8d 81       	ldd	r24, Y+5	; 0x05
    3c26:	9e 81       	ldd	r25, Y+6	; 0x06
    3c28:	0e 94 12 37 	call	0x6e24	; 0x6e24 <__divsf3>
    3c2c:	dc 01       	movw	r26, r24
    3c2e:	cb 01       	movw	r24, r22
    3c30:	8c 87       	std	Y+12, r24	; 0x0c
    3c32:	9d 87       	std	Y+13, r25	; 0x0d
    3c34:	ae 87       	std	Y+14, r26	; 0x0e
    3c36:	bf 87       	std	Y+15, r27	; 0x0f
	#endif

	__builtin_avr_delay_cycles(__ticks_dc);

#else
	__tmp = ((F_CPU) / 4e3) * __ms;
    3c38:	20 e0       	ldi	r18, 0x00	; 0
    3c3a:	30 e0       	ldi	r19, 0x00	; 0
    3c3c:	4a e7       	ldi	r20, 0x7A	; 122
    3c3e:	55 e4       	ldi	r21, 0x45	; 69
    3c40:	6c 85       	ldd	r22, Y+12	; 0x0c
    3c42:	7d 85       	ldd	r23, Y+13	; 0x0d
    3c44:	8e 85       	ldd	r24, Y+14	; 0x0e
    3c46:	9f 85       	ldd	r25, Y+15	; 0x0f
    3c48:	0e 94 2d 36 	call	0x6c5a	; 0x6c5a <__mulsf3>
    3c4c:	dc 01       	movw	r26, r24
    3c4e:	cb 01       	movw	r24, r22
    3c50:	88 8b       	std	Y+16, r24	; 0x10
    3c52:	99 8b       	std	Y+17, r25	; 0x11
    3c54:	aa 8b       	std	Y+18, r26	; 0x12
    3c56:	bb 8b       	std	Y+19, r27	; 0x13
	if (__tmp < 1.0)
    3c58:	20 e0       	ldi	r18, 0x00	; 0
    3c5a:	30 e0       	ldi	r19, 0x00	; 0
    3c5c:	40 e8       	ldi	r20, 0x80	; 128
    3c5e:	5f e3       	ldi	r21, 0x3F	; 63
    3c60:	68 89       	ldd	r22, Y+16	; 0x10
    3c62:	79 89       	ldd	r23, Y+17	; 0x11
    3c64:	8a 89       	ldd	r24, Y+18	; 0x12
    3c66:	9b 89       	ldd	r25, Y+19	; 0x13
    3c68:	0e 94 13 38 	call	0x7026	; 0x7026 <__ltsf2>
    3c6c:	88 23       	and	r24, r24
    3c6e:	2c f4       	brge	.+10     	; 0x3c7a <s_read_byte+0x114>
		__ticks = 1;
    3c70:	81 e0       	ldi	r24, 0x01	; 1
    3c72:	90 e0       	ldi	r25, 0x00	; 0
    3c74:	9d 8b       	std	Y+21, r25	; 0x15
    3c76:	8c 8b       	std	Y+20, r24	; 0x14
    3c78:	42 c0       	rjmp	.+132    	; 0x3cfe <s_read_byte+0x198>
	else if (__tmp > 65535)
    3c7a:	20 e0       	ldi	r18, 0x00	; 0
    3c7c:	3f ef       	ldi	r19, 0xFF	; 255
    3c7e:	4f e7       	ldi	r20, 0x7F	; 127
    3c80:	57 e4       	ldi	r21, 0x47	; 71
    3c82:	68 89       	ldd	r22, Y+16	; 0x10
    3c84:	79 89       	ldd	r23, Y+17	; 0x11
    3c86:	8a 89       	ldd	r24, Y+18	; 0x12
    3c88:	9b 89       	ldd	r25, Y+19	; 0x13
    3c8a:	0e 94 b5 37 	call	0x6f6a	; 0x6f6a <__gtsf2>
    3c8e:	18 16       	cp	r1, r24
    3c90:	64 f5       	brge	.+88     	; 0x3cea <s_read_byte+0x184>
	{
		//	__ticks = requested delay in 1/10 ms
		__ticks = (uint16_t) (__ms * 10.0);
    3c92:	20 e0       	ldi	r18, 0x00	; 0
    3c94:	30 e0       	ldi	r19, 0x00	; 0
    3c96:	40 e2       	ldi	r20, 0x20	; 32
    3c98:	51 e4       	ldi	r21, 0x41	; 65
    3c9a:	6c 85       	ldd	r22, Y+12	; 0x0c
    3c9c:	7d 85       	ldd	r23, Y+13	; 0x0d
    3c9e:	8e 85       	ldd	r24, Y+14	; 0x0e
    3ca0:	9f 85       	ldd	r25, Y+15	; 0x0f
    3ca2:	0e 94 2d 36 	call	0x6c5a	; 0x6c5a <__mulsf3>
    3ca6:	dc 01       	movw	r26, r24
    3ca8:	cb 01       	movw	r24, r22
    3caa:	bc 01       	movw	r22, r24
    3cac:	cd 01       	movw	r24, r26
    3cae:	0e 94 48 34 	call	0x6890	; 0x6890 <__fixunssfsi>
    3cb2:	dc 01       	movw	r26, r24
    3cb4:	cb 01       	movw	r24, r22
    3cb6:	9d 8b       	std	Y+21, r25	; 0x15
    3cb8:	8c 8b       	std	Y+20, r24	; 0x14
    3cba:	12 c0       	rjmp	.+36     	; 0x3ce0 <s_read_byte+0x17a>
    3cbc:	80 e9       	ldi	r24, 0x90	; 144
    3cbe:	91 e0       	ldi	r25, 0x01	; 1
    3cc0:	9f 8b       	std	Y+23, r25	; 0x17
    3cc2:	8e 8b       	std	Y+22, r24	; 0x16
    3cc4:	8e 89       	ldd	r24, Y+22	; 0x16
    3cc6:	9f 89       	ldd	r25, Y+23	; 0x17
    3cc8:	8c 01       	movw	r16, r24
    3cca:	c8 01       	movw	r24, r16
    3ccc:	01 97       	sbiw	r24, 0x01	; 1
    3cce:	f1 f7       	brne	.-4      	; 0x3ccc <s_read_byte+0x166>
    3cd0:	8c 01       	movw	r16, r24
    3cd2:	1f 8b       	std	Y+23, r17	; 0x17
    3cd4:	0e 8b       	std	Y+22, r16	; 0x16
		while(__ticks)
		{
			// wait 1/10 ms
			_delay_loop_2(((F_CPU) / 4e3) / 10);
			__ticks --;
    3cd6:	8c 89       	ldd	r24, Y+20	; 0x14
    3cd8:	9d 89       	ldd	r25, Y+21	; 0x15
    3cda:	01 97       	sbiw	r24, 0x01	; 1
    3cdc:	9d 8b       	std	Y+21, r25	; 0x15
    3cde:	8c 8b       	std	Y+20, r24	; 0x14
		__ticks = 1;
	else if (__tmp > 65535)
	{
		//	__ticks = requested delay in 1/10 ms
		__ticks = (uint16_t) (__ms * 10.0);
		while(__ticks)
    3ce0:	8c 89       	ldd	r24, Y+20	; 0x14
    3ce2:	9d 89       	ldd	r25, Y+21	; 0x15
    3ce4:	00 97       	sbiw	r24, 0x00	; 0
    3ce6:	51 f7       	brne	.-44     	; 0x3cbc <s_read_byte+0x156>
    3ce8:	28 c0       	rjmp	.+80     	; 0x3d3a <s_read_byte+0x1d4>
			__ticks --;
		}
		return;
	}
	else
		__ticks = (uint16_t)__tmp;
    3cea:	68 89       	ldd	r22, Y+16	; 0x10
    3cec:	79 89       	ldd	r23, Y+17	; 0x11
    3cee:	8a 89       	ldd	r24, Y+18	; 0x12
    3cf0:	9b 89       	ldd	r25, Y+19	; 0x13
    3cf2:	0e 94 48 34 	call	0x6890	; 0x6890 <__fixunssfsi>
    3cf6:	dc 01       	movw	r26, r24
    3cf8:	cb 01       	movw	r24, r22
    3cfa:	9d 8b       	std	Y+21, r25	; 0x15
    3cfc:	8c 8b       	std	Y+20, r24	; 0x14
    3cfe:	8c 89       	ldd	r24, Y+20	; 0x14
    3d00:	9d 89       	ldd	r25, Y+21	; 0x15
    3d02:	99 8f       	std	Y+25, r25	; 0x19
    3d04:	88 8f       	std	Y+24, r24	; 0x18
    3d06:	88 8d       	ldd	r24, Y+24	; 0x18
    3d08:	99 8d       	ldd	r25, Y+25	; 0x19
    3d0a:	8c 01       	movw	r16, r24
    3d0c:	f8 01       	movw	r30, r16
    3d0e:	31 97       	sbiw	r30, 0x01	; 1
    3d10:	f1 f7       	brne	.-4      	; 0x3d0e <s_read_byte+0x1a8>
    3d12:	8f 01       	movw	r16, r30
    3d14:	19 8f       	std	Y+25, r17	; 0x19
    3d16:	08 8f       	std	Y+24, r16	; 0x18
    3d18:	10 c0       	rjmp	.+32     	; 0x3d3a <s_read_byte+0x1d4>
	{
		_delay_ms(__us / 1000.0);
		return;
	}
	else
		__ticks = (uint8_t)__tmp;
    3d1a:	6f 81       	ldd	r22, Y+7	; 0x07
    3d1c:	78 85       	ldd	r23, Y+8	; 0x08
    3d1e:	89 85       	ldd	r24, Y+9	; 0x09
    3d20:	9a 85       	ldd	r25, Y+10	; 0x0a
    3d22:	0e 94 48 34 	call	0x6890	; 0x6890 <__fixunssfsi>
    3d26:	dc 01       	movw	r26, r24
    3d28:	cb 01       	movw	r24, r22
    3d2a:	8b 87       	std	Y+11, r24	; 0x0b
    3d2c:	8b 85       	ldd	r24, Y+11	; 0x0b
    3d2e:	8a 8f       	std	Y+26, r24	; 0x1a
    can be achieved.
*/
void
_delay_loop_1(uint8_t __count)
{
	__asm__ volatile (
    3d30:	8a 8d       	ldd	r24, Y+26	; 0x1a
    3d32:	18 2f       	mov	r17, r24
    3d34:	1a 95       	dec	r17
    3d36:	f1 f7       	brne	.-4      	; 0x3d34 <s_read_byte+0x1ce>
    3d38:	1a 8f       	std	Y+26, r17	; 0x1a
	_delay_us(3);
	
	DATA_OUT_1;
    3d3a:	82 e6       	ldi	r24, 0x62	; 98
    3d3c:	90 e0       	ldi	r25, 0x00	; 0
    3d3e:	22 e6       	ldi	r18, 0x62	; 98
    3d40:	30 e0       	ldi	r19, 0x00	; 0
    3d42:	f9 01       	movw	r30, r18
    3d44:	20 81       	ld	r18, Z
    3d46:	21 60       	ori	r18, 0x01	; 1
    3d48:	fc 01       	movw	r30, r24
    3d4a:	20 83       	st	Z, r18
    3d4c:	80 e0       	ldi	r24, 0x00	; 0
    3d4e:	90 e0       	ldi	r25, 0x00	; 0
    3d50:	a0 e4       	ldi	r26, 0x40	; 64
    3d52:	b0 e4       	ldi	r27, 0x40	; 64
    3d54:	8b 8f       	std	Y+27, r24	; 0x1b
    3d56:	9c 8f       	std	Y+28, r25	; 0x1c
    3d58:	ad 8f       	std	Y+29, r26	; 0x1d
    3d5a:	be 8f       	std	Y+30, r27	; 0x1e
	#endif

	__builtin_avr_delay_cycles(__ticks_dc);

#else
	__tmp = ((F_CPU) / 3e6) * __us;
    3d5c:	2b ea       	ldi	r18, 0xAB	; 171
    3d5e:	3a ea       	ldi	r19, 0xAA	; 170
    3d60:	4a ea       	ldi	r20, 0xAA	; 170
    3d62:	50 e4       	ldi	r21, 0x40	; 64
    3d64:	6b 8d       	ldd	r22, Y+27	; 0x1b
    3d66:	7c 8d       	ldd	r23, Y+28	; 0x1c
    3d68:	8d 8d       	ldd	r24, Y+29	; 0x1d
    3d6a:	9e 8d       	ldd	r25, Y+30	; 0x1e
    3d6c:	0e 94 2d 36 	call	0x6c5a	; 0x6c5a <__mulsf3>
    3d70:	dc 01       	movw	r26, r24
    3d72:	cb 01       	movw	r24, r22
    3d74:	8f 8f       	std	Y+31, r24	; 0x1f
    3d76:	98 a3       	std	Y+32, r25	; 0x20
    3d78:	a9 a3       	std	Y+33, r26	; 0x21
    3d7a:	ba a3       	std	Y+34, r27	; 0x22
	if (__tmp < 1.0)
    3d7c:	20 e0       	ldi	r18, 0x00	; 0
    3d7e:	30 e0       	ldi	r19, 0x00	; 0
    3d80:	40 e8       	ldi	r20, 0x80	; 128
    3d82:	5f e3       	ldi	r21, 0x3F	; 63
    3d84:	6f 8d       	ldd	r22, Y+31	; 0x1f
    3d86:	78 a1       	ldd	r23, Y+32	; 0x20
    3d88:	89 a1       	ldd	r24, Y+33	; 0x21
    3d8a:	9a a1       	ldd	r25, Y+34	; 0x22
    3d8c:	0e 94 13 38 	call	0x7026	; 0x7026 <__ltsf2>
    3d90:	88 23       	and	r24, r24
    3d92:	1c f4       	brge	.+6      	; 0x3d9a <s_read_byte+0x234>
		__ticks = 1;
    3d94:	81 e0       	ldi	r24, 0x01	; 1
    3d96:	8b a3       	std	Y+35, r24	; 0x23
    3d98:	97 c0       	rjmp	.+302    	; 0x3ec8 <s_read_byte+0x362>
	else if (__tmp > 255)
    3d9a:	20 e0       	ldi	r18, 0x00	; 0
    3d9c:	30 e0       	ldi	r19, 0x00	; 0
    3d9e:	4f e7       	ldi	r20, 0x7F	; 127
    3da0:	53 e4       	ldi	r21, 0x43	; 67
    3da2:	6f 8d       	ldd	r22, Y+31	; 0x1f
    3da4:	78 a1       	ldd	r23, Y+32	; 0x20
    3da6:	89 a1       	ldd	r24, Y+33	; 0x21
    3da8:	9a a1       	ldd	r25, Y+34	; 0x22
    3daa:	0e 94 b5 37 	call	0x6f6a	; 0x6f6a <__gtsf2>
    3dae:	18 16       	cp	r1, r24
    3db0:	0c f0       	brlt	.+2      	; 0x3db4 <s_read_byte+0x24e>
    3db2:	81 c0       	rjmp	.+258    	; 0x3eb6 <s_read_byte+0x350>
	{
		_delay_ms(__us / 1000.0);
    3db4:	20 e0       	ldi	r18, 0x00	; 0
    3db6:	30 e0       	ldi	r19, 0x00	; 0
    3db8:	4a e7       	ldi	r20, 0x7A	; 122
    3dba:	54 e4       	ldi	r21, 0x44	; 68
    3dbc:	6b 8d       	ldd	r22, Y+27	; 0x1b
    3dbe:	7c 8d       	ldd	r23, Y+28	; 0x1c
    3dc0:	8d 8d       	ldd	r24, Y+29	; 0x1d
    3dc2:	9e 8d       	ldd	r25, Y+30	; 0x1e
    3dc4:	0e 94 12 37 	call	0x6e24	; 0x6e24 <__divsf3>
    3dc8:	dc 01       	movw	r26, r24
    3dca:	cb 01       	movw	r24, r22
    3dcc:	8c a3       	std	Y+36, r24	; 0x24
    3dce:	9d a3       	std	Y+37, r25	; 0x25
    3dd0:	ae a3       	std	Y+38, r26	; 0x26
    3dd2:	bf a3       	std	Y+39, r27	; 0x27
	#endif

	__builtin_avr_delay_cycles(__ticks_dc);

#else
	__tmp = ((F_CPU) / 4e3) * __ms;
    3dd4:	20 e0       	ldi	r18, 0x00	; 0
    3dd6:	30 e0       	ldi	r19, 0x00	; 0
    3dd8:	4a e7       	ldi	r20, 0x7A	; 122
    3dda:	55 e4       	ldi	r21, 0x45	; 69
    3ddc:	6c a1       	ldd	r22, Y+36	; 0x24
    3dde:	7d a1       	ldd	r23, Y+37	; 0x25
    3de0:	8e a1       	ldd	r24, Y+38	; 0x26
    3de2:	9f a1       	ldd	r25, Y+39	; 0x27
    3de4:	0e 94 2d 36 	call	0x6c5a	; 0x6c5a <__mulsf3>
    3de8:	dc 01       	movw	r26, r24
    3dea:	cb 01       	movw	r24, r22
    3dec:	88 a7       	std	Y+40, r24	; 0x28
    3dee:	99 a7       	std	Y+41, r25	; 0x29
    3df0:	aa a7       	std	Y+42, r26	; 0x2a
    3df2:	bb a7       	std	Y+43, r27	; 0x2b
	if (__tmp < 1.0)
    3df4:	20 e0       	ldi	r18, 0x00	; 0
    3df6:	30 e0       	ldi	r19, 0x00	; 0
    3df8:	40 e8       	ldi	r20, 0x80	; 128
    3dfa:	5f e3       	ldi	r21, 0x3F	; 63
    3dfc:	68 a5       	ldd	r22, Y+40	; 0x28
    3dfe:	79 a5       	ldd	r23, Y+41	; 0x29
    3e00:	8a a5       	ldd	r24, Y+42	; 0x2a
    3e02:	9b a5       	ldd	r25, Y+43	; 0x2b
    3e04:	0e 94 13 38 	call	0x7026	; 0x7026 <__ltsf2>
    3e08:	88 23       	and	r24, r24
    3e0a:	2c f4       	brge	.+10     	; 0x3e16 <s_read_byte+0x2b0>
		__ticks = 1;
    3e0c:	81 e0       	ldi	r24, 0x01	; 1
    3e0e:	90 e0       	ldi	r25, 0x00	; 0
    3e10:	9d a7       	std	Y+45, r25	; 0x2d
    3e12:	8c a7       	std	Y+44, r24	; 0x2c
    3e14:	42 c0       	rjmp	.+132    	; 0x3e9a <s_read_byte+0x334>
	else if (__tmp > 65535)
    3e16:	20 e0       	ldi	r18, 0x00	; 0
    3e18:	3f ef       	ldi	r19, 0xFF	; 255
    3e1a:	4f e7       	ldi	r20, 0x7F	; 127
    3e1c:	57 e4       	ldi	r21, 0x47	; 71
    3e1e:	68 a5       	ldd	r22, Y+40	; 0x28
    3e20:	79 a5       	ldd	r23, Y+41	; 0x29
    3e22:	8a a5       	ldd	r24, Y+42	; 0x2a
    3e24:	9b a5       	ldd	r25, Y+43	; 0x2b
    3e26:	0e 94 b5 37 	call	0x6f6a	; 0x6f6a <__gtsf2>
    3e2a:	18 16       	cp	r1, r24
    3e2c:	64 f5       	brge	.+88     	; 0x3e86 <s_read_byte+0x320>
	{
		//	__ticks = requested delay in 1/10 ms
		__ticks = (uint16_t) (__ms * 10.0);
    3e2e:	20 e0       	ldi	r18, 0x00	; 0
    3e30:	30 e0       	ldi	r19, 0x00	; 0
    3e32:	40 e2       	ldi	r20, 0x20	; 32
    3e34:	51 e4       	ldi	r21, 0x41	; 65
    3e36:	6c a1       	ldd	r22, Y+36	; 0x24
    3e38:	7d a1       	ldd	r23, Y+37	; 0x25
    3e3a:	8e a1       	ldd	r24, Y+38	; 0x26
    3e3c:	9f a1       	ldd	r25, Y+39	; 0x27
    3e3e:	0e 94 2d 36 	call	0x6c5a	; 0x6c5a <__mulsf3>
    3e42:	dc 01       	movw	r26, r24
    3e44:	cb 01       	movw	r24, r22
    3e46:	bc 01       	movw	r22, r24
    3e48:	cd 01       	movw	r24, r26
    3e4a:	0e 94 48 34 	call	0x6890	; 0x6890 <__fixunssfsi>
    3e4e:	dc 01       	movw	r26, r24
    3e50:	cb 01       	movw	r24, r22
    3e52:	9d a7       	std	Y+45, r25	; 0x2d
    3e54:	8c a7       	std	Y+44, r24	; 0x2c
    3e56:	12 c0       	rjmp	.+36     	; 0x3e7c <s_read_byte+0x316>
    3e58:	80 e9       	ldi	r24, 0x90	; 144
    3e5a:	91 e0       	ldi	r25, 0x01	; 1
    3e5c:	9f a7       	std	Y+47, r25	; 0x2f
    3e5e:	8e a7       	std	Y+46, r24	; 0x2e
    milliseconds can be achieved.
 */
void
_delay_loop_2(uint16_t __count)
{
	__asm__ volatile (
    3e60:	8e a5       	ldd	r24, Y+46	; 0x2e
    3e62:	9f a5       	ldd	r25, Y+47	; 0x2f
    3e64:	8c 01       	movw	r16, r24
    3e66:	c8 01       	movw	r24, r16
    3e68:	01 97       	sbiw	r24, 0x01	; 1
    3e6a:	f1 f7       	brne	.-4      	; 0x3e68 <s_read_byte+0x302>
    3e6c:	8c 01       	movw	r16, r24
    3e6e:	1f a7       	std	Y+47, r17	; 0x2f
    3e70:	0e a7       	std	Y+46, r16	; 0x2e
		while(__ticks)
		{
			// wait 1/10 ms
			_delay_loop_2(((F_CPU) / 4e3) / 10);
			__ticks --;
    3e72:	8c a5       	ldd	r24, Y+44	; 0x2c
    3e74:	9d a5       	ldd	r25, Y+45	; 0x2d
    3e76:	01 97       	sbiw	r24, 0x01	; 1
    3e78:	9d a7       	std	Y+45, r25	; 0x2d
    3e7a:	8c a7       	std	Y+44, r24	; 0x2c
		__ticks = 1;
	else if (__tmp > 65535)
	{
		//	__ticks = requested delay in 1/10 ms
		__ticks = (uint16_t) (__ms * 10.0);
		while(__ticks)
    3e7c:	8c a5       	ldd	r24, Y+44	; 0x2c
    3e7e:	9d a5       	ldd	r25, Y+45	; 0x2d
    3e80:	00 97       	sbiw	r24, 0x00	; 0
    3e82:	51 f7       	brne	.-44     	; 0x3e58 <s_read_byte+0x2f2>
    3e84:	28 c0       	rjmp	.+80     	; 0x3ed6 <s_read_byte+0x370>
			__ticks --;
		}
		return;
	}
	else
		__ticks = (uint16_t)__tmp;
    3e86:	68 a5       	ldd	r22, Y+40	; 0x28
    3e88:	79 a5       	ldd	r23, Y+41	; 0x29
    3e8a:	8a a5       	ldd	r24, Y+42	; 0x2a
    3e8c:	9b a5       	ldd	r25, Y+43	; 0x2b
    3e8e:	0e 94 48 34 	call	0x6890	; 0x6890 <__fixunssfsi>
    3e92:	dc 01       	movw	r26, r24
    3e94:	cb 01       	movw	r24, r22
    3e96:	9d a7       	std	Y+45, r25	; 0x2d
    3e98:	8c a7       	std	Y+44, r24	; 0x2c
    3e9a:	8c a5       	ldd	r24, Y+44	; 0x2c
    3e9c:	9d a5       	ldd	r25, Y+45	; 0x2d
    3e9e:	99 ab       	std	Y+49, r25	; 0x31
    3ea0:	88 ab       	std	Y+48, r24	; 0x30
    3ea2:	88 a9       	ldd	r24, Y+48	; 0x30
    3ea4:	99 a9       	ldd	r25, Y+49	; 0x31
    3ea6:	8c 01       	movw	r16, r24
    3ea8:	f8 01       	movw	r30, r16
    3eaa:	31 97       	sbiw	r30, 0x01	; 1
    3eac:	f1 f7       	brne	.-4      	; 0x3eaa <s_read_byte+0x344>
    3eae:	8f 01       	movw	r16, r30
    3eb0:	19 ab       	std	Y+49, r17	; 0x31
    3eb2:	08 ab       	std	Y+48, r16	; 0x30
    3eb4:	10 c0       	rjmp	.+32     	; 0x3ed6 <s_read_byte+0x370>
	{
		_delay_ms(__us / 1000.0);
		return;
	}
	else
		__ticks = (uint8_t)__tmp;
    3eb6:	6f 8d       	ldd	r22, Y+31	; 0x1f
    3eb8:	78 a1       	ldd	r23, Y+32	; 0x20
    3eba:	89 a1       	ldd	r24, Y+33	; 0x21
    3ebc:	9a a1       	ldd	r25, Y+34	; 0x22
    3ebe:	0e 94 48 34 	call	0x6890	; 0x6890 <__fixunssfsi>
    3ec2:	dc 01       	movw	r26, r24
    3ec4:	cb 01       	movw	r24, r22
    3ec6:	8b a3       	std	Y+35, r24	; 0x23
    3ec8:	8b a1       	ldd	r24, Y+35	; 0x23
    3eca:	8a ab       	std	Y+50, r24	; 0x32
    can be achieved.
*/
void
_delay_loop_1(uint8_t __count)
{
	__asm__ volatile (
    3ecc:	8a a9       	ldd	r24, Y+50	; 0x32
    3ece:	18 2f       	mov	r17, r24
    3ed0:	1a 95       	dec	r17
    3ed2:	f1 f7       	brne	.-4      	; 0x3ed0 <s_read_byte+0x36a>
    3ed4:	1a ab       	std	Y+50, r17	; 0x32
	_delay_us(3);
	
	DATAIN;
    3ed6:	81 e6       	ldi	r24, 0x61	; 97
    3ed8:	90 e0       	ldi	r25, 0x00	; 0
    3eda:	21 e6       	ldi	r18, 0x61	; 97
    3edc:	30 e0       	ldi	r19, 0x00	; 0
    3ede:	f9 01       	movw	r30, r18
    3ee0:	20 81       	ld	r18, Z
    3ee2:	2e 7f       	andi	r18, 0xFE	; 254
    3ee4:	fc 01       	movw	r30, r24
    3ee6:	20 83       	st	Z, r18
	
	for (i=0x80; i>0; i>>=1)
    3ee8:	80 e8       	ldi	r24, 0x80	; 128
    3eea:	89 83       	std	Y+1, r24	; 0x01
    3eec:	85 c2       	rjmp	.+1290   	; 0x43f8 <s_read_byte+0x892>
	{ 	
		SHT_SCK_1; 
    3eee:	82 e6       	ldi	r24, 0x62	; 98
    3ef0:	90 e0       	ldi	r25, 0x00	; 0
    3ef2:	22 e6       	ldi	r18, 0x62	; 98
    3ef4:	30 e0       	ldi	r19, 0x00	; 0
    3ef6:	f9 01       	movw	r30, r18
    3ef8:	20 81       	ld	r18, Z
    3efa:	22 60       	ori	r18, 0x02	; 2
    3efc:	fc 01       	movw	r30, r24
    3efe:	20 83       	st	Z, r18
    3f00:	80 e0       	ldi	r24, 0x00	; 0
    3f02:	90 e0       	ldi	r25, 0x00	; 0
    3f04:	a0 e4       	ldi	r26, 0x40	; 64
    3f06:	b0 e4       	ldi	r27, 0x40	; 64
    3f08:	8b ab       	std	Y+51, r24	; 0x33
    3f0a:	9c ab       	std	Y+52, r25	; 0x34
    3f0c:	ad ab       	std	Y+53, r26	; 0x35
    3f0e:	be ab       	std	Y+54, r27	; 0x36
	#endif

	__builtin_avr_delay_cycles(__ticks_dc);

#else
	__tmp = ((F_CPU) / 3e6) * __us;
    3f10:	2b ea       	ldi	r18, 0xAB	; 171
    3f12:	3a ea       	ldi	r19, 0xAA	; 170
    3f14:	4a ea       	ldi	r20, 0xAA	; 170
    3f16:	50 e4       	ldi	r21, 0x40	; 64
    3f18:	6b a9       	ldd	r22, Y+51	; 0x33
    3f1a:	7c a9       	ldd	r23, Y+52	; 0x34
    3f1c:	8d a9       	ldd	r24, Y+53	; 0x35
    3f1e:	9e a9       	ldd	r25, Y+54	; 0x36
    3f20:	0e 94 2d 36 	call	0x6c5a	; 0x6c5a <__mulsf3>
    3f24:	dc 01       	movw	r26, r24
    3f26:	cb 01       	movw	r24, r22
    3f28:	8f ab       	std	Y+55, r24	; 0x37
    3f2a:	98 af       	std	Y+56, r25	; 0x38
    3f2c:	a9 af       	std	Y+57, r26	; 0x39
    3f2e:	ba af       	std	Y+58, r27	; 0x3a
	if (__tmp < 1.0)
    3f30:	20 e0       	ldi	r18, 0x00	; 0
    3f32:	30 e0       	ldi	r19, 0x00	; 0
    3f34:	40 e8       	ldi	r20, 0x80	; 128
    3f36:	5f e3       	ldi	r21, 0x3F	; 63
    3f38:	6f a9       	ldd	r22, Y+55	; 0x37
    3f3a:	78 ad       	ldd	r23, Y+56	; 0x38
    3f3c:	89 ad       	ldd	r24, Y+57	; 0x39
    3f3e:	9a ad       	ldd	r25, Y+58	; 0x3a
    3f40:	0e 94 13 38 	call	0x7026	; 0x7026 <__ltsf2>
    3f44:	88 23       	and	r24, r24
    3f46:	1c f4       	brge	.+6      	; 0x3f4e <s_read_byte+0x3e8>
		__ticks = 1;
    3f48:	81 e0       	ldi	r24, 0x01	; 1
    3f4a:	8b af       	std	Y+59, r24	; 0x3b
    3f4c:	dd c0       	rjmp	.+442    	; 0x4108 <s_read_byte+0x5a2>
	else if (__tmp > 255)
    3f4e:	20 e0       	ldi	r18, 0x00	; 0
    3f50:	30 e0       	ldi	r19, 0x00	; 0
    3f52:	4f e7       	ldi	r20, 0x7F	; 127
    3f54:	53 e4       	ldi	r21, 0x43	; 67
    3f56:	6f a9       	ldd	r22, Y+55	; 0x37
    3f58:	78 ad       	ldd	r23, Y+56	; 0x38
    3f5a:	89 ad       	ldd	r24, Y+57	; 0x39
    3f5c:	9a ad       	ldd	r25, Y+58	; 0x3a
    3f5e:	0e 94 b5 37 	call	0x6f6a	; 0x6f6a <__gtsf2>
    3f62:	18 16       	cp	r1, r24
    3f64:	0c f0       	brlt	.+2      	; 0x3f68 <s_read_byte+0x402>
    3f66:	c7 c0       	rjmp	.+398    	; 0x40f6 <s_read_byte+0x590>
	{
		_delay_ms(__us / 1000.0);
    3f68:	20 e0       	ldi	r18, 0x00	; 0
    3f6a:	30 e0       	ldi	r19, 0x00	; 0
    3f6c:	4a e7       	ldi	r20, 0x7A	; 122
    3f6e:	54 e4       	ldi	r21, 0x44	; 68
    3f70:	6b a9       	ldd	r22, Y+51	; 0x33
    3f72:	7c a9       	ldd	r23, Y+52	; 0x34
    3f74:	8d a9       	ldd	r24, Y+53	; 0x35
    3f76:	9e a9       	ldd	r25, Y+54	; 0x36
    3f78:	0e 94 12 37 	call	0x6e24	; 0x6e24 <__divsf3>
    3f7c:	dc 01       	movw	r26, r24
    3f7e:	cb 01       	movw	r24, r22
    3f80:	8c af       	std	Y+60, r24	; 0x3c
    3f82:	9d af       	std	Y+61, r25	; 0x3d
    3f84:	ae af       	std	Y+62, r26	; 0x3e
    3f86:	bf af       	std	Y+63, r27	; 0x3f
	#endif

	__builtin_avr_delay_cycles(__ticks_dc);

#else
	__tmp = ((F_CPU) / 4e3) * __ms;
    3f88:	8e 01       	movw	r16, r28
    3f8a:	00 5c       	subi	r16, 0xC0	; 192
    3f8c:	1f 4f       	sbci	r17, 0xFF	; 255
    3f8e:	20 e0       	ldi	r18, 0x00	; 0
    3f90:	30 e0       	ldi	r19, 0x00	; 0
    3f92:	4a e7       	ldi	r20, 0x7A	; 122
    3f94:	55 e4       	ldi	r21, 0x45	; 69
    3f96:	6c ad       	ldd	r22, Y+60	; 0x3c
    3f98:	7d ad       	ldd	r23, Y+61	; 0x3d
    3f9a:	8e ad       	ldd	r24, Y+62	; 0x3e
    3f9c:	9f ad       	ldd	r25, Y+63	; 0x3f
    3f9e:	0e 94 2d 36 	call	0x6c5a	; 0x6c5a <__mulsf3>
    3fa2:	dc 01       	movw	r26, r24
    3fa4:	cb 01       	movw	r24, r22
    3fa6:	f8 01       	movw	r30, r16
    3fa8:	80 83       	st	Z, r24
    3faa:	91 83       	std	Z+1, r25	; 0x01
    3fac:	a2 83       	std	Z+2, r26	; 0x02
    3fae:	b3 83       	std	Z+3, r27	; 0x03
	if (__tmp < 1.0)
    3fb0:	ce 01       	movw	r24, r28
    3fb2:	80 5c       	subi	r24, 0xC0	; 192
    3fb4:	9f 4f       	sbci	r25, 0xFF	; 255
    3fb6:	20 e0       	ldi	r18, 0x00	; 0
    3fb8:	30 e0       	ldi	r19, 0x00	; 0
    3fba:	40 e8       	ldi	r20, 0x80	; 128
    3fbc:	5f e3       	ldi	r21, 0x3F	; 63
    3fbe:	fc 01       	movw	r30, r24
    3fc0:	60 81       	ld	r22, Z
    3fc2:	71 81       	ldd	r23, Z+1	; 0x01
    3fc4:	82 81       	ldd	r24, Z+2	; 0x02
    3fc6:	93 81       	ldd	r25, Z+3	; 0x03
    3fc8:	0e 94 13 38 	call	0x7026	; 0x7026 <__ltsf2>
    3fcc:	88 23       	and	r24, r24
    3fce:	4c f4       	brge	.+18     	; 0x3fe2 <s_read_byte+0x47c>
		__ticks = 1;
    3fd0:	ce 01       	movw	r24, r28
    3fd2:	8c 5b       	subi	r24, 0xBC	; 188
    3fd4:	9f 4f       	sbci	r25, 0xFF	; 255
    3fd6:	21 e0       	ldi	r18, 0x01	; 1
    3fd8:	30 e0       	ldi	r19, 0x00	; 0
    3fda:	fc 01       	movw	r30, r24
    3fdc:	31 83       	std	Z+1, r19	; 0x01
    3fde:	20 83       	st	Z, r18
    3fe0:	6c c0       	rjmp	.+216    	; 0x40ba <s_read_byte+0x554>
	else if (__tmp > 65535)
    3fe2:	ce 01       	movw	r24, r28
    3fe4:	80 5c       	subi	r24, 0xC0	; 192
    3fe6:	9f 4f       	sbci	r25, 0xFF	; 255
    3fe8:	20 e0       	ldi	r18, 0x00	; 0
    3fea:	3f ef       	ldi	r19, 0xFF	; 255
    3fec:	4f e7       	ldi	r20, 0x7F	; 127
    3fee:	57 e4       	ldi	r21, 0x47	; 71
    3ff0:	fc 01       	movw	r30, r24
    3ff2:	60 81       	ld	r22, Z
    3ff4:	71 81       	ldd	r23, Z+1	; 0x01
    3ff6:	82 81       	ldd	r24, Z+2	; 0x02
    3ff8:	93 81       	ldd	r25, Z+3	; 0x03
    3ffa:	0e 94 b5 37 	call	0x6f6a	; 0x6f6a <__gtsf2>
    3ffe:	18 16       	cp	r1, r24
    4000:	0c f0       	brlt	.+2      	; 0x4004 <s_read_byte+0x49e>
    4002:	49 c0       	rjmp	.+146    	; 0x4096 <s_read_byte+0x530>
	{
		//	__ticks = requested delay in 1/10 ms
		__ticks = (uint16_t) (__ms * 10.0);
    4004:	20 e0       	ldi	r18, 0x00	; 0
    4006:	30 e0       	ldi	r19, 0x00	; 0
    4008:	40 e2       	ldi	r20, 0x20	; 32
    400a:	51 e4       	ldi	r21, 0x41	; 65
    400c:	6c ad       	ldd	r22, Y+60	; 0x3c
    400e:	7d ad       	ldd	r23, Y+61	; 0x3d
    4010:	8e ad       	ldd	r24, Y+62	; 0x3e
    4012:	9f ad       	ldd	r25, Y+63	; 0x3f
    4014:	0e 94 2d 36 	call	0x6c5a	; 0x6c5a <__mulsf3>
    4018:	dc 01       	movw	r26, r24
    401a:	cb 01       	movw	r24, r22
    401c:	8e 01       	movw	r16, r28
    401e:	0c 5b       	subi	r16, 0xBC	; 188
    4020:	1f 4f       	sbci	r17, 0xFF	; 255
    4022:	bc 01       	movw	r22, r24
    4024:	cd 01       	movw	r24, r26
    4026:	0e 94 48 34 	call	0x6890	; 0x6890 <__fixunssfsi>
    402a:	dc 01       	movw	r26, r24
    402c:	cb 01       	movw	r24, r22
    402e:	f8 01       	movw	r30, r16
    4030:	91 83       	std	Z+1, r25	; 0x01
    4032:	80 83       	st	Z, r24
    4034:	27 c0       	rjmp	.+78     	; 0x4084 <s_read_byte+0x51e>
    4036:	ce 01       	movw	r24, r28
    4038:	8a 5b       	subi	r24, 0xBA	; 186
    403a:	9f 4f       	sbci	r25, 0xFF	; 255
    403c:	20 e9       	ldi	r18, 0x90	; 144
    403e:	31 e0       	ldi	r19, 0x01	; 1
    4040:	fc 01       	movw	r30, r24
    4042:	31 83       	std	Z+1, r19	; 0x01
    4044:	20 83       	st	Z, r18
    milliseconds can be achieved.
 */
void
_delay_loop_2(uint16_t __count)
{
	__asm__ volatile (
    4046:	ce 01       	movw	r24, r28
    4048:	8a 5b       	subi	r24, 0xBA	; 186
    404a:	9f 4f       	sbci	r25, 0xFF	; 255
    404c:	fc 01       	movw	r30, r24
    404e:	80 81       	ld	r24, Z
    4050:	91 81       	ldd	r25, Z+1	; 0x01
    4052:	8c 01       	movw	r16, r24
    4054:	c8 01       	movw	r24, r16
    4056:	01 97       	sbiw	r24, 0x01	; 1
    4058:	f1 f7       	brne	.-4      	; 0x4056 <s_read_byte+0x4f0>
    405a:	8c 01       	movw	r16, r24
    405c:	ce 01       	movw	r24, r28
    405e:	8a 5b       	subi	r24, 0xBA	; 186
    4060:	9f 4f       	sbci	r25, 0xFF	; 255
    4062:	fc 01       	movw	r30, r24
    4064:	11 83       	std	Z+1, r17	; 0x01
    4066:	00 83       	st	Z, r16
		while(__ticks)
		{
			// wait 1/10 ms
			_delay_loop_2(((F_CPU) / 4e3) / 10);
			__ticks --;
    4068:	ce 01       	movw	r24, r28
    406a:	8c 5b       	subi	r24, 0xBC	; 188
    406c:	9f 4f       	sbci	r25, 0xFF	; 255
    406e:	9e 01       	movw	r18, r28
    4070:	2c 5b       	subi	r18, 0xBC	; 188
    4072:	3f 4f       	sbci	r19, 0xFF	; 255
    4074:	f9 01       	movw	r30, r18
    4076:	20 81       	ld	r18, Z
    4078:	31 81       	ldd	r19, Z+1	; 0x01
    407a:	21 50       	subi	r18, 0x01	; 1
    407c:	31 09       	sbc	r19, r1
    407e:	fc 01       	movw	r30, r24
    4080:	31 83       	std	Z+1, r19	; 0x01
    4082:	20 83       	st	Z, r18
		__ticks = 1;
	else if (__tmp > 65535)
	{
		//	__ticks = requested delay in 1/10 ms
		__ticks = (uint16_t) (__ms * 10.0);
		while(__ticks)
    4084:	ce 01       	movw	r24, r28
    4086:	8c 5b       	subi	r24, 0xBC	; 188
    4088:	9f 4f       	sbci	r25, 0xFF	; 255
    408a:	fc 01       	movw	r30, r24
    408c:	80 81       	ld	r24, Z
    408e:	91 81       	ldd	r25, Z+1	; 0x01
    4090:	00 97       	sbiw	r24, 0x00	; 0
    4092:	89 f6       	brne	.-94     	; 0x4036 <s_read_byte+0x4d0>
    4094:	4c c0       	rjmp	.+152    	; 0x412e <s_read_byte+0x5c8>
			__ticks --;
		}
		return;
	}
	else
		__ticks = (uint16_t)__tmp;
    4096:	8e 01       	movw	r16, r28
    4098:	0c 5b       	subi	r16, 0xBC	; 188
    409a:	1f 4f       	sbci	r17, 0xFF	; 255
    409c:	ce 01       	movw	r24, r28
    409e:	80 5c       	subi	r24, 0xC0	; 192
    40a0:	9f 4f       	sbci	r25, 0xFF	; 255
    40a2:	fc 01       	movw	r30, r24
    40a4:	60 81       	ld	r22, Z
    40a6:	71 81       	ldd	r23, Z+1	; 0x01
    40a8:	82 81       	ldd	r24, Z+2	; 0x02
    40aa:	93 81       	ldd	r25, Z+3	; 0x03
    40ac:	0e 94 48 34 	call	0x6890	; 0x6890 <__fixunssfsi>
    40b0:	dc 01       	movw	r26, r24
    40b2:	cb 01       	movw	r24, r22
    40b4:	f8 01       	movw	r30, r16
    40b6:	91 83       	std	Z+1, r25	; 0x01
    40b8:	80 83       	st	Z, r24
    40ba:	ce 01       	movw	r24, r28
    40bc:	88 5b       	subi	r24, 0xB8	; 184
    40be:	9f 4f       	sbci	r25, 0xFF	; 255
    40c0:	9e 01       	movw	r18, r28
    40c2:	2c 5b       	subi	r18, 0xBC	; 188
    40c4:	3f 4f       	sbci	r19, 0xFF	; 255
    40c6:	f9 01       	movw	r30, r18
    40c8:	20 81       	ld	r18, Z
    40ca:	31 81       	ldd	r19, Z+1	; 0x01
    40cc:	fc 01       	movw	r30, r24
    40ce:	31 83       	std	Z+1, r19	; 0x01
    40d0:	20 83       	st	Z, r18
    40d2:	ce 01       	movw	r24, r28
    40d4:	88 5b       	subi	r24, 0xB8	; 184
    40d6:	9f 4f       	sbci	r25, 0xFF	; 255
    40d8:	fc 01       	movw	r30, r24
    40da:	80 81       	ld	r24, Z
    40dc:	91 81       	ldd	r25, Z+1	; 0x01
    40de:	8c 01       	movw	r16, r24
    40e0:	c8 01       	movw	r24, r16
    40e2:	01 97       	sbiw	r24, 0x01	; 1
    40e4:	f1 f7       	brne	.-4      	; 0x40e2 <s_read_byte+0x57c>
    40e6:	8c 01       	movw	r16, r24
    40e8:	ce 01       	movw	r24, r28
    40ea:	88 5b       	subi	r24, 0xB8	; 184
    40ec:	9f 4f       	sbci	r25, 0xFF	; 255
    40ee:	fc 01       	movw	r30, r24
    40f0:	11 83       	std	Z+1, r17	; 0x01
    40f2:	00 83       	st	Z, r16
    40f4:	1c c0       	rjmp	.+56     	; 0x412e <s_read_byte+0x5c8>
	{
		_delay_ms(__us / 1000.0);
		return;
	}
	else
		__ticks = (uint8_t)__tmp;
    40f6:	6f a9       	ldd	r22, Y+55	; 0x37
    40f8:	78 ad       	ldd	r23, Y+56	; 0x38
    40fa:	89 ad       	ldd	r24, Y+57	; 0x39
    40fc:	9a ad       	ldd	r25, Y+58	; 0x3a
    40fe:	0e 94 48 34 	call	0x6890	; 0x6890 <__fixunssfsi>
    4102:	dc 01       	movw	r26, r24
    4104:	cb 01       	movw	r24, r22
    4106:	8b af       	std	Y+59, r24	; 0x3b
    4108:	ce 01       	movw	r24, r28
    410a:	86 5b       	subi	r24, 0xB6	; 182
    410c:	9f 4f       	sbci	r25, 0xFF	; 255
    410e:	2b ad       	ldd	r18, Y+59	; 0x3b
    4110:	fc 01       	movw	r30, r24
    4112:	20 83       	st	Z, r18
    can be achieved.
*/
void
_delay_loop_1(uint8_t __count)
{
	__asm__ volatile (
    4114:	ce 01       	movw	r24, r28
    4116:	86 5b       	subi	r24, 0xB6	; 182
    4118:	9f 4f       	sbci	r25, 0xFF	; 255
    411a:	fc 01       	movw	r30, r24
    411c:	80 81       	ld	r24, Z
    411e:	18 2f       	mov	r17, r24
    4120:	1a 95       	dec	r17
    4122:	f1 f7       	brne	.-4      	; 0x4120 <s_read_byte+0x5ba>
    4124:	ce 01       	movw	r24, r28
    4126:	86 5b       	subi	r24, 0xB6	; 182
    4128:	9f 4f       	sbci	r25, 0xFF	; 255
    412a:	fc 01       	movw	r30, r24
    412c:	10 83       	st	Z, r17
	    	_delay_us(3);

		if (DATA_IN) val = (val | i); 
    412e:	80 e2       	ldi	r24, 0x20	; 32
    4130:	90 e0       	ldi	r25, 0x00	; 0
    4132:	fc 01       	movw	r30, r24
    4134:	80 81       	ld	r24, Z
    4136:	88 2f       	mov	r24, r24
    4138:	90 e0       	ldi	r25, 0x00	; 0
    413a:	81 70       	andi	r24, 0x01	; 1
    413c:	99 27       	eor	r25, r25
    413e:	00 97       	sbiw	r24, 0x00	; 0
    4140:	21 f0       	breq	.+8      	; 0x414a <s_read_byte+0x5e4>
    4142:	9a 81       	ldd	r25, Y+2	; 0x02
    4144:	89 81       	ldd	r24, Y+1	; 0x01
    4146:	89 2b       	or	r24, r25
    4148:	8a 83       	std	Y+2, r24	; 0x02
		
		SHT_SCK_0;
    414a:	82 e6       	ldi	r24, 0x62	; 98
    414c:	90 e0       	ldi	r25, 0x00	; 0
    414e:	22 e6       	ldi	r18, 0x62	; 98
    4150:	30 e0       	ldi	r19, 0x00	; 0
    4152:	f9 01       	movw	r30, r18
    4154:	20 81       	ld	r18, Z
    4156:	2d 7f       	andi	r18, 0xFD	; 253
    4158:	fc 01       	movw	r30, r24
    415a:	20 83       	st	Z, r18
    415c:	9e 01       	movw	r18, r28
    415e:	25 5b       	subi	r18, 0xB5	; 181
    4160:	3f 4f       	sbci	r19, 0xFF	; 255
    4162:	80 e0       	ldi	r24, 0x00	; 0
    4164:	90 e0       	ldi	r25, 0x00	; 0
    4166:	a0 e4       	ldi	r26, 0x40	; 64
    4168:	b0 e4       	ldi	r27, 0x40	; 64
    416a:	f9 01       	movw	r30, r18
    416c:	80 83       	st	Z, r24
    416e:	91 83       	std	Z+1, r25	; 0x01
    4170:	a2 83       	std	Z+2, r26	; 0x02
    4172:	b3 83       	std	Z+3, r27	; 0x03
	#endif

	__builtin_avr_delay_cycles(__ticks_dc);

#else
	__tmp = ((F_CPU) / 3e6) * __us;
    4174:	8e 01       	movw	r16, r28
    4176:	01 5b       	subi	r16, 0xB1	; 177
    4178:	1f 4f       	sbci	r17, 0xFF	; 255
    417a:	ce 01       	movw	r24, r28
    417c:	85 5b       	subi	r24, 0xB5	; 181
    417e:	9f 4f       	sbci	r25, 0xFF	; 255
    4180:	2b ea       	ldi	r18, 0xAB	; 171
    4182:	3a ea       	ldi	r19, 0xAA	; 170
    4184:	4a ea       	ldi	r20, 0xAA	; 170
    4186:	50 e4       	ldi	r21, 0x40	; 64
    4188:	fc 01       	movw	r30, r24
    418a:	60 81       	ld	r22, Z
    418c:	71 81       	ldd	r23, Z+1	; 0x01
    418e:	82 81       	ldd	r24, Z+2	; 0x02
    4190:	93 81       	ldd	r25, Z+3	; 0x03
    4192:	0e 94 2d 36 	call	0x6c5a	; 0x6c5a <__mulsf3>
    4196:	dc 01       	movw	r26, r24
    4198:	cb 01       	movw	r24, r22
    419a:	f8 01       	movw	r30, r16
    419c:	80 83       	st	Z, r24
    419e:	91 83       	std	Z+1, r25	; 0x01
    41a0:	a2 83       	std	Z+2, r26	; 0x02
    41a2:	b3 83       	std	Z+3, r27	; 0x03
	if (__tmp < 1.0)
    41a4:	ce 01       	movw	r24, r28
    41a6:	81 5b       	subi	r24, 0xB1	; 177
    41a8:	9f 4f       	sbci	r25, 0xFF	; 255
    41aa:	20 e0       	ldi	r18, 0x00	; 0
    41ac:	30 e0       	ldi	r19, 0x00	; 0
    41ae:	40 e8       	ldi	r20, 0x80	; 128
    41b0:	5f e3       	ldi	r21, 0x3F	; 63
    41b2:	fc 01       	movw	r30, r24
    41b4:	60 81       	ld	r22, Z
    41b6:	71 81       	ldd	r23, Z+1	; 0x01
    41b8:	82 81       	ldd	r24, Z+2	; 0x02
    41ba:	93 81       	ldd	r25, Z+3	; 0x03
    41bc:	0e 94 13 38 	call	0x7026	; 0x7026 <__ltsf2>
    41c0:	88 23       	and	r24, r24
    41c2:	3c f4       	brge	.+14     	; 0x41d2 <s_read_byte+0x66c>
		__ticks = 1;
    41c4:	ce 01       	movw	r24, r28
    41c6:	8d 5a       	subi	r24, 0xAD	; 173
    41c8:	9f 4f       	sbci	r25, 0xFF	; 255
    41ca:	21 e0       	ldi	r18, 0x01	; 1
    41cc:	fc 01       	movw	r30, r24
    41ce:	20 83       	st	Z, r18
    41d0:	f9 c0       	rjmp	.+498    	; 0x43c4 <s_read_byte+0x85e>
	else if (__tmp > 255)
    41d2:	ce 01       	movw	r24, r28
    41d4:	81 5b       	subi	r24, 0xB1	; 177
    41d6:	9f 4f       	sbci	r25, 0xFF	; 255
    41d8:	20 e0       	ldi	r18, 0x00	; 0
    41da:	30 e0       	ldi	r19, 0x00	; 0
    41dc:	4f e7       	ldi	r20, 0x7F	; 127
    41de:	53 e4       	ldi	r21, 0x43	; 67
    41e0:	fc 01       	movw	r30, r24
    41e2:	60 81       	ld	r22, Z
    41e4:	71 81       	ldd	r23, Z+1	; 0x01
    41e6:	82 81       	ldd	r24, Z+2	; 0x02
    41e8:	93 81       	ldd	r25, Z+3	; 0x03
    41ea:	0e 94 b5 37 	call	0x6f6a	; 0x6f6a <__gtsf2>
    41ee:	18 16       	cp	r1, r24
    41f0:	0c f0       	brlt	.+2      	; 0x41f4 <s_read_byte+0x68e>
    41f2:	d7 c0       	rjmp	.+430    	; 0x43a2 <s_read_byte+0x83c>
	{
		_delay_ms(__us / 1000.0);
    41f4:	ce 01       	movw	r24, r28
    41f6:	85 5b       	subi	r24, 0xB5	; 181
    41f8:	9f 4f       	sbci	r25, 0xFF	; 255
    41fa:	20 e0       	ldi	r18, 0x00	; 0
    41fc:	30 e0       	ldi	r19, 0x00	; 0
    41fe:	4a e7       	ldi	r20, 0x7A	; 122
    4200:	54 e4       	ldi	r21, 0x44	; 68
    4202:	fc 01       	movw	r30, r24
    4204:	60 81       	ld	r22, Z
    4206:	71 81       	ldd	r23, Z+1	; 0x01
    4208:	82 81       	ldd	r24, Z+2	; 0x02
    420a:	93 81       	ldd	r25, Z+3	; 0x03
    420c:	0e 94 12 37 	call	0x6e24	; 0x6e24 <__divsf3>
    4210:	dc 01       	movw	r26, r24
    4212:	cb 01       	movw	r24, r22
    4214:	9e 01       	movw	r18, r28
    4216:	2c 5a       	subi	r18, 0xAC	; 172
    4218:	3f 4f       	sbci	r19, 0xFF	; 255
    421a:	f9 01       	movw	r30, r18
    421c:	80 83       	st	Z, r24
    421e:	91 83       	std	Z+1, r25	; 0x01
    4220:	a2 83       	std	Z+2, r26	; 0x02
    4222:	b3 83       	std	Z+3, r27	; 0x03
	#endif

	__builtin_avr_delay_cycles(__ticks_dc);

#else
	__tmp = ((F_CPU) / 4e3) * __ms;
    4224:	8e 01       	movw	r16, r28
    4226:	08 5a       	subi	r16, 0xA8	; 168
    4228:	1f 4f       	sbci	r17, 0xFF	; 255
    422a:	ce 01       	movw	r24, r28
    422c:	8c 5a       	subi	r24, 0xAC	; 172
    422e:	9f 4f       	sbci	r25, 0xFF	; 255
    4230:	20 e0       	ldi	r18, 0x00	; 0
    4232:	30 e0       	ldi	r19, 0x00	; 0
    4234:	4a e7       	ldi	r20, 0x7A	; 122
    4236:	55 e4       	ldi	r21, 0x45	; 69
    4238:	fc 01       	movw	r30, r24
    423a:	60 81       	ld	r22, Z
    423c:	71 81       	ldd	r23, Z+1	; 0x01
    423e:	82 81       	ldd	r24, Z+2	; 0x02
    4240:	93 81       	ldd	r25, Z+3	; 0x03
    4242:	0e 94 2d 36 	call	0x6c5a	; 0x6c5a <__mulsf3>
    4246:	dc 01       	movw	r26, r24
    4248:	cb 01       	movw	r24, r22
    424a:	f8 01       	movw	r30, r16
    424c:	80 83       	st	Z, r24
    424e:	91 83       	std	Z+1, r25	; 0x01
    4250:	a2 83       	std	Z+2, r26	; 0x02
    4252:	b3 83       	std	Z+3, r27	; 0x03
	if (__tmp < 1.0)
    4254:	ce 01       	movw	r24, r28
    4256:	88 5a       	subi	r24, 0xA8	; 168
    4258:	9f 4f       	sbci	r25, 0xFF	; 255
    425a:	20 e0       	ldi	r18, 0x00	; 0
    425c:	30 e0       	ldi	r19, 0x00	; 0
    425e:	40 e8       	ldi	r20, 0x80	; 128
    4260:	5f e3       	ldi	r21, 0x3F	; 63
    4262:	fc 01       	movw	r30, r24
    4264:	60 81       	ld	r22, Z
    4266:	71 81       	ldd	r23, Z+1	; 0x01
    4268:	82 81       	ldd	r24, Z+2	; 0x02
    426a:	93 81       	ldd	r25, Z+3	; 0x03
    426c:	0e 94 13 38 	call	0x7026	; 0x7026 <__ltsf2>
    4270:	88 23       	and	r24, r24
    4272:	4c f4       	brge	.+18     	; 0x4286 <s_read_byte+0x720>
		__ticks = 1;
    4274:	ce 01       	movw	r24, r28
    4276:	84 5a       	subi	r24, 0xA4	; 164
    4278:	9f 4f       	sbci	r25, 0xFF	; 255
    427a:	21 e0       	ldi	r18, 0x01	; 1
    427c:	30 e0       	ldi	r19, 0x00	; 0
    427e:	fc 01       	movw	r30, r24
    4280:	31 83       	std	Z+1, r19	; 0x01
    4282:	20 83       	st	Z, r18
    4284:	70 c0       	rjmp	.+224    	; 0x4366 <s_read_byte+0x800>
	else if (__tmp > 65535)
    4286:	ce 01       	movw	r24, r28
    4288:	88 5a       	subi	r24, 0xA8	; 168
    428a:	9f 4f       	sbci	r25, 0xFF	; 255
    428c:	20 e0       	ldi	r18, 0x00	; 0
    428e:	3f ef       	ldi	r19, 0xFF	; 255
    4290:	4f e7       	ldi	r20, 0x7F	; 127
    4292:	57 e4       	ldi	r21, 0x47	; 71
    4294:	fc 01       	movw	r30, r24
    4296:	60 81       	ld	r22, Z
    4298:	71 81       	ldd	r23, Z+1	; 0x01
    429a:	82 81       	ldd	r24, Z+2	; 0x02
    429c:	93 81       	ldd	r25, Z+3	; 0x03
    429e:	0e 94 b5 37 	call	0x6f6a	; 0x6f6a <__gtsf2>
    42a2:	18 16       	cp	r1, r24
    42a4:	0c f0       	brlt	.+2      	; 0x42a8 <s_read_byte+0x742>
    42a6:	4d c0       	rjmp	.+154    	; 0x4342 <s_read_byte+0x7dc>
	{
		//	__ticks = requested delay in 1/10 ms
		__ticks = (uint16_t) (__ms * 10.0);
    42a8:	ce 01       	movw	r24, r28
    42aa:	8c 5a       	subi	r24, 0xAC	; 172
    42ac:	9f 4f       	sbci	r25, 0xFF	; 255
    42ae:	20 e0       	ldi	r18, 0x00	; 0
    42b0:	30 e0       	ldi	r19, 0x00	; 0
    42b2:	40 e2       	ldi	r20, 0x20	; 32
    42b4:	51 e4       	ldi	r21, 0x41	; 65
    42b6:	fc 01       	movw	r30, r24
    42b8:	60 81       	ld	r22, Z
    42ba:	71 81       	ldd	r23, Z+1	; 0x01
    42bc:	82 81       	ldd	r24, Z+2	; 0x02
    42be:	93 81       	ldd	r25, Z+3	; 0x03
    42c0:	0e 94 2d 36 	call	0x6c5a	; 0x6c5a <__mulsf3>
    42c4:	dc 01       	movw	r26, r24
    42c6:	cb 01       	movw	r24, r22
    42c8:	8e 01       	movw	r16, r28
    42ca:	04 5a       	subi	r16, 0xA4	; 164
    42cc:	1f 4f       	sbci	r17, 0xFF	; 255
    42ce:	bc 01       	movw	r22, r24
    42d0:	cd 01       	movw	r24, r26
    42d2:	0e 94 48 34 	call	0x6890	; 0x6890 <__fixunssfsi>
    42d6:	dc 01       	movw	r26, r24
    42d8:	cb 01       	movw	r24, r22
    42da:	f8 01       	movw	r30, r16
    42dc:	91 83       	std	Z+1, r25	; 0x01
    42de:	80 83       	st	Z, r24
    42e0:	27 c0       	rjmp	.+78     	; 0x4330 <s_read_byte+0x7ca>
    42e2:	ce 01       	movw	r24, r28
    42e4:	82 5a       	subi	r24, 0xA2	; 162
    42e6:	9f 4f       	sbci	r25, 0xFF	; 255
    42e8:	20 e9       	ldi	r18, 0x90	; 144
    42ea:	31 e0       	ldi	r19, 0x01	; 1
    42ec:	fc 01       	movw	r30, r24
    42ee:	31 83       	std	Z+1, r19	; 0x01
    42f0:	20 83       	st	Z, r18
    milliseconds can be achieved.
 */
void
_delay_loop_2(uint16_t __count)
{
	__asm__ volatile (
    42f2:	ce 01       	movw	r24, r28
    42f4:	82 5a       	subi	r24, 0xA2	; 162
    42f6:	9f 4f       	sbci	r25, 0xFF	; 255
    42f8:	fc 01       	movw	r30, r24
    42fa:	80 81       	ld	r24, Z
    42fc:	91 81       	ldd	r25, Z+1	; 0x01
    42fe:	8c 01       	movw	r16, r24
    4300:	c8 01       	movw	r24, r16
    4302:	01 97       	sbiw	r24, 0x01	; 1
    4304:	f1 f7       	brne	.-4      	; 0x4302 <s_read_byte+0x79c>
    4306:	8c 01       	movw	r16, r24
    4308:	ce 01       	movw	r24, r28
    430a:	82 5a       	subi	r24, 0xA2	; 162
    430c:	9f 4f       	sbci	r25, 0xFF	; 255
    430e:	fc 01       	movw	r30, r24
    4310:	11 83       	std	Z+1, r17	; 0x01
    4312:	00 83       	st	Z, r16
		while(__ticks)
		{
			// wait 1/10 ms
			_delay_loop_2(((F_CPU) / 4e3) / 10);
			__ticks --;
    4314:	ce 01       	movw	r24, r28
    4316:	84 5a       	subi	r24, 0xA4	; 164
    4318:	9f 4f       	sbci	r25, 0xFF	; 255
    431a:	9e 01       	movw	r18, r28
    431c:	24 5a       	subi	r18, 0xA4	; 164
    431e:	3f 4f       	sbci	r19, 0xFF	; 255
    4320:	f9 01       	movw	r30, r18
    4322:	20 81       	ld	r18, Z
    4324:	31 81       	ldd	r19, Z+1	; 0x01
    4326:	21 50       	subi	r18, 0x01	; 1
    4328:	31 09       	sbc	r19, r1
    432a:	fc 01       	movw	r30, r24
    432c:	31 83       	std	Z+1, r19	; 0x01
    432e:	20 83       	st	Z, r18
		__ticks = 1;
	else if (__tmp > 65535)
	{
		//	__ticks = requested delay in 1/10 ms
		__ticks = (uint16_t) (__ms * 10.0);
		while(__ticks)
    4330:	ce 01       	movw	r24, r28
    4332:	84 5a       	subi	r24, 0xA4	; 164
    4334:	9f 4f       	sbci	r25, 0xFF	; 255
    4336:	fc 01       	movw	r30, r24
    4338:	80 81       	ld	r24, Z
    433a:	91 81       	ldd	r25, Z+1	; 0x01
    433c:	00 97       	sbiw	r24, 0x00	; 0
    433e:	89 f6       	brne	.-94     	; 0x42e2 <s_read_byte+0x77c>
    4340:	58 c0       	rjmp	.+176    	; 0x43f2 <s_read_byte+0x88c>
			__ticks --;
		}
		return;
	}
	else
		__ticks = (uint16_t)__tmp;
    4342:	8e 01       	movw	r16, r28
    4344:	04 5a       	subi	r16, 0xA4	; 164
    4346:	1f 4f       	sbci	r17, 0xFF	; 255
    4348:	ce 01       	movw	r24, r28
    434a:	88 5a       	subi	r24, 0xA8	; 168
    434c:	9f 4f       	sbci	r25, 0xFF	; 255
    434e:	fc 01       	movw	r30, r24
    4350:	60 81       	ld	r22, Z
    4352:	71 81       	ldd	r23, Z+1	; 0x01
    4354:	82 81       	ldd	r24, Z+2	; 0x02
    4356:	93 81       	ldd	r25, Z+3	; 0x03
    4358:	0e 94 48 34 	call	0x6890	; 0x6890 <__fixunssfsi>
    435c:	dc 01       	movw	r26, r24
    435e:	cb 01       	movw	r24, r22
    4360:	f8 01       	movw	r30, r16
    4362:	91 83       	std	Z+1, r25	; 0x01
    4364:	80 83       	st	Z, r24
    4366:	ce 01       	movw	r24, r28
    4368:	80 5a       	subi	r24, 0xA0	; 160
    436a:	9f 4f       	sbci	r25, 0xFF	; 255
    436c:	9e 01       	movw	r18, r28
    436e:	24 5a       	subi	r18, 0xA4	; 164
    4370:	3f 4f       	sbci	r19, 0xFF	; 255
    4372:	f9 01       	movw	r30, r18
    4374:	20 81       	ld	r18, Z
    4376:	31 81       	ldd	r19, Z+1	; 0x01
    4378:	fc 01       	movw	r30, r24
    437a:	31 83       	std	Z+1, r19	; 0x01
    437c:	20 83       	st	Z, r18
    437e:	ce 01       	movw	r24, r28
    4380:	80 5a       	subi	r24, 0xA0	; 160
    4382:	9f 4f       	sbci	r25, 0xFF	; 255
    4384:	fc 01       	movw	r30, r24
    4386:	80 81       	ld	r24, Z
    4388:	91 81       	ldd	r25, Z+1	; 0x01
    438a:	8c 01       	movw	r16, r24
    438c:	c8 01       	movw	r24, r16
    438e:	01 97       	sbiw	r24, 0x01	; 1
    4390:	f1 f7       	brne	.-4      	; 0x438e <s_read_byte+0x828>
    4392:	8c 01       	movw	r16, r24
    4394:	ce 01       	movw	r24, r28
    4396:	80 5a       	subi	r24, 0xA0	; 160
    4398:	9f 4f       	sbci	r25, 0xFF	; 255
    439a:	fc 01       	movw	r30, r24
    439c:	11 83       	std	Z+1, r17	; 0x01
    439e:	00 83       	st	Z, r16
    43a0:	28 c0       	rjmp	.+80     	; 0x43f2 <s_read_byte+0x88c>
	{
		_delay_ms(__us / 1000.0);
		return;
	}
	else
		__ticks = (uint8_t)__tmp;
    43a2:	8e 01       	movw	r16, r28
    43a4:	0d 5a       	subi	r16, 0xAD	; 173
    43a6:	1f 4f       	sbci	r17, 0xFF	; 255
    43a8:	ce 01       	movw	r24, r28
    43aa:	81 5b       	subi	r24, 0xB1	; 177
    43ac:	9f 4f       	sbci	r25, 0xFF	; 255
    43ae:	fc 01       	movw	r30, r24
    43b0:	60 81       	ld	r22, Z
    43b2:	71 81       	ldd	r23, Z+1	; 0x01
    43b4:	82 81       	ldd	r24, Z+2	; 0x02
    43b6:	93 81       	ldd	r25, Z+3	; 0x03
    43b8:	0e 94 48 34 	call	0x6890	; 0x6890 <__fixunssfsi>
    43bc:	dc 01       	movw	r26, r24
    43be:	cb 01       	movw	r24, r22
    43c0:	f8 01       	movw	r30, r16
    43c2:	80 83       	st	Z, r24
    43c4:	ce 01       	movw	r24, r28
    43c6:	8e 59       	subi	r24, 0x9E	; 158
    43c8:	9f 4f       	sbci	r25, 0xFF	; 255
    43ca:	9e 01       	movw	r18, r28
    43cc:	2d 5a       	subi	r18, 0xAD	; 173
    43ce:	3f 4f       	sbci	r19, 0xFF	; 255
    43d0:	f9 01       	movw	r30, r18
    43d2:	20 81       	ld	r18, Z
    43d4:	fc 01       	movw	r30, r24
    43d6:	20 83       	st	Z, r18
    can be achieved.
*/
void
_delay_loop_1(uint8_t __count)
{
	__asm__ volatile (
    43d8:	ce 01       	movw	r24, r28
    43da:	8e 59       	subi	r24, 0x9E	; 158
    43dc:	9f 4f       	sbci	r25, 0xFF	; 255
    43de:	fc 01       	movw	r30, r24
    43e0:	80 81       	ld	r24, Z
    43e2:	18 2f       	mov	r17, r24
    43e4:	1a 95       	dec	r17
    43e6:	f1 f7       	brne	.-4      	; 0x43e4 <s_read_byte+0x87e>
    43e8:	ce 01       	movw	r24, r28
    43ea:	8e 59       	subi	r24, 0x9E	; 158
    43ec:	9f 4f       	sbci	r25, 0xFF	; 255
    43ee:	fc 01       	movw	r30, r24
    43f0:	10 83       	st	Z, r17
	DATA_OUT_1;
	_delay_us(3);
	
	DATAIN;
	
	for (i=0x80; i>0; i>>=1)
    43f2:	89 81       	ldd	r24, Y+1	; 0x01
    43f4:	86 95       	lsr	r24
    43f6:	89 83       	std	Y+1, r24	; 0x01
    43f8:	89 81       	ldd	r24, Y+1	; 0x01
    43fa:	88 23       	and	r24, r24
    43fc:	09 f0       	breq	.+2      	; 0x4400 <s_read_byte+0x89a>
    43fe:	77 cd       	rjmp	.-1298   	; 0x3eee <s_read_byte+0x388>
		if (DATA_IN) val = (val | i); 
		
		SHT_SCK_0;
		_delay_us(3);
	}
	DATAOUT;
    4400:	81 e6       	ldi	r24, 0x61	; 97
    4402:	90 e0       	ldi	r25, 0x00	; 0
    4404:	21 e6       	ldi	r18, 0x61	; 97
    4406:	30 e0       	ldi	r19, 0x00	; 0
    4408:	f9 01       	movw	r30, r18
    440a:	20 81       	ld	r18, Z
    440c:	21 60       	ori	r18, 0x01	; 1
    440e:	fc 01       	movw	r30, r24
    4410:	20 83       	st	Z, r18
    4412:	9e 01       	movw	r18, r28
    4414:	2d 59       	subi	r18, 0x9D	; 157
    4416:	3f 4f       	sbci	r19, 0xFF	; 255
    4418:	80 e0       	ldi	r24, 0x00	; 0
    441a:	90 e0       	ldi	r25, 0x00	; 0
    441c:	a0 e4       	ldi	r26, 0x40	; 64
    441e:	b0 e4       	ldi	r27, 0x40	; 64
    4420:	f9 01       	movw	r30, r18
    4422:	80 83       	st	Z, r24
    4424:	91 83       	std	Z+1, r25	; 0x01
    4426:	a2 83       	std	Z+2, r26	; 0x02
    4428:	b3 83       	std	Z+3, r27	; 0x03
	#endif

	__builtin_avr_delay_cycles(__ticks_dc);

#else
	__tmp = ((F_CPU) / 3e6) * __us;
    442a:	8e 01       	movw	r16, r28
    442c:	09 59       	subi	r16, 0x99	; 153
    442e:	1f 4f       	sbci	r17, 0xFF	; 255
    4430:	ce 01       	movw	r24, r28
    4432:	8d 59       	subi	r24, 0x9D	; 157
    4434:	9f 4f       	sbci	r25, 0xFF	; 255
    4436:	2b ea       	ldi	r18, 0xAB	; 171
    4438:	3a ea       	ldi	r19, 0xAA	; 170
    443a:	4a ea       	ldi	r20, 0xAA	; 170
    443c:	50 e4       	ldi	r21, 0x40	; 64
    443e:	fc 01       	movw	r30, r24
    4440:	60 81       	ld	r22, Z
    4442:	71 81       	ldd	r23, Z+1	; 0x01
    4444:	82 81       	ldd	r24, Z+2	; 0x02
    4446:	93 81       	ldd	r25, Z+3	; 0x03
    4448:	0e 94 2d 36 	call	0x6c5a	; 0x6c5a <__mulsf3>
    444c:	dc 01       	movw	r26, r24
    444e:	cb 01       	movw	r24, r22
    4450:	f8 01       	movw	r30, r16
    4452:	80 83       	st	Z, r24
    4454:	91 83       	std	Z+1, r25	; 0x01
    4456:	a2 83       	std	Z+2, r26	; 0x02
    4458:	b3 83       	std	Z+3, r27	; 0x03
	if (__tmp < 1.0)
    445a:	ce 01       	movw	r24, r28
    445c:	89 59       	subi	r24, 0x99	; 153
    445e:	9f 4f       	sbci	r25, 0xFF	; 255
    4460:	20 e0       	ldi	r18, 0x00	; 0
    4462:	30 e0       	ldi	r19, 0x00	; 0
    4464:	40 e8       	ldi	r20, 0x80	; 128
    4466:	5f e3       	ldi	r21, 0x3F	; 63
    4468:	fc 01       	movw	r30, r24
    446a:	60 81       	ld	r22, Z
    446c:	71 81       	ldd	r23, Z+1	; 0x01
    446e:	82 81       	ldd	r24, Z+2	; 0x02
    4470:	93 81       	ldd	r25, Z+3	; 0x03
    4472:	0e 94 13 38 	call	0x7026	; 0x7026 <__ltsf2>
    4476:	88 23       	and	r24, r24
    4478:	3c f4       	brge	.+14     	; 0x4488 <s_read_byte+0x922>
		__ticks = 1;
    447a:	ce 01       	movw	r24, r28
    447c:	85 59       	subi	r24, 0x95	; 149
    447e:	9f 4f       	sbci	r25, 0xFF	; 255
    4480:	21 e0       	ldi	r18, 0x01	; 1
    4482:	fc 01       	movw	r30, r24
    4484:	20 83       	st	Z, r18
    4486:	f9 c0       	rjmp	.+498    	; 0x467a <s_read_byte+0xb14>
	else if (__tmp > 255)
    4488:	ce 01       	movw	r24, r28
    448a:	89 59       	subi	r24, 0x99	; 153
    448c:	9f 4f       	sbci	r25, 0xFF	; 255
    448e:	20 e0       	ldi	r18, 0x00	; 0
    4490:	30 e0       	ldi	r19, 0x00	; 0
    4492:	4f e7       	ldi	r20, 0x7F	; 127
    4494:	53 e4       	ldi	r21, 0x43	; 67
    4496:	fc 01       	movw	r30, r24
    4498:	60 81       	ld	r22, Z
    449a:	71 81       	ldd	r23, Z+1	; 0x01
    449c:	82 81       	ldd	r24, Z+2	; 0x02
    449e:	93 81       	ldd	r25, Z+3	; 0x03
    44a0:	0e 94 b5 37 	call	0x6f6a	; 0x6f6a <__gtsf2>
    44a4:	18 16       	cp	r1, r24
    44a6:	0c f0       	brlt	.+2      	; 0x44aa <s_read_byte+0x944>
    44a8:	d7 c0       	rjmp	.+430    	; 0x4658 <s_read_byte+0xaf2>
	{
		_delay_ms(__us / 1000.0);
    44aa:	ce 01       	movw	r24, r28
    44ac:	8d 59       	subi	r24, 0x9D	; 157
    44ae:	9f 4f       	sbci	r25, 0xFF	; 255
    44b0:	20 e0       	ldi	r18, 0x00	; 0
    44b2:	30 e0       	ldi	r19, 0x00	; 0
    44b4:	4a e7       	ldi	r20, 0x7A	; 122
    44b6:	54 e4       	ldi	r21, 0x44	; 68
    44b8:	fc 01       	movw	r30, r24
    44ba:	60 81       	ld	r22, Z
    44bc:	71 81       	ldd	r23, Z+1	; 0x01
    44be:	82 81       	ldd	r24, Z+2	; 0x02
    44c0:	93 81       	ldd	r25, Z+3	; 0x03
    44c2:	0e 94 12 37 	call	0x6e24	; 0x6e24 <__divsf3>
    44c6:	dc 01       	movw	r26, r24
    44c8:	cb 01       	movw	r24, r22
    44ca:	9e 01       	movw	r18, r28
    44cc:	24 59       	subi	r18, 0x94	; 148
    44ce:	3f 4f       	sbci	r19, 0xFF	; 255
    44d0:	f9 01       	movw	r30, r18
    44d2:	80 83       	st	Z, r24
    44d4:	91 83       	std	Z+1, r25	; 0x01
    44d6:	a2 83       	std	Z+2, r26	; 0x02
    44d8:	b3 83       	std	Z+3, r27	; 0x03
	#endif

	__builtin_avr_delay_cycles(__ticks_dc);

#else
	__tmp = ((F_CPU) / 4e3) * __ms;
    44da:	8e 01       	movw	r16, r28
    44dc:	00 59       	subi	r16, 0x90	; 144
    44de:	1f 4f       	sbci	r17, 0xFF	; 255
    44e0:	ce 01       	movw	r24, r28
    44e2:	84 59       	subi	r24, 0x94	; 148
    44e4:	9f 4f       	sbci	r25, 0xFF	; 255
    44e6:	20 e0       	ldi	r18, 0x00	; 0
    44e8:	30 e0       	ldi	r19, 0x00	; 0
    44ea:	4a e7       	ldi	r20, 0x7A	; 122
    44ec:	55 e4       	ldi	r21, 0x45	; 69
    44ee:	fc 01       	movw	r30, r24
    44f0:	60 81       	ld	r22, Z
    44f2:	71 81       	ldd	r23, Z+1	; 0x01
    44f4:	82 81       	ldd	r24, Z+2	; 0x02
    44f6:	93 81       	ldd	r25, Z+3	; 0x03
    44f8:	0e 94 2d 36 	call	0x6c5a	; 0x6c5a <__mulsf3>
    44fc:	dc 01       	movw	r26, r24
    44fe:	cb 01       	movw	r24, r22
    4500:	f8 01       	movw	r30, r16
    4502:	80 83       	st	Z, r24
    4504:	91 83       	std	Z+1, r25	; 0x01
    4506:	a2 83       	std	Z+2, r26	; 0x02
    4508:	b3 83       	std	Z+3, r27	; 0x03
	if (__tmp < 1.0)
    450a:	ce 01       	movw	r24, r28
    450c:	80 59       	subi	r24, 0x90	; 144
    450e:	9f 4f       	sbci	r25, 0xFF	; 255
    4510:	20 e0       	ldi	r18, 0x00	; 0
    4512:	30 e0       	ldi	r19, 0x00	; 0
    4514:	40 e8       	ldi	r20, 0x80	; 128
    4516:	5f e3       	ldi	r21, 0x3F	; 63
    4518:	fc 01       	movw	r30, r24
    451a:	60 81       	ld	r22, Z
    451c:	71 81       	ldd	r23, Z+1	; 0x01
    451e:	82 81       	ldd	r24, Z+2	; 0x02
    4520:	93 81       	ldd	r25, Z+3	; 0x03
    4522:	0e 94 13 38 	call	0x7026	; 0x7026 <__ltsf2>
    4526:	88 23       	and	r24, r24
    4528:	4c f4       	brge	.+18     	; 0x453c <s_read_byte+0x9d6>
		__ticks = 1;
    452a:	ce 01       	movw	r24, r28
    452c:	8c 58       	subi	r24, 0x8C	; 140
    452e:	9f 4f       	sbci	r25, 0xFF	; 255
    4530:	21 e0       	ldi	r18, 0x01	; 1
    4532:	30 e0       	ldi	r19, 0x00	; 0
    4534:	fc 01       	movw	r30, r24
    4536:	31 83       	std	Z+1, r19	; 0x01
    4538:	20 83       	st	Z, r18
    453a:	70 c0       	rjmp	.+224    	; 0x461c <s_read_byte+0xab6>
	else if (__tmp > 65535)
    453c:	ce 01       	movw	r24, r28
    453e:	80 59       	subi	r24, 0x90	; 144
    4540:	9f 4f       	sbci	r25, 0xFF	; 255
    4542:	20 e0       	ldi	r18, 0x00	; 0
    4544:	3f ef       	ldi	r19, 0xFF	; 255
    4546:	4f e7       	ldi	r20, 0x7F	; 127
    4548:	57 e4       	ldi	r21, 0x47	; 71
    454a:	fc 01       	movw	r30, r24
    454c:	60 81       	ld	r22, Z
    454e:	71 81       	ldd	r23, Z+1	; 0x01
    4550:	82 81       	ldd	r24, Z+2	; 0x02
    4552:	93 81       	ldd	r25, Z+3	; 0x03
    4554:	0e 94 b5 37 	call	0x6f6a	; 0x6f6a <__gtsf2>
    4558:	18 16       	cp	r1, r24
    455a:	0c f0       	brlt	.+2      	; 0x455e <s_read_byte+0x9f8>
    455c:	4d c0       	rjmp	.+154    	; 0x45f8 <s_read_byte+0xa92>
	{
		//	__ticks = requested delay in 1/10 ms
		__ticks = (uint16_t) (__ms * 10.0);
    455e:	ce 01       	movw	r24, r28
    4560:	84 59       	subi	r24, 0x94	; 148
    4562:	9f 4f       	sbci	r25, 0xFF	; 255
    4564:	20 e0       	ldi	r18, 0x00	; 0
    4566:	30 e0       	ldi	r19, 0x00	; 0
    4568:	40 e2       	ldi	r20, 0x20	; 32
    456a:	51 e4       	ldi	r21, 0x41	; 65
    456c:	fc 01       	movw	r30, r24
    456e:	60 81       	ld	r22, Z
    4570:	71 81       	ldd	r23, Z+1	; 0x01
    4572:	82 81       	ldd	r24, Z+2	; 0x02
    4574:	93 81       	ldd	r25, Z+3	; 0x03
    4576:	0e 94 2d 36 	call	0x6c5a	; 0x6c5a <__mulsf3>
    457a:	dc 01       	movw	r26, r24
    457c:	cb 01       	movw	r24, r22
    457e:	8e 01       	movw	r16, r28
    4580:	0c 58       	subi	r16, 0x8C	; 140
    4582:	1f 4f       	sbci	r17, 0xFF	; 255
    4584:	bc 01       	movw	r22, r24
    4586:	cd 01       	movw	r24, r26
    4588:	0e 94 48 34 	call	0x6890	; 0x6890 <__fixunssfsi>
    458c:	dc 01       	movw	r26, r24
    458e:	cb 01       	movw	r24, r22
    4590:	f8 01       	movw	r30, r16
    4592:	91 83       	std	Z+1, r25	; 0x01
    4594:	80 83       	st	Z, r24
    4596:	27 c0       	rjmp	.+78     	; 0x45e6 <s_read_byte+0xa80>
    4598:	ce 01       	movw	r24, r28
    459a:	8a 58       	subi	r24, 0x8A	; 138
    459c:	9f 4f       	sbci	r25, 0xFF	; 255
    459e:	20 e9       	ldi	r18, 0x90	; 144
    45a0:	31 e0       	ldi	r19, 0x01	; 1
    45a2:	fc 01       	movw	r30, r24
    45a4:	31 83       	std	Z+1, r19	; 0x01
    45a6:	20 83       	st	Z, r18
    milliseconds can be achieved.
 */
void
_delay_loop_2(uint16_t __count)
{
	__asm__ volatile (
    45a8:	ce 01       	movw	r24, r28
    45aa:	8a 58       	subi	r24, 0x8A	; 138
    45ac:	9f 4f       	sbci	r25, 0xFF	; 255
    45ae:	fc 01       	movw	r30, r24
    45b0:	80 81       	ld	r24, Z
    45b2:	91 81       	ldd	r25, Z+1	; 0x01
    45b4:	8c 01       	movw	r16, r24
    45b6:	c8 01       	movw	r24, r16
    45b8:	01 97       	sbiw	r24, 0x01	; 1
    45ba:	f1 f7       	brne	.-4      	; 0x45b8 <s_read_byte+0xa52>
    45bc:	8c 01       	movw	r16, r24
    45be:	ce 01       	movw	r24, r28
    45c0:	8a 58       	subi	r24, 0x8A	; 138
    45c2:	9f 4f       	sbci	r25, 0xFF	; 255
    45c4:	fc 01       	movw	r30, r24
    45c6:	11 83       	std	Z+1, r17	; 0x01
    45c8:	00 83       	st	Z, r16
		while(__ticks)
		{
			// wait 1/10 ms
			_delay_loop_2(((F_CPU) / 4e3) / 10);
			__ticks --;
    45ca:	ce 01       	movw	r24, r28
    45cc:	8c 58       	subi	r24, 0x8C	; 140
    45ce:	9f 4f       	sbci	r25, 0xFF	; 255
    45d0:	9e 01       	movw	r18, r28
    45d2:	2c 58       	subi	r18, 0x8C	; 140
    45d4:	3f 4f       	sbci	r19, 0xFF	; 255
    45d6:	f9 01       	movw	r30, r18
    45d8:	20 81       	ld	r18, Z
    45da:	31 81       	ldd	r19, Z+1	; 0x01
    45dc:	21 50       	subi	r18, 0x01	; 1
    45de:	31 09       	sbc	r19, r1
    45e0:	fc 01       	movw	r30, r24
    45e2:	31 83       	std	Z+1, r19	; 0x01
    45e4:	20 83       	st	Z, r18
		__ticks = 1;
	else if (__tmp > 65535)
	{
		//	__ticks = requested delay in 1/10 ms
		__ticks = (uint16_t) (__ms * 10.0);
		while(__ticks)
    45e6:	ce 01       	movw	r24, r28
    45e8:	8c 58       	subi	r24, 0x8C	; 140
    45ea:	9f 4f       	sbci	r25, 0xFF	; 255
    45ec:	fc 01       	movw	r30, r24
    45ee:	80 81       	ld	r24, Z
    45f0:	91 81       	ldd	r25, Z+1	; 0x01
    45f2:	00 97       	sbiw	r24, 0x00	; 0
    45f4:	89 f6       	brne	.-94     	; 0x4598 <s_read_byte+0xa32>
    45f6:	58 c0       	rjmp	.+176    	; 0x46a8 <s_read_byte+0xb42>
			__ticks --;
		}
		return;
	}
	else
		__ticks = (uint16_t)__tmp;
    45f8:	8e 01       	movw	r16, r28
    45fa:	0c 58       	subi	r16, 0x8C	; 140
    45fc:	1f 4f       	sbci	r17, 0xFF	; 255
    45fe:	ce 01       	movw	r24, r28
    4600:	80 59       	subi	r24, 0x90	; 144
    4602:	9f 4f       	sbci	r25, 0xFF	; 255
    4604:	fc 01       	movw	r30, r24
    4606:	60 81       	ld	r22, Z
    4608:	71 81       	ldd	r23, Z+1	; 0x01
    460a:	82 81       	ldd	r24, Z+2	; 0x02
    460c:	93 81       	ldd	r25, Z+3	; 0x03
    460e:	0e 94 48 34 	call	0x6890	; 0x6890 <__fixunssfsi>
    4612:	dc 01       	movw	r26, r24
    4614:	cb 01       	movw	r24, r22
    4616:	f8 01       	movw	r30, r16
    4618:	91 83       	std	Z+1, r25	; 0x01
    461a:	80 83       	st	Z, r24
    461c:	ce 01       	movw	r24, r28
    461e:	88 58       	subi	r24, 0x88	; 136
    4620:	9f 4f       	sbci	r25, 0xFF	; 255
    4622:	9e 01       	movw	r18, r28
    4624:	2c 58       	subi	r18, 0x8C	; 140
    4626:	3f 4f       	sbci	r19, 0xFF	; 255
    4628:	f9 01       	movw	r30, r18
    462a:	20 81       	ld	r18, Z
    462c:	31 81       	ldd	r19, Z+1	; 0x01
    462e:	fc 01       	movw	r30, r24
    4630:	31 83       	std	Z+1, r19	; 0x01
    4632:	20 83       	st	Z, r18
    4634:	ce 01       	movw	r24, r28
    4636:	88 58       	subi	r24, 0x88	; 136
    4638:	9f 4f       	sbci	r25, 0xFF	; 255
    463a:	fc 01       	movw	r30, r24
    463c:	80 81       	ld	r24, Z
    463e:	91 81       	ldd	r25, Z+1	; 0x01
    4640:	8c 01       	movw	r16, r24
    4642:	c8 01       	movw	r24, r16
    4644:	01 97       	sbiw	r24, 0x01	; 1
    4646:	f1 f7       	brne	.-4      	; 0x4644 <s_read_byte+0xade>
    4648:	8c 01       	movw	r16, r24
    464a:	ce 01       	movw	r24, r28
    464c:	88 58       	subi	r24, 0x88	; 136
    464e:	9f 4f       	sbci	r25, 0xFF	; 255
    4650:	fc 01       	movw	r30, r24
    4652:	11 83       	std	Z+1, r17	; 0x01
    4654:	00 83       	st	Z, r16
    4656:	28 c0       	rjmp	.+80     	; 0x46a8 <s_read_byte+0xb42>
	{
		_delay_ms(__us / 1000.0);
		return;
	}
	else
		__ticks = (uint8_t)__tmp;
    4658:	8e 01       	movw	r16, r28
    465a:	05 59       	subi	r16, 0x95	; 149
    465c:	1f 4f       	sbci	r17, 0xFF	; 255
    465e:	ce 01       	movw	r24, r28
    4660:	89 59       	subi	r24, 0x99	; 153
    4662:	9f 4f       	sbci	r25, 0xFF	; 255
    4664:	fc 01       	movw	r30, r24
    4666:	60 81       	ld	r22, Z
    4668:	71 81       	ldd	r23, Z+1	; 0x01
    466a:	82 81       	ldd	r24, Z+2	; 0x02
    466c:	93 81       	ldd	r25, Z+3	; 0x03
    466e:	0e 94 48 34 	call	0x6890	; 0x6890 <__fixunssfsi>
    4672:	dc 01       	movw	r26, r24
    4674:	cb 01       	movw	r24, r22
    4676:	f8 01       	movw	r30, r16
    4678:	80 83       	st	Z, r24
    467a:	ce 01       	movw	r24, r28
    467c:	86 58       	subi	r24, 0x86	; 134
    467e:	9f 4f       	sbci	r25, 0xFF	; 255
    4680:	9e 01       	movw	r18, r28
    4682:	25 59       	subi	r18, 0x95	; 149
    4684:	3f 4f       	sbci	r19, 0xFF	; 255
    4686:	f9 01       	movw	r30, r18
    4688:	20 81       	ld	r18, Z
    468a:	fc 01       	movw	r30, r24
    468c:	20 83       	st	Z, r18
    can be achieved.
*/
void
_delay_loop_1(uint8_t __count)
{
	__asm__ volatile (
    468e:	ce 01       	movw	r24, r28
    4690:	86 58       	subi	r24, 0x86	; 134
    4692:	9f 4f       	sbci	r25, 0xFF	; 255
    4694:	fc 01       	movw	r30, r24
    4696:	80 81       	ld	r24, Z
    4698:	18 2f       	mov	r17, r24
    469a:	1a 95       	dec	r17
    469c:	f1 f7       	brne	.-4      	; 0x469a <s_read_byte+0xb34>
    469e:	ce 01       	movw	r24, r28
    46a0:	86 58       	subi	r24, 0x86	; 134
    46a2:	9f 4f       	sbci	r25, 0xFF	; 255
    46a4:	fc 01       	movw	r30, r24
    46a6:	10 83       	st	Z, r17
	_delay_us(3); 
	
	if(ack) 
    46a8:	ce 01       	movw	r24, r28
    46aa:	8d 53       	subi	r24, 0x3D	; 61
    46ac:	9f 4f       	sbci	r25, 0xFF	; 255
    46ae:	fc 01       	movw	r30, r24
    46b0:	80 81       	ld	r24, Z
    46b2:	88 23       	and	r24, r24
    46b4:	51 f0       	breq	.+20     	; 0x46ca <s_read_byte+0xb64>
		DATA_OUT_0; 
    46b6:	82 e6       	ldi	r24, 0x62	; 98
    46b8:	90 e0       	ldi	r25, 0x00	; 0
    46ba:	22 e6       	ldi	r18, 0x62	; 98
    46bc:	30 e0       	ldi	r19, 0x00	; 0
    46be:	f9 01       	movw	r30, r18
    46c0:	20 81       	ld	r18, Z
    46c2:	2e 7f       	andi	r18, 0xFE	; 254
    46c4:	fc 01       	movw	r30, r24
    46c6:	20 83       	st	Z, r18
    46c8:	09 c0       	rjmp	.+18     	; 0x46dc <s_read_byte+0xb76>
	else 
		DATA_OUT_1;
    46ca:	82 e6       	ldi	r24, 0x62	; 98
    46cc:	90 e0       	ldi	r25, 0x00	; 0
    46ce:	22 e6       	ldi	r18, 0x62	; 98
    46d0:	30 e0       	ldi	r19, 0x00	; 0
    46d2:	f9 01       	movw	r30, r18
    46d4:	20 81       	ld	r18, Z
    46d6:	21 60       	ori	r18, 0x01	; 1
    46d8:	fc 01       	movw	r30, r24
    46da:	20 83       	st	Z, r18
    46dc:	9e 01       	movw	r18, r28
    46de:	25 58       	subi	r18, 0x85	; 133
    46e0:	3f 4f       	sbci	r19, 0xFF	; 255
    46e2:	80 e0       	ldi	r24, 0x00	; 0
    46e4:	90 e0       	ldi	r25, 0x00	; 0
    46e6:	a0 e4       	ldi	r26, 0x40	; 64
    46e8:	b0 e4       	ldi	r27, 0x40	; 64
    46ea:	f9 01       	movw	r30, r18
    46ec:	80 83       	st	Z, r24
    46ee:	91 83       	std	Z+1, r25	; 0x01
    46f0:	a2 83       	std	Z+2, r26	; 0x02
    46f2:	b3 83       	std	Z+3, r27	; 0x03
	#endif

	__builtin_avr_delay_cycles(__ticks_dc);

#else
	__tmp = ((F_CPU) / 3e6) * __us;
    46f4:	8e 01       	movw	r16, r28
    46f6:	01 58       	subi	r16, 0x81	; 129
    46f8:	1f 4f       	sbci	r17, 0xFF	; 255
    46fa:	ce 01       	movw	r24, r28
    46fc:	85 58       	subi	r24, 0x85	; 133
    46fe:	9f 4f       	sbci	r25, 0xFF	; 255
    4700:	2b ea       	ldi	r18, 0xAB	; 171
    4702:	3a ea       	ldi	r19, 0xAA	; 170
    4704:	4a ea       	ldi	r20, 0xAA	; 170
    4706:	50 e4       	ldi	r21, 0x40	; 64
    4708:	fc 01       	movw	r30, r24
    470a:	60 81       	ld	r22, Z
    470c:	71 81       	ldd	r23, Z+1	; 0x01
    470e:	82 81       	ldd	r24, Z+2	; 0x02
    4710:	93 81       	ldd	r25, Z+3	; 0x03
    4712:	0e 94 2d 36 	call	0x6c5a	; 0x6c5a <__mulsf3>
    4716:	dc 01       	movw	r26, r24
    4718:	cb 01       	movw	r24, r22
    471a:	f8 01       	movw	r30, r16
    471c:	80 83       	st	Z, r24
    471e:	91 83       	std	Z+1, r25	; 0x01
    4720:	a2 83       	std	Z+2, r26	; 0x02
    4722:	b3 83       	std	Z+3, r27	; 0x03
	if (__tmp < 1.0)
    4724:	ce 01       	movw	r24, r28
    4726:	81 58       	subi	r24, 0x81	; 129
    4728:	9f 4f       	sbci	r25, 0xFF	; 255
    472a:	20 e0       	ldi	r18, 0x00	; 0
    472c:	30 e0       	ldi	r19, 0x00	; 0
    472e:	40 e8       	ldi	r20, 0x80	; 128
    4730:	5f e3       	ldi	r21, 0x3F	; 63
    4732:	fc 01       	movw	r30, r24
    4734:	60 81       	ld	r22, Z
    4736:	71 81       	ldd	r23, Z+1	; 0x01
    4738:	82 81       	ldd	r24, Z+2	; 0x02
    473a:	93 81       	ldd	r25, Z+3	; 0x03
    473c:	0e 94 13 38 	call	0x7026	; 0x7026 <__ltsf2>
    4740:	88 23       	and	r24, r24
    4742:	3c f4       	brge	.+14     	; 0x4752 <s_read_byte+0xbec>
		__ticks = 1;
    4744:	ce 01       	movw	r24, r28
    4746:	8d 57       	subi	r24, 0x7D	; 125
    4748:	9f 4f       	sbci	r25, 0xFF	; 255
    474a:	21 e0       	ldi	r18, 0x01	; 1
    474c:	fc 01       	movw	r30, r24
    474e:	20 83       	st	Z, r18
    4750:	f9 c0       	rjmp	.+498    	; 0x4944 <s_read_byte+0xdde>
	else if (__tmp > 255)
    4752:	ce 01       	movw	r24, r28
    4754:	81 58       	subi	r24, 0x81	; 129
    4756:	9f 4f       	sbci	r25, 0xFF	; 255
    4758:	20 e0       	ldi	r18, 0x00	; 0
    475a:	30 e0       	ldi	r19, 0x00	; 0
    475c:	4f e7       	ldi	r20, 0x7F	; 127
    475e:	53 e4       	ldi	r21, 0x43	; 67
    4760:	fc 01       	movw	r30, r24
    4762:	60 81       	ld	r22, Z
    4764:	71 81       	ldd	r23, Z+1	; 0x01
    4766:	82 81       	ldd	r24, Z+2	; 0x02
    4768:	93 81       	ldd	r25, Z+3	; 0x03
    476a:	0e 94 b5 37 	call	0x6f6a	; 0x6f6a <__gtsf2>
    476e:	18 16       	cp	r1, r24
    4770:	0c f0       	brlt	.+2      	; 0x4774 <s_read_byte+0xc0e>
    4772:	d7 c0       	rjmp	.+430    	; 0x4922 <s_read_byte+0xdbc>
	{
		_delay_ms(__us / 1000.0);
    4774:	ce 01       	movw	r24, r28
    4776:	85 58       	subi	r24, 0x85	; 133
    4778:	9f 4f       	sbci	r25, 0xFF	; 255
    477a:	20 e0       	ldi	r18, 0x00	; 0
    477c:	30 e0       	ldi	r19, 0x00	; 0
    477e:	4a e7       	ldi	r20, 0x7A	; 122
    4780:	54 e4       	ldi	r21, 0x44	; 68
    4782:	fc 01       	movw	r30, r24
    4784:	60 81       	ld	r22, Z
    4786:	71 81       	ldd	r23, Z+1	; 0x01
    4788:	82 81       	ldd	r24, Z+2	; 0x02
    478a:	93 81       	ldd	r25, Z+3	; 0x03
    478c:	0e 94 12 37 	call	0x6e24	; 0x6e24 <__divsf3>
    4790:	dc 01       	movw	r26, r24
    4792:	cb 01       	movw	r24, r22
    4794:	9e 01       	movw	r18, r28
    4796:	2c 57       	subi	r18, 0x7C	; 124
    4798:	3f 4f       	sbci	r19, 0xFF	; 255
    479a:	f9 01       	movw	r30, r18
    479c:	80 83       	st	Z, r24
    479e:	91 83       	std	Z+1, r25	; 0x01
    47a0:	a2 83       	std	Z+2, r26	; 0x02
    47a2:	b3 83       	std	Z+3, r27	; 0x03
	#endif

	__builtin_avr_delay_cycles(__ticks_dc);

#else
	__tmp = ((F_CPU) / 4e3) * __ms;
    47a4:	8e 01       	movw	r16, r28
    47a6:	08 57       	subi	r16, 0x78	; 120
    47a8:	1f 4f       	sbci	r17, 0xFF	; 255
    47aa:	ce 01       	movw	r24, r28
    47ac:	8c 57       	subi	r24, 0x7C	; 124
    47ae:	9f 4f       	sbci	r25, 0xFF	; 255
    47b0:	20 e0       	ldi	r18, 0x00	; 0
    47b2:	30 e0       	ldi	r19, 0x00	; 0
    47b4:	4a e7       	ldi	r20, 0x7A	; 122
    47b6:	55 e4       	ldi	r21, 0x45	; 69
    47b8:	fc 01       	movw	r30, r24
    47ba:	60 81       	ld	r22, Z
    47bc:	71 81       	ldd	r23, Z+1	; 0x01
    47be:	82 81       	ldd	r24, Z+2	; 0x02
    47c0:	93 81       	ldd	r25, Z+3	; 0x03
    47c2:	0e 94 2d 36 	call	0x6c5a	; 0x6c5a <__mulsf3>
    47c6:	dc 01       	movw	r26, r24
    47c8:	cb 01       	movw	r24, r22
    47ca:	f8 01       	movw	r30, r16
    47cc:	80 83       	st	Z, r24
    47ce:	91 83       	std	Z+1, r25	; 0x01
    47d0:	a2 83       	std	Z+2, r26	; 0x02
    47d2:	b3 83       	std	Z+3, r27	; 0x03
	if (__tmp < 1.0)
    47d4:	ce 01       	movw	r24, r28
    47d6:	88 57       	subi	r24, 0x78	; 120
    47d8:	9f 4f       	sbci	r25, 0xFF	; 255
    47da:	20 e0       	ldi	r18, 0x00	; 0
    47dc:	30 e0       	ldi	r19, 0x00	; 0
    47de:	40 e8       	ldi	r20, 0x80	; 128
    47e0:	5f e3       	ldi	r21, 0x3F	; 63
    47e2:	fc 01       	movw	r30, r24
    47e4:	60 81       	ld	r22, Z
    47e6:	71 81       	ldd	r23, Z+1	; 0x01
    47e8:	82 81       	ldd	r24, Z+2	; 0x02
    47ea:	93 81       	ldd	r25, Z+3	; 0x03
    47ec:	0e 94 13 38 	call	0x7026	; 0x7026 <__ltsf2>
    47f0:	88 23       	and	r24, r24
    47f2:	4c f4       	brge	.+18     	; 0x4806 <s_read_byte+0xca0>
		__ticks = 1;
    47f4:	ce 01       	movw	r24, r28
    47f6:	84 57       	subi	r24, 0x74	; 116
    47f8:	9f 4f       	sbci	r25, 0xFF	; 255
    47fa:	21 e0       	ldi	r18, 0x01	; 1
    47fc:	30 e0       	ldi	r19, 0x00	; 0
    47fe:	fc 01       	movw	r30, r24
    4800:	31 83       	std	Z+1, r19	; 0x01
    4802:	20 83       	st	Z, r18
    4804:	70 c0       	rjmp	.+224    	; 0x48e6 <s_read_byte+0xd80>
	else if (__tmp > 65535)
    4806:	ce 01       	movw	r24, r28
    4808:	88 57       	subi	r24, 0x78	; 120
    480a:	9f 4f       	sbci	r25, 0xFF	; 255
    480c:	20 e0       	ldi	r18, 0x00	; 0
    480e:	3f ef       	ldi	r19, 0xFF	; 255
    4810:	4f e7       	ldi	r20, 0x7F	; 127
    4812:	57 e4       	ldi	r21, 0x47	; 71
    4814:	fc 01       	movw	r30, r24
    4816:	60 81       	ld	r22, Z
    4818:	71 81       	ldd	r23, Z+1	; 0x01
    481a:	82 81       	ldd	r24, Z+2	; 0x02
    481c:	93 81       	ldd	r25, Z+3	; 0x03
    481e:	0e 94 b5 37 	call	0x6f6a	; 0x6f6a <__gtsf2>
    4822:	18 16       	cp	r1, r24
    4824:	0c f0       	brlt	.+2      	; 0x4828 <s_read_byte+0xcc2>
    4826:	4d c0       	rjmp	.+154    	; 0x48c2 <s_read_byte+0xd5c>
	{
		//	__ticks = requested delay in 1/10 ms
		__ticks = (uint16_t) (__ms * 10.0);
    4828:	ce 01       	movw	r24, r28
    482a:	8c 57       	subi	r24, 0x7C	; 124
    482c:	9f 4f       	sbci	r25, 0xFF	; 255
    482e:	20 e0       	ldi	r18, 0x00	; 0
    4830:	30 e0       	ldi	r19, 0x00	; 0
    4832:	40 e2       	ldi	r20, 0x20	; 32
    4834:	51 e4       	ldi	r21, 0x41	; 65
    4836:	fc 01       	movw	r30, r24
    4838:	60 81       	ld	r22, Z
    483a:	71 81       	ldd	r23, Z+1	; 0x01
    483c:	82 81       	ldd	r24, Z+2	; 0x02
    483e:	93 81       	ldd	r25, Z+3	; 0x03
    4840:	0e 94 2d 36 	call	0x6c5a	; 0x6c5a <__mulsf3>
    4844:	dc 01       	movw	r26, r24
    4846:	cb 01       	movw	r24, r22
    4848:	8e 01       	movw	r16, r28
    484a:	04 57       	subi	r16, 0x74	; 116
    484c:	1f 4f       	sbci	r17, 0xFF	; 255
    484e:	bc 01       	movw	r22, r24
    4850:	cd 01       	movw	r24, r26
    4852:	0e 94 48 34 	call	0x6890	; 0x6890 <__fixunssfsi>
    4856:	dc 01       	movw	r26, r24
    4858:	cb 01       	movw	r24, r22
    485a:	f8 01       	movw	r30, r16
    485c:	91 83       	std	Z+1, r25	; 0x01
    485e:	80 83       	st	Z, r24
    4860:	27 c0       	rjmp	.+78     	; 0x48b0 <s_read_byte+0xd4a>
    4862:	ce 01       	movw	r24, r28
    4864:	82 57       	subi	r24, 0x72	; 114
    4866:	9f 4f       	sbci	r25, 0xFF	; 255
    4868:	20 e9       	ldi	r18, 0x90	; 144
    486a:	31 e0       	ldi	r19, 0x01	; 1
    486c:	fc 01       	movw	r30, r24
    486e:	31 83       	std	Z+1, r19	; 0x01
    4870:	20 83       	st	Z, r18
    milliseconds can be achieved.
 */
void
_delay_loop_2(uint16_t __count)
{
	__asm__ volatile (
    4872:	ce 01       	movw	r24, r28
    4874:	82 57       	subi	r24, 0x72	; 114
    4876:	9f 4f       	sbci	r25, 0xFF	; 255
    4878:	fc 01       	movw	r30, r24
    487a:	80 81       	ld	r24, Z
    487c:	91 81       	ldd	r25, Z+1	; 0x01
    487e:	8c 01       	movw	r16, r24
    4880:	c8 01       	movw	r24, r16
    4882:	01 97       	sbiw	r24, 0x01	; 1
    4884:	f1 f7       	brne	.-4      	; 0x4882 <s_read_byte+0xd1c>
    4886:	8c 01       	movw	r16, r24
    4888:	ce 01       	movw	r24, r28
    488a:	82 57       	subi	r24, 0x72	; 114
    488c:	9f 4f       	sbci	r25, 0xFF	; 255
    488e:	fc 01       	movw	r30, r24
    4890:	11 83       	std	Z+1, r17	; 0x01
    4892:	00 83       	st	Z, r16
		while(__ticks)
		{
			// wait 1/10 ms
			_delay_loop_2(((F_CPU) / 4e3) / 10);
			__ticks --;
    4894:	ce 01       	movw	r24, r28
    4896:	84 57       	subi	r24, 0x74	; 116
    4898:	9f 4f       	sbci	r25, 0xFF	; 255
    489a:	9e 01       	movw	r18, r28
    489c:	24 57       	subi	r18, 0x74	; 116
    489e:	3f 4f       	sbci	r19, 0xFF	; 255
    48a0:	f9 01       	movw	r30, r18
    48a2:	20 81       	ld	r18, Z
    48a4:	31 81       	ldd	r19, Z+1	; 0x01
    48a6:	21 50       	subi	r18, 0x01	; 1
    48a8:	31 09       	sbc	r19, r1
    48aa:	fc 01       	movw	r30, r24
    48ac:	31 83       	std	Z+1, r19	; 0x01
    48ae:	20 83       	st	Z, r18
		__ticks = 1;
	else if (__tmp > 65535)
	{
		//	__ticks = requested delay in 1/10 ms
		__ticks = (uint16_t) (__ms * 10.0);
		while(__ticks)
    48b0:	ce 01       	movw	r24, r28
    48b2:	84 57       	subi	r24, 0x74	; 116
    48b4:	9f 4f       	sbci	r25, 0xFF	; 255
    48b6:	fc 01       	movw	r30, r24
    48b8:	80 81       	ld	r24, Z
    48ba:	91 81       	ldd	r25, Z+1	; 0x01
    48bc:	00 97       	sbiw	r24, 0x00	; 0
    48be:	89 f6       	brne	.-94     	; 0x4862 <s_read_byte+0xcfc>
    48c0:	58 c0       	rjmp	.+176    	; 0x4972 <s_read_byte+0xe0c>
			__ticks --;
		}
		return;
	}
	else
		__ticks = (uint16_t)__tmp;
    48c2:	8e 01       	movw	r16, r28
    48c4:	04 57       	subi	r16, 0x74	; 116
    48c6:	1f 4f       	sbci	r17, 0xFF	; 255
    48c8:	ce 01       	movw	r24, r28
    48ca:	88 57       	subi	r24, 0x78	; 120
    48cc:	9f 4f       	sbci	r25, 0xFF	; 255
    48ce:	fc 01       	movw	r30, r24
    48d0:	60 81       	ld	r22, Z
    48d2:	71 81       	ldd	r23, Z+1	; 0x01
    48d4:	82 81       	ldd	r24, Z+2	; 0x02
    48d6:	93 81       	ldd	r25, Z+3	; 0x03
    48d8:	0e 94 48 34 	call	0x6890	; 0x6890 <__fixunssfsi>
    48dc:	dc 01       	movw	r26, r24
    48de:	cb 01       	movw	r24, r22
    48e0:	f8 01       	movw	r30, r16
    48e2:	91 83       	std	Z+1, r25	; 0x01
    48e4:	80 83       	st	Z, r24
    48e6:	ce 01       	movw	r24, r28
    48e8:	80 57       	subi	r24, 0x70	; 112
    48ea:	9f 4f       	sbci	r25, 0xFF	; 255
    48ec:	9e 01       	movw	r18, r28
    48ee:	24 57       	subi	r18, 0x74	; 116
    48f0:	3f 4f       	sbci	r19, 0xFF	; 255
    48f2:	f9 01       	movw	r30, r18
    48f4:	20 81       	ld	r18, Z
    48f6:	31 81       	ldd	r19, Z+1	; 0x01
    48f8:	fc 01       	movw	r30, r24
    48fa:	31 83       	std	Z+1, r19	; 0x01
    48fc:	20 83       	st	Z, r18
    48fe:	ce 01       	movw	r24, r28
    4900:	80 57       	subi	r24, 0x70	; 112
    4902:	9f 4f       	sbci	r25, 0xFF	; 255
    4904:	fc 01       	movw	r30, r24
    4906:	80 81       	ld	r24, Z
    4908:	91 81       	ldd	r25, Z+1	; 0x01
    490a:	8c 01       	movw	r16, r24
    490c:	c8 01       	movw	r24, r16
    490e:	01 97       	sbiw	r24, 0x01	; 1
    4910:	f1 f7       	brne	.-4      	; 0x490e <s_read_byte+0xda8>
    4912:	8c 01       	movw	r16, r24
    4914:	ce 01       	movw	r24, r28
    4916:	80 57       	subi	r24, 0x70	; 112
    4918:	9f 4f       	sbci	r25, 0xFF	; 255
    491a:	fc 01       	movw	r30, r24
    491c:	11 83       	std	Z+1, r17	; 0x01
    491e:	00 83       	st	Z, r16
    4920:	28 c0       	rjmp	.+80     	; 0x4972 <s_read_byte+0xe0c>
	{
		_delay_ms(__us / 1000.0);
		return;
	}
	else
		__ticks = (uint8_t)__tmp;
    4922:	8e 01       	movw	r16, r28
    4924:	0d 57       	subi	r16, 0x7D	; 125
    4926:	1f 4f       	sbci	r17, 0xFF	; 255
    4928:	ce 01       	movw	r24, r28
    492a:	81 58       	subi	r24, 0x81	; 129
    492c:	9f 4f       	sbci	r25, 0xFF	; 255
    492e:	fc 01       	movw	r30, r24
    4930:	60 81       	ld	r22, Z
    4932:	71 81       	ldd	r23, Z+1	; 0x01
    4934:	82 81       	ldd	r24, Z+2	; 0x02
    4936:	93 81       	ldd	r25, Z+3	; 0x03
    4938:	0e 94 48 34 	call	0x6890	; 0x6890 <__fixunssfsi>
    493c:	dc 01       	movw	r26, r24
    493e:	cb 01       	movw	r24, r22
    4940:	f8 01       	movw	r30, r16
    4942:	80 83       	st	Z, r24
    4944:	ce 01       	movw	r24, r28
    4946:	8e 56       	subi	r24, 0x6E	; 110
    4948:	9f 4f       	sbci	r25, 0xFF	; 255
    494a:	9e 01       	movw	r18, r28
    494c:	2d 57       	subi	r18, 0x7D	; 125
    494e:	3f 4f       	sbci	r19, 0xFF	; 255
    4950:	f9 01       	movw	r30, r18
    4952:	20 81       	ld	r18, Z
    4954:	fc 01       	movw	r30, r24
    4956:	20 83       	st	Z, r18
    can be achieved.
*/
void
_delay_loop_1(uint8_t __count)
{
	__asm__ volatile (
    4958:	ce 01       	movw	r24, r28
    495a:	8e 56       	subi	r24, 0x6E	; 110
    495c:	9f 4f       	sbci	r25, 0xFF	; 255
    495e:	fc 01       	movw	r30, r24
    4960:	80 81       	ld	r24, Z
    4962:	18 2f       	mov	r17, r24
    4964:	1a 95       	dec	r17
    4966:	f1 f7       	brne	.-4      	; 0x4964 <s_read_byte+0xdfe>
    4968:	ce 01       	movw	r24, r28
    496a:	8e 56       	subi	r24, 0x6E	; 110
    496c:	9f 4f       	sbci	r25, 0xFF	; 255
    496e:	fc 01       	movw	r30, r24
    4970:	10 83       	st	Z, r17
	_delay_us(3); 

	SHT_SCK_1; 
    4972:	82 e6       	ldi	r24, 0x62	; 98
    4974:	90 e0       	ldi	r25, 0x00	; 0
    4976:	22 e6       	ldi	r18, 0x62	; 98
    4978:	30 e0       	ldi	r19, 0x00	; 0
    497a:	f9 01       	movw	r30, r18
    497c:	20 81       	ld	r18, Z
    497e:	22 60       	ori	r18, 0x02	; 2
    4980:	fc 01       	movw	r30, r24
    4982:	20 83       	st	Z, r18
    4984:	9e 01       	movw	r18, r28
    4986:	2d 56       	subi	r18, 0x6D	; 109
    4988:	3f 4f       	sbci	r19, 0xFF	; 255
    498a:	80 e0       	ldi	r24, 0x00	; 0
    498c:	90 e0       	ldi	r25, 0x00	; 0
    498e:	a0 ec       	ldi	r26, 0xC0	; 192
    4990:	b0 e4       	ldi	r27, 0x40	; 64
    4992:	f9 01       	movw	r30, r18
    4994:	80 83       	st	Z, r24
    4996:	91 83       	std	Z+1, r25	; 0x01
    4998:	a2 83       	std	Z+2, r26	; 0x02
    499a:	b3 83       	std	Z+3, r27	; 0x03
	#endif

	__builtin_avr_delay_cycles(__ticks_dc);

#else
	__tmp = ((F_CPU) / 3e6) * __us;
    499c:	8e 01       	movw	r16, r28
    499e:	09 56       	subi	r16, 0x69	; 105
    49a0:	1f 4f       	sbci	r17, 0xFF	; 255
    49a2:	ce 01       	movw	r24, r28
    49a4:	8d 56       	subi	r24, 0x6D	; 109
    49a6:	9f 4f       	sbci	r25, 0xFF	; 255
    49a8:	2b ea       	ldi	r18, 0xAB	; 171
    49aa:	3a ea       	ldi	r19, 0xAA	; 170
    49ac:	4a ea       	ldi	r20, 0xAA	; 170
    49ae:	50 e4       	ldi	r21, 0x40	; 64
    49b0:	fc 01       	movw	r30, r24
    49b2:	60 81       	ld	r22, Z
    49b4:	71 81       	ldd	r23, Z+1	; 0x01
    49b6:	82 81       	ldd	r24, Z+2	; 0x02
    49b8:	93 81       	ldd	r25, Z+3	; 0x03
    49ba:	0e 94 2d 36 	call	0x6c5a	; 0x6c5a <__mulsf3>
    49be:	dc 01       	movw	r26, r24
    49c0:	cb 01       	movw	r24, r22
    49c2:	f8 01       	movw	r30, r16
    49c4:	80 83       	st	Z, r24
    49c6:	91 83       	std	Z+1, r25	; 0x01
    49c8:	a2 83       	std	Z+2, r26	; 0x02
    49ca:	b3 83       	std	Z+3, r27	; 0x03
	if (__tmp < 1.0)
    49cc:	ce 01       	movw	r24, r28
    49ce:	89 56       	subi	r24, 0x69	; 105
    49d0:	9f 4f       	sbci	r25, 0xFF	; 255
    49d2:	20 e0       	ldi	r18, 0x00	; 0
    49d4:	30 e0       	ldi	r19, 0x00	; 0
    49d6:	40 e8       	ldi	r20, 0x80	; 128
    49d8:	5f e3       	ldi	r21, 0x3F	; 63
    49da:	fc 01       	movw	r30, r24
    49dc:	60 81       	ld	r22, Z
    49de:	71 81       	ldd	r23, Z+1	; 0x01
    49e0:	82 81       	ldd	r24, Z+2	; 0x02
    49e2:	93 81       	ldd	r25, Z+3	; 0x03
    49e4:	0e 94 13 38 	call	0x7026	; 0x7026 <__ltsf2>
    49e8:	88 23       	and	r24, r24
    49ea:	3c f4       	brge	.+14     	; 0x49fa <s_read_byte+0xe94>
		__ticks = 1;
    49ec:	ce 01       	movw	r24, r28
    49ee:	85 56       	subi	r24, 0x65	; 101
    49f0:	9f 4f       	sbci	r25, 0xFF	; 255
    49f2:	21 e0       	ldi	r18, 0x01	; 1
    49f4:	fc 01       	movw	r30, r24
    49f6:	20 83       	st	Z, r18
    49f8:	f9 c0       	rjmp	.+498    	; 0x4bec <s_read_byte+0x1086>
	else if (__tmp > 255)
    49fa:	ce 01       	movw	r24, r28
    49fc:	89 56       	subi	r24, 0x69	; 105
    49fe:	9f 4f       	sbci	r25, 0xFF	; 255
    4a00:	20 e0       	ldi	r18, 0x00	; 0
    4a02:	30 e0       	ldi	r19, 0x00	; 0
    4a04:	4f e7       	ldi	r20, 0x7F	; 127
    4a06:	53 e4       	ldi	r21, 0x43	; 67
    4a08:	fc 01       	movw	r30, r24
    4a0a:	60 81       	ld	r22, Z
    4a0c:	71 81       	ldd	r23, Z+1	; 0x01
    4a0e:	82 81       	ldd	r24, Z+2	; 0x02
    4a10:	93 81       	ldd	r25, Z+3	; 0x03
    4a12:	0e 94 b5 37 	call	0x6f6a	; 0x6f6a <__gtsf2>
    4a16:	18 16       	cp	r1, r24
    4a18:	0c f0       	brlt	.+2      	; 0x4a1c <s_read_byte+0xeb6>
    4a1a:	d7 c0       	rjmp	.+430    	; 0x4bca <s_read_byte+0x1064>
	{
		_delay_ms(__us / 1000.0);
    4a1c:	ce 01       	movw	r24, r28
    4a1e:	8d 56       	subi	r24, 0x6D	; 109
    4a20:	9f 4f       	sbci	r25, 0xFF	; 255
    4a22:	20 e0       	ldi	r18, 0x00	; 0
    4a24:	30 e0       	ldi	r19, 0x00	; 0
    4a26:	4a e7       	ldi	r20, 0x7A	; 122
    4a28:	54 e4       	ldi	r21, 0x44	; 68
    4a2a:	fc 01       	movw	r30, r24
    4a2c:	60 81       	ld	r22, Z
    4a2e:	71 81       	ldd	r23, Z+1	; 0x01
    4a30:	82 81       	ldd	r24, Z+2	; 0x02
    4a32:	93 81       	ldd	r25, Z+3	; 0x03
    4a34:	0e 94 12 37 	call	0x6e24	; 0x6e24 <__divsf3>
    4a38:	dc 01       	movw	r26, r24
    4a3a:	cb 01       	movw	r24, r22
    4a3c:	9e 01       	movw	r18, r28
    4a3e:	24 56       	subi	r18, 0x64	; 100
    4a40:	3f 4f       	sbci	r19, 0xFF	; 255
    4a42:	f9 01       	movw	r30, r18
    4a44:	80 83       	st	Z, r24
    4a46:	91 83       	std	Z+1, r25	; 0x01
    4a48:	a2 83       	std	Z+2, r26	; 0x02
    4a4a:	b3 83       	std	Z+3, r27	; 0x03
	#endif

	__builtin_avr_delay_cycles(__ticks_dc);

#else
	__tmp = ((F_CPU) / 4e3) * __ms;
    4a4c:	8e 01       	movw	r16, r28
    4a4e:	00 56       	subi	r16, 0x60	; 96
    4a50:	1f 4f       	sbci	r17, 0xFF	; 255
    4a52:	ce 01       	movw	r24, r28
    4a54:	84 56       	subi	r24, 0x64	; 100
    4a56:	9f 4f       	sbci	r25, 0xFF	; 255
    4a58:	20 e0       	ldi	r18, 0x00	; 0
    4a5a:	30 e0       	ldi	r19, 0x00	; 0
    4a5c:	4a e7       	ldi	r20, 0x7A	; 122
    4a5e:	55 e4       	ldi	r21, 0x45	; 69
    4a60:	fc 01       	movw	r30, r24
    4a62:	60 81       	ld	r22, Z
    4a64:	71 81       	ldd	r23, Z+1	; 0x01
    4a66:	82 81       	ldd	r24, Z+2	; 0x02
    4a68:	93 81       	ldd	r25, Z+3	; 0x03
    4a6a:	0e 94 2d 36 	call	0x6c5a	; 0x6c5a <__mulsf3>
    4a6e:	dc 01       	movw	r26, r24
    4a70:	cb 01       	movw	r24, r22
    4a72:	f8 01       	movw	r30, r16
    4a74:	80 83       	st	Z, r24
    4a76:	91 83       	std	Z+1, r25	; 0x01
    4a78:	a2 83       	std	Z+2, r26	; 0x02
    4a7a:	b3 83       	std	Z+3, r27	; 0x03
	if (__tmp < 1.0)
    4a7c:	ce 01       	movw	r24, r28
    4a7e:	80 56       	subi	r24, 0x60	; 96
    4a80:	9f 4f       	sbci	r25, 0xFF	; 255
    4a82:	20 e0       	ldi	r18, 0x00	; 0
    4a84:	30 e0       	ldi	r19, 0x00	; 0
    4a86:	40 e8       	ldi	r20, 0x80	; 128
    4a88:	5f e3       	ldi	r21, 0x3F	; 63
    4a8a:	fc 01       	movw	r30, r24
    4a8c:	60 81       	ld	r22, Z
    4a8e:	71 81       	ldd	r23, Z+1	; 0x01
    4a90:	82 81       	ldd	r24, Z+2	; 0x02
    4a92:	93 81       	ldd	r25, Z+3	; 0x03
    4a94:	0e 94 13 38 	call	0x7026	; 0x7026 <__ltsf2>
    4a98:	88 23       	and	r24, r24
    4a9a:	4c f4       	brge	.+18     	; 0x4aae <s_read_byte+0xf48>
		__ticks = 1;
    4a9c:	ce 01       	movw	r24, r28
    4a9e:	8c 55       	subi	r24, 0x5C	; 92
    4aa0:	9f 4f       	sbci	r25, 0xFF	; 255
    4aa2:	21 e0       	ldi	r18, 0x01	; 1
    4aa4:	30 e0       	ldi	r19, 0x00	; 0
    4aa6:	fc 01       	movw	r30, r24
    4aa8:	31 83       	std	Z+1, r19	; 0x01
    4aaa:	20 83       	st	Z, r18
    4aac:	70 c0       	rjmp	.+224    	; 0x4b8e <s_read_byte+0x1028>
	else if (__tmp > 65535)
    4aae:	ce 01       	movw	r24, r28
    4ab0:	80 56       	subi	r24, 0x60	; 96
    4ab2:	9f 4f       	sbci	r25, 0xFF	; 255
    4ab4:	20 e0       	ldi	r18, 0x00	; 0
    4ab6:	3f ef       	ldi	r19, 0xFF	; 255
    4ab8:	4f e7       	ldi	r20, 0x7F	; 127
    4aba:	57 e4       	ldi	r21, 0x47	; 71
    4abc:	fc 01       	movw	r30, r24
    4abe:	60 81       	ld	r22, Z
    4ac0:	71 81       	ldd	r23, Z+1	; 0x01
    4ac2:	82 81       	ldd	r24, Z+2	; 0x02
    4ac4:	93 81       	ldd	r25, Z+3	; 0x03
    4ac6:	0e 94 b5 37 	call	0x6f6a	; 0x6f6a <__gtsf2>
    4aca:	18 16       	cp	r1, r24
    4acc:	0c f0       	brlt	.+2      	; 0x4ad0 <s_read_byte+0xf6a>
    4ace:	4d c0       	rjmp	.+154    	; 0x4b6a <s_read_byte+0x1004>
	{
		//	__ticks = requested delay in 1/10 ms
		__ticks = (uint16_t) (__ms * 10.0);
    4ad0:	ce 01       	movw	r24, r28
    4ad2:	84 56       	subi	r24, 0x64	; 100
    4ad4:	9f 4f       	sbci	r25, 0xFF	; 255
    4ad6:	20 e0       	ldi	r18, 0x00	; 0
    4ad8:	30 e0       	ldi	r19, 0x00	; 0
    4ada:	40 e2       	ldi	r20, 0x20	; 32
    4adc:	51 e4       	ldi	r21, 0x41	; 65
    4ade:	fc 01       	movw	r30, r24
    4ae0:	60 81       	ld	r22, Z
    4ae2:	71 81       	ldd	r23, Z+1	; 0x01
    4ae4:	82 81       	ldd	r24, Z+2	; 0x02
    4ae6:	93 81       	ldd	r25, Z+3	; 0x03
    4ae8:	0e 94 2d 36 	call	0x6c5a	; 0x6c5a <__mulsf3>
    4aec:	dc 01       	movw	r26, r24
    4aee:	cb 01       	movw	r24, r22
    4af0:	8e 01       	movw	r16, r28
    4af2:	0c 55       	subi	r16, 0x5C	; 92
    4af4:	1f 4f       	sbci	r17, 0xFF	; 255
    4af6:	bc 01       	movw	r22, r24
    4af8:	cd 01       	movw	r24, r26
    4afa:	0e 94 48 34 	call	0x6890	; 0x6890 <__fixunssfsi>
    4afe:	dc 01       	movw	r26, r24
    4b00:	cb 01       	movw	r24, r22
    4b02:	f8 01       	movw	r30, r16
    4b04:	91 83       	std	Z+1, r25	; 0x01
    4b06:	80 83       	st	Z, r24
    4b08:	27 c0       	rjmp	.+78     	; 0x4b58 <s_read_byte+0xff2>
    4b0a:	ce 01       	movw	r24, r28
    4b0c:	8a 55       	subi	r24, 0x5A	; 90
    4b0e:	9f 4f       	sbci	r25, 0xFF	; 255
    4b10:	20 e9       	ldi	r18, 0x90	; 144
    4b12:	31 e0       	ldi	r19, 0x01	; 1
    4b14:	fc 01       	movw	r30, r24
    4b16:	31 83       	std	Z+1, r19	; 0x01
    4b18:	20 83       	st	Z, r18
    milliseconds can be achieved.
 */
void
_delay_loop_2(uint16_t __count)
{
	__asm__ volatile (
    4b1a:	ce 01       	movw	r24, r28
    4b1c:	8a 55       	subi	r24, 0x5A	; 90
    4b1e:	9f 4f       	sbci	r25, 0xFF	; 255
    4b20:	fc 01       	movw	r30, r24
    4b22:	80 81       	ld	r24, Z
    4b24:	91 81       	ldd	r25, Z+1	; 0x01
    4b26:	8c 01       	movw	r16, r24
    4b28:	c8 01       	movw	r24, r16
    4b2a:	01 97       	sbiw	r24, 0x01	; 1
    4b2c:	f1 f7       	brne	.-4      	; 0x4b2a <s_read_byte+0xfc4>
    4b2e:	8c 01       	movw	r16, r24
    4b30:	ce 01       	movw	r24, r28
    4b32:	8a 55       	subi	r24, 0x5A	; 90
    4b34:	9f 4f       	sbci	r25, 0xFF	; 255
    4b36:	fc 01       	movw	r30, r24
    4b38:	11 83       	std	Z+1, r17	; 0x01
    4b3a:	00 83       	st	Z, r16
		while(__ticks)
		{
			// wait 1/10 ms
			_delay_loop_2(((F_CPU) / 4e3) / 10);
			__ticks --;
    4b3c:	ce 01       	movw	r24, r28
    4b3e:	8c 55       	subi	r24, 0x5C	; 92
    4b40:	9f 4f       	sbci	r25, 0xFF	; 255
    4b42:	9e 01       	movw	r18, r28
    4b44:	2c 55       	subi	r18, 0x5C	; 92
    4b46:	3f 4f       	sbci	r19, 0xFF	; 255
    4b48:	f9 01       	movw	r30, r18
    4b4a:	20 81       	ld	r18, Z
    4b4c:	31 81       	ldd	r19, Z+1	; 0x01
    4b4e:	21 50       	subi	r18, 0x01	; 1
    4b50:	31 09       	sbc	r19, r1
    4b52:	fc 01       	movw	r30, r24
    4b54:	31 83       	std	Z+1, r19	; 0x01
    4b56:	20 83       	st	Z, r18
		__ticks = 1;
	else if (__tmp > 65535)
	{
		//	__ticks = requested delay in 1/10 ms
		__ticks = (uint16_t) (__ms * 10.0);
		while(__ticks)
    4b58:	ce 01       	movw	r24, r28
    4b5a:	8c 55       	subi	r24, 0x5C	; 92
    4b5c:	9f 4f       	sbci	r25, 0xFF	; 255
    4b5e:	fc 01       	movw	r30, r24
    4b60:	80 81       	ld	r24, Z
    4b62:	91 81       	ldd	r25, Z+1	; 0x01
    4b64:	00 97       	sbiw	r24, 0x00	; 0
    4b66:	89 f6       	brne	.-94     	; 0x4b0a <s_read_byte+0xfa4>
    4b68:	58 c0       	rjmp	.+176    	; 0x4c1a <s_read_byte+0x10b4>
			__ticks --;
		}
		return;
	}
	else
		__ticks = (uint16_t)__tmp;
    4b6a:	8e 01       	movw	r16, r28
    4b6c:	0c 55       	subi	r16, 0x5C	; 92
    4b6e:	1f 4f       	sbci	r17, 0xFF	; 255
    4b70:	ce 01       	movw	r24, r28
    4b72:	80 56       	subi	r24, 0x60	; 96
    4b74:	9f 4f       	sbci	r25, 0xFF	; 255
    4b76:	fc 01       	movw	r30, r24
    4b78:	60 81       	ld	r22, Z
    4b7a:	71 81       	ldd	r23, Z+1	; 0x01
    4b7c:	82 81       	ldd	r24, Z+2	; 0x02
    4b7e:	93 81       	ldd	r25, Z+3	; 0x03
    4b80:	0e 94 48 34 	call	0x6890	; 0x6890 <__fixunssfsi>
    4b84:	dc 01       	movw	r26, r24
    4b86:	cb 01       	movw	r24, r22
    4b88:	f8 01       	movw	r30, r16
    4b8a:	91 83       	std	Z+1, r25	; 0x01
    4b8c:	80 83       	st	Z, r24
    4b8e:	ce 01       	movw	r24, r28
    4b90:	88 55       	subi	r24, 0x58	; 88
    4b92:	9f 4f       	sbci	r25, 0xFF	; 255
    4b94:	9e 01       	movw	r18, r28
    4b96:	2c 55       	subi	r18, 0x5C	; 92
    4b98:	3f 4f       	sbci	r19, 0xFF	; 255
    4b9a:	f9 01       	movw	r30, r18
    4b9c:	20 81       	ld	r18, Z
    4b9e:	31 81       	ldd	r19, Z+1	; 0x01
    4ba0:	fc 01       	movw	r30, r24
    4ba2:	31 83       	std	Z+1, r19	; 0x01
    4ba4:	20 83       	st	Z, r18
    4ba6:	ce 01       	movw	r24, r28
    4ba8:	88 55       	subi	r24, 0x58	; 88
    4baa:	9f 4f       	sbci	r25, 0xFF	; 255
    4bac:	fc 01       	movw	r30, r24
    4bae:	80 81       	ld	r24, Z
    4bb0:	91 81       	ldd	r25, Z+1	; 0x01
    4bb2:	8c 01       	movw	r16, r24
    4bb4:	c8 01       	movw	r24, r16
    4bb6:	01 97       	sbiw	r24, 0x01	; 1
    4bb8:	f1 f7       	brne	.-4      	; 0x4bb6 <s_read_byte+0x1050>
    4bba:	8c 01       	movw	r16, r24
    4bbc:	ce 01       	movw	r24, r28
    4bbe:	88 55       	subi	r24, 0x58	; 88
    4bc0:	9f 4f       	sbci	r25, 0xFF	; 255
    4bc2:	fc 01       	movw	r30, r24
    4bc4:	11 83       	std	Z+1, r17	; 0x01
    4bc6:	00 83       	st	Z, r16
    4bc8:	28 c0       	rjmp	.+80     	; 0x4c1a <s_read_byte+0x10b4>
	{
		_delay_ms(__us / 1000.0);
		return;
	}
	else
		__ticks = (uint8_t)__tmp;
    4bca:	8e 01       	movw	r16, r28
    4bcc:	05 56       	subi	r16, 0x65	; 101
    4bce:	1f 4f       	sbci	r17, 0xFF	; 255
    4bd0:	ce 01       	movw	r24, r28
    4bd2:	89 56       	subi	r24, 0x69	; 105
    4bd4:	9f 4f       	sbci	r25, 0xFF	; 255
    4bd6:	fc 01       	movw	r30, r24
    4bd8:	60 81       	ld	r22, Z
    4bda:	71 81       	ldd	r23, Z+1	; 0x01
    4bdc:	82 81       	ldd	r24, Z+2	; 0x02
    4bde:	93 81       	ldd	r25, Z+3	; 0x03
    4be0:	0e 94 48 34 	call	0x6890	; 0x6890 <__fixunssfsi>
    4be4:	dc 01       	movw	r26, r24
    4be6:	cb 01       	movw	r24, r22
    4be8:	f8 01       	movw	r30, r16
    4bea:	80 83       	st	Z, r24
    4bec:	ce 01       	movw	r24, r28
    4bee:	86 55       	subi	r24, 0x56	; 86
    4bf0:	9f 4f       	sbci	r25, 0xFF	; 255
    4bf2:	9e 01       	movw	r18, r28
    4bf4:	25 56       	subi	r18, 0x65	; 101
    4bf6:	3f 4f       	sbci	r19, 0xFF	; 255
    4bf8:	f9 01       	movw	r30, r18
    4bfa:	20 81       	ld	r18, Z
    4bfc:	fc 01       	movw	r30, r24
    4bfe:	20 83       	st	Z, r18
    can be achieved.
*/
void
_delay_loop_1(uint8_t __count)
{
	__asm__ volatile (
    4c00:	ce 01       	movw	r24, r28
    4c02:	86 55       	subi	r24, 0x56	; 86
    4c04:	9f 4f       	sbci	r25, 0xFF	; 255
    4c06:	fc 01       	movw	r30, r24
    4c08:	80 81       	ld	r24, Z
    4c0a:	18 2f       	mov	r17, r24
    4c0c:	1a 95       	dec	r17
    4c0e:	f1 f7       	brne	.-4      	; 0x4c0c <s_read_byte+0x10a6>
    4c10:	ce 01       	movw	r24, r28
    4c12:	86 55       	subi	r24, 0x56	; 86
    4c14:	9f 4f       	sbci	r25, 0xFF	; 255
    4c16:	fc 01       	movw	r30, r24
    4c18:	10 83       	st	Z, r17
	_delay_us(6); 

	SHT_SCK_0;
    4c1a:	82 e6       	ldi	r24, 0x62	; 98
    4c1c:	90 e0       	ldi	r25, 0x00	; 0
    4c1e:	22 e6       	ldi	r18, 0x62	; 98
    4c20:	30 e0       	ldi	r19, 0x00	; 0
    4c22:	f9 01       	movw	r30, r18
    4c24:	20 81       	ld	r18, Z
    4c26:	2d 7f       	andi	r18, 0xFD	; 253
    4c28:	fc 01       	movw	r30, r24
    4c2a:	20 83       	st	Z, r18
    4c2c:	9e 01       	movw	r18, r28
    4c2e:	25 55       	subi	r18, 0x55	; 85
    4c30:	3f 4f       	sbci	r19, 0xFF	; 255
    4c32:	80 e0       	ldi	r24, 0x00	; 0
    4c34:	90 e0       	ldi	r25, 0x00	; 0
    4c36:	a0 e4       	ldi	r26, 0x40	; 64
    4c38:	b0 e4       	ldi	r27, 0x40	; 64
    4c3a:	f9 01       	movw	r30, r18
    4c3c:	80 83       	st	Z, r24
    4c3e:	91 83       	std	Z+1, r25	; 0x01
    4c40:	a2 83       	std	Z+2, r26	; 0x02
    4c42:	b3 83       	std	Z+3, r27	; 0x03
	#endif

	__builtin_avr_delay_cycles(__ticks_dc);

#else
	__tmp = ((F_CPU) / 3e6) * __us;
    4c44:	8e 01       	movw	r16, r28
    4c46:	01 55       	subi	r16, 0x51	; 81
    4c48:	1f 4f       	sbci	r17, 0xFF	; 255
    4c4a:	ce 01       	movw	r24, r28
    4c4c:	85 55       	subi	r24, 0x55	; 85
    4c4e:	9f 4f       	sbci	r25, 0xFF	; 255
    4c50:	2b ea       	ldi	r18, 0xAB	; 171
    4c52:	3a ea       	ldi	r19, 0xAA	; 170
    4c54:	4a ea       	ldi	r20, 0xAA	; 170
    4c56:	50 e4       	ldi	r21, 0x40	; 64
    4c58:	fc 01       	movw	r30, r24
    4c5a:	60 81       	ld	r22, Z
    4c5c:	71 81       	ldd	r23, Z+1	; 0x01
    4c5e:	82 81       	ldd	r24, Z+2	; 0x02
    4c60:	93 81       	ldd	r25, Z+3	; 0x03
    4c62:	0e 94 2d 36 	call	0x6c5a	; 0x6c5a <__mulsf3>
    4c66:	dc 01       	movw	r26, r24
    4c68:	cb 01       	movw	r24, r22
    4c6a:	f8 01       	movw	r30, r16
    4c6c:	80 83       	st	Z, r24
    4c6e:	91 83       	std	Z+1, r25	; 0x01
    4c70:	a2 83       	std	Z+2, r26	; 0x02
    4c72:	b3 83       	std	Z+3, r27	; 0x03
	if (__tmp < 1.0)
    4c74:	ce 01       	movw	r24, r28
    4c76:	81 55       	subi	r24, 0x51	; 81
    4c78:	9f 4f       	sbci	r25, 0xFF	; 255
    4c7a:	20 e0       	ldi	r18, 0x00	; 0
    4c7c:	30 e0       	ldi	r19, 0x00	; 0
    4c7e:	40 e8       	ldi	r20, 0x80	; 128
    4c80:	5f e3       	ldi	r21, 0x3F	; 63
    4c82:	fc 01       	movw	r30, r24
    4c84:	60 81       	ld	r22, Z
    4c86:	71 81       	ldd	r23, Z+1	; 0x01
    4c88:	82 81       	ldd	r24, Z+2	; 0x02
    4c8a:	93 81       	ldd	r25, Z+3	; 0x03
    4c8c:	0e 94 13 38 	call	0x7026	; 0x7026 <__ltsf2>
    4c90:	88 23       	and	r24, r24
    4c92:	3c f4       	brge	.+14     	; 0x4ca2 <s_read_byte+0x113c>
		__ticks = 1;
    4c94:	ce 01       	movw	r24, r28
    4c96:	8d 54       	subi	r24, 0x4D	; 77
    4c98:	9f 4f       	sbci	r25, 0xFF	; 255
    4c9a:	21 e0       	ldi	r18, 0x01	; 1
    4c9c:	fc 01       	movw	r30, r24
    4c9e:	20 83       	st	Z, r18
    4ca0:	f9 c0       	rjmp	.+498    	; 0x4e94 <s_read_byte+0x132e>
	else if (__tmp > 255)
    4ca2:	ce 01       	movw	r24, r28
    4ca4:	81 55       	subi	r24, 0x51	; 81
    4ca6:	9f 4f       	sbci	r25, 0xFF	; 255
    4ca8:	20 e0       	ldi	r18, 0x00	; 0
    4caa:	30 e0       	ldi	r19, 0x00	; 0
    4cac:	4f e7       	ldi	r20, 0x7F	; 127
    4cae:	53 e4       	ldi	r21, 0x43	; 67
    4cb0:	fc 01       	movw	r30, r24
    4cb2:	60 81       	ld	r22, Z
    4cb4:	71 81       	ldd	r23, Z+1	; 0x01
    4cb6:	82 81       	ldd	r24, Z+2	; 0x02
    4cb8:	93 81       	ldd	r25, Z+3	; 0x03
    4cba:	0e 94 b5 37 	call	0x6f6a	; 0x6f6a <__gtsf2>
    4cbe:	18 16       	cp	r1, r24
    4cc0:	0c f0       	brlt	.+2      	; 0x4cc4 <s_read_byte+0x115e>
    4cc2:	d7 c0       	rjmp	.+430    	; 0x4e72 <s_read_byte+0x130c>
	{
		_delay_ms(__us / 1000.0);
    4cc4:	ce 01       	movw	r24, r28
    4cc6:	85 55       	subi	r24, 0x55	; 85
    4cc8:	9f 4f       	sbci	r25, 0xFF	; 255
    4cca:	20 e0       	ldi	r18, 0x00	; 0
    4ccc:	30 e0       	ldi	r19, 0x00	; 0
    4cce:	4a e7       	ldi	r20, 0x7A	; 122
    4cd0:	54 e4       	ldi	r21, 0x44	; 68
    4cd2:	fc 01       	movw	r30, r24
    4cd4:	60 81       	ld	r22, Z
    4cd6:	71 81       	ldd	r23, Z+1	; 0x01
    4cd8:	82 81       	ldd	r24, Z+2	; 0x02
    4cda:	93 81       	ldd	r25, Z+3	; 0x03
    4cdc:	0e 94 12 37 	call	0x6e24	; 0x6e24 <__divsf3>
    4ce0:	dc 01       	movw	r26, r24
    4ce2:	cb 01       	movw	r24, r22
    4ce4:	9e 01       	movw	r18, r28
    4ce6:	2c 54       	subi	r18, 0x4C	; 76
    4ce8:	3f 4f       	sbci	r19, 0xFF	; 255
    4cea:	f9 01       	movw	r30, r18
    4cec:	80 83       	st	Z, r24
    4cee:	91 83       	std	Z+1, r25	; 0x01
    4cf0:	a2 83       	std	Z+2, r26	; 0x02
    4cf2:	b3 83       	std	Z+3, r27	; 0x03
	#endif

	__builtin_avr_delay_cycles(__ticks_dc);

#else
	__tmp = ((F_CPU) / 4e3) * __ms;
    4cf4:	8e 01       	movw	r16, r28
    4cf6:	08 54       	subi	r16, 0x48	; 72
    4cf8:	1f 4f       	sbci	r17, 0xFF	; 255
    4cfa:	ce 01       	movw	r24, r28
    4cfc:	8c 54       	subi	r24, 0x4C	; 76
    4cfe:	9f 4f       	sbci	r25, 0xFF	; 255
    4d00:	20 e0       	ldi	r18, 0x00	; 0
    4d02:	30 e0       	ldi	r19, 0x00	; 0
    4d04:	4a e7       	ldi	r20, 0x7A	; 122
    4d06:	55 e4       	ldi	r21, 0x45	; 69
    4d08:	fc 01       	movw	r30, r24
    4d0a:	60 81       	ld	r22, Z
    4d0c:	71 81       	ldd	r23, Z+1	; 0x01
    4d0e:	82 81       	ldd	r24, Z+2	; 0x02
    4d10:	93 81       	ldd	r25, Z+3	; 0x03
    4d12:	0e 94 2d 36 	call	0x6c5a	; 0x6c5a <__mulsf3>
    4d16:	dc 01       	movw	r26, r24
    4d18:	cb 01       	movw	r24, r22
    4d1a:	f8 01       	movw	r30, r16
    4d1c:	80 83       	st	Z, r24
    4d1e:	91 83       	std	Z+1, r25	; 0x01
    4d20:	a2 83       	std	Z+2, r26	; 0x02
    4d22:	b3 83       	std	Z+3, r27	; 0x03
	if (__tmp < 1.0)
    4d24:	ce 01       	movw	r24, r28
    4d26:	88 54       	subi	r24, 0x48	; 72
    4d28:	9f 4f       	sbci	r25, 0xFF	; 255
    4d2a:	20 e0       	ldi	r18, 0x00	; 0
    4d2c:	30 e0       	ldi	r19, 0x00	; 0
    4d2e:	40 e8       	ldi	r20, 0x80	; 128
    4d30:	5f e3       	ldi	r21, 0x3F	; 63
    4d32:	fc 01       	movw	r30, r24
    4d34:	60 81       	ld	r22, Z
    4d36:	71 81       	ldd	r23, Z+1	; 0x01
    4d38:	82 81       	ldd	r24, Z+2	; 0x02
    4d3a:	93 81       	ldd	r25, Z+3	; 0x03
    4d3c:	0e 94 13 38 	call	0x7026	; 0x7026 <__ltsf2>
    4d40:	88 23       	and	r24, r24
    4d42:	4c f4       	brge	.+18     	; 0x4d56 <s_read_byte+0x11f0>
		__ticks = 1;
    4d44:	ce 01       	movw	r24, r28
    4d46:	84 54       	subi	r24, 0x44	; 68
    4d48:	9f 4f       	sbci	r25, 0xFF	; 255
    4d4a:	21 e0       	ldi	r18, 0x01	; 1
    4d4c:	30 e0       	ldi	r19, 0x00	; 0
    4d4e:	fc 01       	movw	r30, r24
    4d50:	31 83       	std	Z+1, r19	; 0x01
    4d52:	20 83       	st	Z, r18
    4d54:	70 c0       	rjmp	.+224    	; 0x4e36 <s_read_byte+0x12d0>
	else if (__tmp > 65535)
    4d56:	ce 01       	movw	r24, r28
    4d58:	88 54       	subi	r24, 0x48	; 72
    4d5a:	9f 4f       	sbci	r25, 0xFF	; 255
    4d5c:	20 e0       	ldi	r18, 0x00	; 0
    4d5e:	3f ef       	ldi	r19, 0xFF	; 255
    4d60:	4f e7       	ldi	r20, 0x7F	; 127
    4d62:	57 e4       	ldi	r21, 0x47	; 71
    4d64:	fc 01       	movw	r30, r24
    4d66:	60 81       	ld	r22, Z
    4d68:	71 81       	ldd	r23, Z+1	; 0x01
    4d6a:	82 81       	ldd	r24, Z+2	; 0x02
    4d6c:	93 81       	ldd	r25, Z+3	; 0x03
    4d6e:	0e 94 b5 37 	call	0x6f6a	; 0x6f6a <__gtsf2>
    4d72:	18 16       	cp	r1, r24
    4d74:	0c f0       	brlt	.+2      	; 0x4d78 <s_read_byte+0x1212>
    4d76:	4d c0       	rjmp	.+154    	; 0x4e12 <s_read_byte+0x12ac>
	{
		//	__ticks = requested delay in 1/10 ms
		__ticks = (uint16_t) (__ms * 10.0);
    4d78:	ce 01       	movw	r24, r28
    4d7a:	8c 54       	subi	r24, 0x4C	; 76
    4d7c:	9f 4f       	sbci	r25, 0xFF	; 255
    4d7e:	20 e0       	ldi	r18, 0x00	; 0
    4d80:	30 e0       	ldi	r19, 0x00	; 0
    4d82:	40 e2       	ldi	r20, 0x20	; 32
    4d84:	51 e4       	ldi	r21, 0x41	; 65
    4d86:	fc 01       	movw	r30, r24
    4d88:	60 81       	ld	r22, Z
    4d8a:	71 81       	ldd	r23, Z+1	; 0x01
    4d8c:	82 81       	ldd	r24, Z+2	; 0x02
    4d8e:	93 81       	ldd	r25, Z+3	; 0x03
    4d90:	0e 94 2d 36 	call	0x6c5a	; 0x6c5a <__mulsf3>
    4d94:	dc 01       	movw	r26, r24
    4d96:	cb 01       	movw	r24, r22
    4d98:	8e 01       	movw	r16, r28
    4d9a:	04 54       	subi	r16, 0x44	; 68
    4d9c:	1f 4f       	sbci	r17, 0xFF	; 255
    4d9e:	bc 01       	movw	r22, r24
    4da0:	cd 01       	movw	r24, r26
    4da2:	0e 94 48 34 	call	0x6890	; 0x6890 <__fixunssfsi>
    4da6:	dc 01       	movw	r26, r24
    4da8:	cb 01       	movw	r24, r22
    4daa:	f8 01       	movw	r30, r16
    4dac:	91 83       	std	Z+1, r25	; 0x01
    4dae:	80 83       	st	Z, r24
    4db0:	27 c0       	rjmp	.+78     	; 0x4e00 <s_read_byte+0x129a>
    4db2:	ce 01       	movw	r24, r28
    4db4:	82 54       	subi	r24, 0x42	; 66
    4db6:	9f 4f       	sbci	r25, 0xFF	; 255
    4db8:	20 e9       	ldi	r18, 0x90	; 144
    4dba:	31 e0       	ldi	r19, 0x01	; 1
    4dbc:	fc 01       	movw	r30, r24
    4dbe:	31 83       	std	Z+1, r19	; 0x01
    4dc0:	20 83       	st	Z, r18
    milliseconds can be achieved.
 */
void
_delay_loop_2(uint16_t __count)
{
	__asm__ volatile (
    4dc2:	ce 01       	movw	r24, r28
    4dc4:	82 54       	subi	r24, 0x42	; 66
    4dc6:	9f 4f       	sbci	r25, 0xFF	; 255
    4dc8:	fc 01       	movw	r30, r24
    4dca:	80 81       	ld	r24, Z
    4dcc:	91 81       	ldd	r25, Z+1	; 0x01
    4dce:	8c 01       	movw	r16, r24
    4dd0:	c8 01       	movw	r24, r16
    4dd2:	01 97       	sbiw	r24, 0x01	; 1
    4dd4:	f1 f7       	brne	.-4      	; 0x4dd2 <s_read_byte+0x126c>
    4dd6:	8c 01       	movw	r16, r24
    4dd8:	ce 01       	movw	r24, r28
    4dda:	82 54       	subi	r24, 0x42	; 66
    4ddc:	9f 4f       	sbci	r25, 0xFF	; 255
    4dde:	fc 01       	movw	r30, r24
    4de0:	11 83       	std	Z+1, r17	; 0x01
    4de2:	00 83       	st	Z, r16
		while(__ticks)
		{
			// wait 1/10 ms
			_delay_loop_2(((F_CPU) / 4e3) / 10);
			__ticks --;
    4de4:	ce 01       	movw	r24, r28
    4de6:	84 54       	subi	r24, 0x44	; 68
    4de8:	9f 4f       	sbci	r25, 0xFF	; 255
    4dea:	9e 01       	movw	r18, r28
    4dec:	24 54       	subi	r18, 0x44	; 68
    4dee:	3f 4f       	sbci	r19, 0xFF	; 255
    4df0:	f9 01       	movw	r30, r18
    4df2:	20 81       	ld	r18, Z
    4df4:	31 81       	ldd	r19, Z+1	; 0x01
    4df6:	21 50       	subi	r18, 0x01	; 1
    4df8:	31 09       	sbc	r19, r1
    4dfa:	fc 01       	movw	r30, r24
    4dfc:	31 83       	std	Z+1, r19	; 0x01
    4dfe:	20 83       	st	Z, r18
		__ticks = 1;
	else if (__tmp > 65535)
	{
		//	__ticks = requested delay in 1/10 ms
		__ticks = (uint16_t) (__ms * 10.0);
		while(__ticks)
    4e00:	ce 01       	movw	r24, r28
    4e02:	84 54       	subi	r24, 0x44	; 68
    4e04:	9f 4f       	sbci	r25, 0xFF	; 255
    4e06:	fc 01       	movw	r30, r24
    4e08:	80 81       	ld	r24, Z
    4e0a:	91 81       	ldd	r25, Z+1	; 0x01
    4e0c:	00 97       	sbiw	r24, 0x00	; 0
    4e0e:	89 f6       	brne	.-94     	; 0x4db2 <s_read_byte+0x124c>
    4e10:	58 c0       	rjmp	.+176    	; 0x4ec2 <s_read_byte+0x135c>
			__ticks --;
		}
		return;
	}
	else
		__ticks = (uint16_t)__tmp;
    4e12:	8e 01       	movw	r16, r28
    4e14:	04 54       	subi	r16, 0x44	; 68
    4e16:	1f 4f       	sbci	r17, 0xFF	; 255
    4e18:	ce 01       	movw	r24, r28
    4e1a:	88 54       	subi	r24, 0x48	; 72
    4e1c:	9f 4f       	sbci	r25, 0xFF	; 255
    4e1e:	fc 01       	movw	r30, r24
    4e20:	60 81       	ld	r22, Z
    4e22:	71 81       	ldd	r23, Z+1	; 0x01
    4e24:	82 81       	ldd	r24, Z+2	; 0x02
    4e26:	93 81       	ldd	r25, Z+3	; 0x03
    4e28:	0e 94 48 34 	call	0x6890	; 0x6890 <__fixunssfsi>
    4e2c:	dc 01       	movw	r26, r24
    4e2e:	cb 01       	movw	r24, r22
    4e30:	f8 01       	movw	r30, r16
    4e32:	91 83       	std	Z+1, r25	; 0x01
    4e34:	80 83       	st	Z, r24
    4e36:	ce 01       	movw	r24, r28
    4e38:	80 54       	subi	r24, 0x40	; 64
    4e3a:	9f 4f       	sbci	r25, 0xFF	; 255
    4e3c:	9e 01       	movw	r18, r28
    4e3e:	24 54       	subi	r18, 0x44	; 68
    4e40:	3f 4f       	sbci	r19, 0xFF	; 255
    4e42:	f9 01       	movw	r30, r18
    4e44:	20 81       	ld	r18, Z
    4e46:	31 81       	ldd	r19, Z+1	; 0x01
    4e48:	fc 01       	movw	r30, r24
    4e4a:	31 83       	std	Z+1, r19	; 0x01
    4e4c:	20 83       	st	Z, r18
    4e4e:	ce 01       	movw	r24, r28
    4e50:	80 54       	subi	r24, 0x40	; 64
    4e52:	9f 4f       	sbci	r25, 0xFF	; 255
    4e54:	fc 01       	movw	r30, r24
    4e56:	80 81       	ld	r24, Z
    4e58:	91 81       	ldd	r25, Z+1	; 0x01
    4e5a:	8c 01       	movw	r16, r24
    4e5c:	c8 01       	movw	r24, r16
    4e5e:	01 97       	sbiw	r24, 0x01	; 1
    4e60:	f1 f7       	brne	.-4      	; 0x4e5e <s_read_byte+0x12f8>
    4e62:	8c 01       	movw	r16, r24
    4e64:	ce 01       	movw	r24, r28
    4e66:	80 54       	subi	r24, 0x40	; 64
    4e68:	9f 4f       	sbci	r25, 0xFF	; 255
    4e6a:	fc 01       	movw	r30, r24
    4e6c:	11 83       	std	Z+1, r17	; 0x01
    4e6e:	00 83       	st	Z, r16
    4e70:	28 c0       	rjmp	.+80     	; 0x4ec2 <s_read_byte+0x135c>
	{
		_delay_ms(__us / 1000.0);
		return;
	}
	else
		__ticks = (uint8_t)__tmp;
    4e72:	8e 01       	movw	r16, r28
    4e74:	0d 54       	subi	r16, 0x4D	; 77
    4e76:	1f 4f       	sbci	r17, 0xFF	; 255
    4e78:	ce 01       	movw	r24, r28
    4e7a:	81 55       	subi	r24, 0x51	; 81
    4e7c:	9f 4f       	sbci	r25, 0xFF	; 255
    4e7e:	fc 01       	movw	r30, r24
    4e80:	60 81       	ld	r22, Z
    4e82:	71 81       	ldd	r23, Z+1	; 0x01
    4e84:	82 81       	ldd	r24, Z+2	; 0x02
    4e86:	93 81       	ldd	r25, Z+3	; 0x03
    4e88:	0e 94 48 34 	call	0x6890	; 0x6890 <__fixunssfsi>
    4e8c:	dc 01       	movw	r26, r24
    4e8e:	cb 01       	movw	r24, r22
    4e90:	f8 01       	movw	r30, r16
    4e92:	80 83       	st	Z, r24
    4e94:	ce 01       	movw	r24, r28
    4e96:	8e 53       	subi	r24, 0x3E	; 62
    4e98:	9f 4f       	sbci	r25, 0xFF	; 255
    4e9a:	9e 01       	movw	r18, r28
    4e9c:	2d 54       	subi	r18, 0x4D	; 77
    4e9e:	3f 4f       	sbci	r19, 0xFF	; 255
    4ea0:	f9 01       	movw	r30, r18
    4ea2:	20 81       	ld	r18, Z
    4ea4:	fc 01       	movw	r30, r24
    4ea6:	20 83       	st	Z, r18
    can be achieved.
*/
void
_delay_loop_1(uint8_t __count)
{
	__asm__ volatile (
    4ea8:	ce 01       	movw	r24, r28
    4eaa:	8e 53       	subi	r24, 0x3E	; 62
    4eac:	9f 4f       	sbci	r25, 0xFF	; 255
    4eae:	fc 01       	movw	r30, r24
    4eb0:	80 81       	ld	r24, Z
    4eb2:	18 2f       	mov	r17, r24
    4eb4:	1a 95       	dec	r17
    4eb6:	f1 f7       	brne	.-4      	; 0x4eb4 <s_read_byte+0x134e>
    4eb8:	ce 01       	movw	r24, r28
    4eba:	8e 53       	subi	r24, 0x3E	; 62
    4ebc:	9f 4f       	sbci	r25, 0xFF	; 255
    4ebe:	fc 01       	movw	r30, r24
    4ec0:	10 83       	st	Z, r17
	_delay_us(3); 

	DATA_OUT_1; 
    4ec2:	82 e6       	ldi	r24, 0x62	; 98
    4ec4:	90 e0       	ldi	r25, 0x00	; 0
    4ec6:	22 e6       	ldi	r18, 0x62	; 98
    4ec8:	30 e0       	ldi	r19, 0x00	; 0
    4eca:	f9 01       	movw	r30, r18
    4ecc:	20 81       	ld	r18, Z
    4ece:	21 60       	ori	r18, 0x01	; 1
    4ed0:	fc 01       	movw	r30, r24
    4ed2:	20 83       	st	Z, r18
	return val;
    4ed4:	8a 81       	ldd	r24, Y+2	; 0x02
} 
    4ed6:	cd 53       	subi	r28, 0x3D	; 61
    4ed8:	df 4f       	sbci	r29, 0xFF	; 255
    4eda:	0f b6       	in	r0, 0x3f	; 63
    4edc:	f8 94       	cli
    4ede:	de bf       	out	0x3e, r29	; 62
    4ee0:	0f be       	out	0x3f, r0	; 63
    4ee2:	cd bf       	out	0x3d, r28	; 61
    4ee4:	df 91       	pop	r29
    4ee6:	cf 91       	pop	r28
    4ee8:	1f 91       	pop	r17
    4eea:	0f 91       	pop	r16
    4eec:	08 95       	ret

00004eee <s_transstart>:

void s_transstart(void)
{
    4eee:	0f 93       	push	r16
    4ef0:	1f 93       	push	r17
    4ef2:	cf 93       	push	r28
    4ef4:	df 93       	push	r29
    4ef6:	cd b7       	in	r28, 0x3d	; 61
    4ef8:	de b7       	in	r29, 0x3e	; 62
    4efa:	c0 59       	subi	r28, 0x90	; 144
    4efc:	d1 09       	sbc	r29, r1
    4efe:	0f b6       	in	r0, 0x3f	; 63
    4f00:	f8 94       	cli
    4f02:	de bf       	out	0x3e, r29	; 62
    4f04:	0f be       	out	0x3f, r0	; 63
    4f06:	cd bf       	out	0x3d, r28	; 61
  	DATAOUT; 
    4f08:	81 e6       	ldi	r24, 0x61	; 97
    4f0a:	90 e0       	ldi	r25, 0x00	; 0
    4f0c:	21 e6       	ldi	r18, 0x61	; 97
    4f0e:	30 e0       	ldi	r19, 0x00	; 0
    4f10:	f9 01       	movw	r30, r18
    4f12:	20 81       	ld	r18, Z
    4f14:	21 60       	ori	r18, 0x01	; 1
    4f16:	fc 01       	movw	r30, r24
    4f18:	20 83       	st	Z, r18
	SHTOUT;
    4f1a:	81 e6       	ldi	r24, 0x61	; 97
    4f1c:	90 e0       	ldi	r25, 0x00	; 0
    4f1e:	21 e6       	ldi	r18, 0x61	; 97
    4f20:	30 e0       	ldi	r19, 0x00	; 0
    4f22:	f9 01       	movw	r30, r18
    4f24:	20 81       	ld	r18, Z
    4f26:	22 60       	ori	r18, 0x02	; 2
    4f28:	fc 01       	movw	r30, r24
    4f2a:	20 83       	st	Z, r18

	DATA_OUT_1; 
    4f2c:	82 e6       	ldi	r24, 0x62	; 98
    4f2e:	90 e0       	ldi	r25, 0x00	; 0
    4f30:	22 e6       	ldi	r18, 0x62	; 98
    4f32:	30 e0       	ldi	r19, 0x00	; 0
    4f34:	f9 01       	movw	r30, r18
    4f36:	20 81       	ld	r18, Z
    4f38:	21 60       	ori	r18, 0x01	; 1
    4f3a:	fc 01       	movw	r30, r24
    4f3c:	20 83       	st	Z, r18
	SHT_SCK_0; 
    4f3e:	82 e6       	ldi	r24, 0x62	; 98
    4f40:	90 e0       	ldi	r25, 0x00	; 0
    4f42:	22 e6       	ldi	r18, 0x62	; 98
    4f44:	30 e0       	ldi	r19, 0x00	; 0
    4f46:	f9 01       	movw	r30, r18
    4f48:	20 81       	ld	r18, Z
    4f4a:	2d 7f       	andi	r18, 0xFD	; 253
    4f4c:	fc 01       	movw	r30, r24
    4f4e:	20 83       	st	Z, r18
    4f50:	80 e0       	ldi	r24, 0x00	; 0
    4f52:	90 e0       	ldi	r25, 0x00	; 0
    4f54:	a0 e4       	ldi	r26, 0x40	; 64
    4f56:	b0 e4       	ldi	r27, 0x40	; 64
    4f58:	89 83       	std	Y+1, r24	; 0x01
    4f5a:	9a 83       	std	Y+2, r25	; 0x02
    4f5c:	ab 83       	std	Y+3, r26	; 0x03
    4f5e:	bc 83       	std	Y+4, r27	; 0x04
	#endif

	__builtin_avr_delay_cycles(__ticks_dc);

#else
	__tmp = ((F_CPU) / 3e6) * __us;
    4f60:	2b ea       	ldi	r18, 0xAB	; 171
    4f62:	3a ea       	ldi	r19, 0xAA	; 170
    4f64:	4a ea       	ldi	r20, 0xAA	; 170
    4f66:	50 e4       	ldi	r21, 0x40	; 64
    4f68:	69 81       	ldd	r22, Y+1	; 0x01
    4f6a:	7a 81       	ldd	r23, Y+2	; 0x02
    4f6c:	8b 81       	ldd	r24, Y+3	; 0x03
    4f6e:	9c 81       	ldd	r25, Y+4	; 0x04
    4f70:	0e 94 2d 36 	call	0x6c5a	; 0x6c5a <__mulsf3>
    4f74:	dc 01       	movw	r26, r24
    4f76:	cb 01       	movw	r24, r22
    4f78:	8d 83       	std	Y+5, r24	; 0x05
    4f7a:	9e 83       	std	Y+6, r25	; 0x06
    4f7c:	af 83       	std	Y+7, r26	; 0x07
    4f7e:	b8 87       	std	Y+8, r27	; 0x08
	if (__tmp < 1.0)
    4f80:	20 e0       	ldi	r18, 0x00	; 0
    4f82:	30 e0       	ldi	r19, 0x00	; 0
    4f84:	40 e8       	ldi	r20, 0x80	; 128
    4f86:	5f e3       	ldi	r21, 0x3F	; 63
    4f88:	6d 81       	ldd	r22, Y+5	; 0x05
    4f8a:	7e 81       	ldd	r23, Y+6	; 0x06
    4f8c:	8f 81       	ldd	r24, Y+7	; 0x07
    4f8e:	98 85       	ldd	r25, Y+8	; 0x08
    4f90:	0e 94 13 38 	call	0x7026	; 0x7026 <__ltsf2>
    4f94:	88 23       	and	r24, r24
    4f96:	1c f4       	brge	.+6      	; 0x4f9e <s_transstart+0xb0>
		__ticks = 1;
    4f98:	81 e0       	ldi	r24, 0x01	; 1
    4f9a:	89 87       	std	Y+9, r24	; 0x09
    4f9c:	97 c0       	rjmp	.+302    	; 0x50cc <s_transstart+0x1de>
	else if (__tmp > 255)
    4f9e:	20 e0       	ldi	r18, 0x00	; 0
    4fa0:	30 e0       	ldi	r19, 0x00	; 0
    4fa2:	4f e7       	ldi	r20, 0x7F	; 127
    4fa4:	53 e4       	ldi	r21, 0x43	; 67
    4fa6:	6d 81       	ldd	r22, Y+5	; 0x05
    4fa8:	7e 81       	ldd	r23, Y+6	; 0x06
    4faa:	8f 81       	ldd	r24, Y+7	; 0x07
    4fac:	98 85       	ldd	r25, Y+8	; 0x08
    4fae:	0e 94 b5 37 	call	0x6f6a	; 0x6f6a <__gtsf2>
    4fb2:	18 16       	cp	r1, r24
    4fb4:	0c f0       	brlt	.+2      	; 0x4fb8 <s_transstart+0xca>
    4fb6:	81 c0       	rjmp	.+258    	; 0x50ba <s_transstart+0x1cc>
	{
		_delay_ms(__us / 1000.0);
    4fb8:	20 e0       	ldi	r18, 0x00	; 0
    4fba:	30 e0       	ldi	r19, 0x00	; 0
    4fbc:	4a e7       	ldi	r20, 0x7A	; 122
    4fbe:	54 e4       	ldi	r21, 0x44	; 68
    4fc0:	69 81       	ldd	r22, Y+1	; 0x01
    4fc2:	7a 81       	ldd	r23, Y+2	; 0x02
    4fc4:	8b 81       	ldd	r24, Y+3	; 0x03
    4fc6:	9c 81       	ldd	r25, Y+4	; 0x04
    4fc8:	0e 94 12 37 	call	0x6e24	; 0x6e24 <__divsf3>
    4fcc:	dc 01       	movw	r26, r24
    4fce:	cb 01       	movw	r24, r22
    4fd0:	8a 87       	std	Y+10, r24	; 0x0a
    4fd2:	9b 87       	std	Y+11, r25	; 0x0b
    4fd4:	ac 87       	std	Y+12, r26	; 0x0c
    4fd6:	bd 87       	std	Y+13, r27	; 0x0d
	#endif

	__builtin_avr_delay_cycles(__ticks_dc);

#else
	__tmp = ((F_CPU) / 4e3) * __ms;
    4fd8:	20 e0       	ldi	r18, 0x00	; 0
    4fda:	30 e0       	ldi	r19, 0x00	; 0
    4fdc:	4a e7       	ldi	r20, 0x7A	; 122
    4fde:	55 e4       	ldi	r21, 0x45	; 69
    4fe0:	6a 85       	ldd	r22, Y+10	; 0x0a
    4fe2:	7b 85       	ldd	r23, Y+11	; 0x0b
    4fe4:	8c 85       	ldd	r24, Y+12	; 0x0c
    4fe6:	9d 85       	ldd	r25, Y+13	; 0x0d
    4fe8:	0e 94 2d 36 	call	0x6c5a	; 0x6c5a <__mulsf3>
    4fec:	dc 01       	movw	r26, r24
    4fee:	cb 01       	movw	r24, r22
    4ff0:	8e 87       	std	Y+14, r24	; 0x0e
    4ff2:	9f 87       	std	Y+15, r25	; 0x0f
    4ff4:	a8 8b       	std	Y+16, r26	; 0x10
    4ff6:	b9 8b       	std	Y+17, r27	; 0x11
	if (__tmp < 1.0)
    4ff8:	20 e0       	ldi	r18, 0x00	; 0
    4ffa:	30 e0       	ldi	r19, 0x00	; 0
    4ffc:	40 e8       	ldi	r20, 0x80	; 128
    4ffe:	5f e3       	ldi	r21, 0x3F	; 63
    5000:	6e 85       	ldd	r22, Y+14	; 0x0e
    5002:	7f 85       	ldd	r23, Y+15	; 0x0f
    5004:	88 89       	ldd	r24, Y+16	; 0x10
    5006:	99 89       	ldd	r25, Y+17	; 0x11
    5008:	0e 94 13 38 	call	0x7026	; 0x7026 <__ltsf2>
    500c:	88 23       	and	r24, r24
    500e:	2c f4       	brge	.+10     	; 0x501a <s_transstart+0x12c>
		__ticks = 1;
    5010:	81 e0       	ldi	r24, 0x01	; 1
    5012:	90 e0       	ldi	r25, 0x00	; 0
    5014:	9b 8b       	std	Y+19, r25	; 0x13
    5016:	8a 8b       	std	Y+18, r24	; 0x12
    5018:	42 c0       	rjmp	.+132    	; 0x509e <s_transstart+0x1b0>
	else if (__tmp > 65535)
    501a:	20 e0       	ldi	r18, 0x00	; 0
    501c:	3f ef       	ldi	r19, 0xFF	; 255
    501e:	4f e7       	ldi	r20, 0x7F	; 127
    5020:	57 e4       	ldi	r21, 0x47	; 71
    5022:	6e 85       	ldd	r22, Y+14	; 0x0e
    5024:	7f 85       	ldd	r23, Y+15	; 0x0f
    5026:	88 89       	ldd	r24, Y+16	; 0x10
    5028:	99 89       	ldd	r25, Y+17	; 0x11
    502a:	0e 94 b5 37 	call	0x6f6a	; 0x6f6a <__gtsf2>
    502e:	18 16       	cp	r1, r24
    5030:	64 f5       	brge	.+88     	; 0x508a <s_transstart+0x19c>
	{
		//	__ticks = requested delay in 1/10 ms
		__ticks = (uint16_t) (__ms * 10.0);
    5032:	20 e0       	ldi	r18, 0x00	; 0
    5034:	30 e0       	ldi	r19, 0x00	; 0
    5036:	40 e2       	ldi	r20, 0x20	; 32
    5038:	51 e4       	ldi	r21, 0x41	; 65
    503a:	6a 85       	ldd	r22, Y+10	; 0x0a
    503c:	7b 85       	ldd	r23, Y+11	; 0x0b
    503e:	8c 85       	ldd	r24, Y+12	; 0x0c
    5040:	9d 85       	ldd	r25, Y+13	; 0x0d
    5042:	0e 94 2d 36 	call	0x6c5a	; 0x6c5a <__mulsf3>
    5046:	dc 01       	movw	r26, r24
    5048:	cb 01       	movw	r24, r22
    504a:	bc 01       	movw	r22, r24
    504c:	cd 01       	movw	r24, r26
    504e:	0e 94 48 34 	call	0x6890	; 0x6890 <__fixunssfsi>
    5052:	dc 01       	movw	r26, r24
    5054:	cb 01       	movw	r24, r22
    5056:	9b 8b       	std	Y+19, r25	; 0x13
    5058:	8a 8b       	std	Y+18, r24	; 0x12
    505a:	12 c0       	rjmp	.+36     	; 0x5080 <s_transstart+0x192>
    505c:	80 e9       	ldi	r24, 0x90	; 144
    505e:	91 e0       	ldi	r25, 0x01	; 1
    5060:	9d 8b       	std	Y+21, r25	; 0x15
    5062:	8c 8b       	std	Y+20, r24	; 0x14
    milliseconds can be achieved.
 */
void
_delay_loop_2(uint16_t __count)
{
	__asm__ volatile (
    5064:	8c 89       	ldd	r24, Y+20	; 0x14
    5066:	9d 89       	ldd	r25, Y+21	; 0x15
    5068:	8c 01       	movw	r16, r24
    506a:	c8 01       	movw	r24, r16
    506c:	01 97       	sbiw	r24, 0x01	; 1
    506e:	f1 f7       	brne	.-4      	; 0x506c <s_transstart+0x17e>
    5070:	8c 01       	movw	r16, r24
    5072:	1d 8b       	std	Y+21, r17	; 0x15
    5074:	0c 8b       	std	Y+20, r16	; 0x14
		while(__ticks)
		{
			// wait 1/10 ms
			_delay_loop_2(((F_CPU) / 4e3) / 10);
			__ticks --;
    5076:	8a 89       	ldd	r24, Y+18	; 0x12
    5078:	9b 89       	ldd	r25, Y+19	; 0x13
    507a:	01 97       	sbiw	r24, 0x01	; 1
    507c:	9b 8b       	std	Y+19, r25	; 0x13
    507e:	8a 8b       	std	Y+18, r24	; 0x12
		__ticks = 1;
	else if (__tmp > 65535)
	{
		//	__ticks = requested delay in 1/10 ms
		__ticks = (uint16_t) (__ms * 10.0);
		while(__ticks)
    5080:	8a 89       	ldd	r24, Y+18	; 0x12
    5082:	9b 89       	ldd	r25, Y+19	; 0x13
    5084:	00 97       	sbiw	r24, 0x00	; 0
    5086:	51 f7       	brne	.-44     	; 0x505c <s_transstart+0x16e>
    5088:	28 c0       	rjmp	.+80     	; 0x50da <s_transstart+0x1ec>
			__ticks --;
		}
		return;
	}
	else
		__ticks = (uint16_t)__tmp;
    508a:	6e 85       	ldd	r22, Y+14	; 0x0e
    508c:	7f 85       	ldd	r23, Y+15	; 0x0f
    508e:	88 89       	ldd	r24, Y+16	; 0x10
    5090:	99 89       	ldd	r25, Y+17	; 0x11
    5092:	0e 94 48 34 	call	0x6890	; 0x6890 <__fixunssfsi>
    5096:	dc 01       	movw	r26, r24
    5098:	cb 01       	movw	r24, r22
    509a:	9b 8b       	std	Y+19, r25	; 0x13
    509c:	8a 8b       	std	Y+18, r24	; 0x12
    509e:	8a 89       	ldd	r24, Y+18	; 0x12
    50a0:	9b 89       	ldd	r25, Y+19	; 0x13
    50a2:	9f 8b       	std	Y+23, r25	; 0x17
    50a4:	8e 8b       	std	Y+22, r24	; 0x16
    50a6:	8e 89       	ldd	r24, Y+22	; 0x16
    50a8:	9f 89       	ldd	r25, Y+23	; 0x17
    50aa:	8c 01       	movw	r16, r24
    50ac:	f8 01       	movw	r30, r16
    50ae:	31 97       	sbiw	r30, 0x01	; 1
    50b0:	f1 f7       	brne	.-4      	; 0x50ae <s_transstart+0x1c0>
    50b2:	8f 01       	movw	r16, r30
    50b4:	1f 8b       	std	Y+23, r17	; 0x17
    50b6:	0e 8b       	std	Y+22, r16	; 0x16
    50b8:	10 c0       	rjmp	.+32     	; 0x50da <s_transstart+0x1ec>
	{
		_delay_ms(__us / 1000.0);
		return;
	}
	else
		__ticks = (uint8_t)__tmp;
    50ba:	6d 81       	ldd	r22, Y+5	; 0x05
    50bc:	7e 81       	ldd	r23, Y+6	; 0x06
    50be:	8f 81       	ldd	r24, Y+7	; 0x07
    50c0:	98 85       	ldd	r25, Y+8	; 0x08
    50c2:	0e 94 48 34 	call	0x6890	; 0x6890 <__fixunssfsi>
    50c6:	dc 01       	movw	r26, r24
    50c8:	cb 01       	movw	r24, r22
    50ca:	89 87       	std	Y+9, r24	; 0x09
    50cc:	89 85       	ldd	r24, Y+9	; 0x09
    50ce:	88 8f       	std	Y+24, r24	; 0x18
    can be achieved.
*/
void
_delay_loop_1(uint8_t __count)
{
	__asm__ volatile (
    50d0:	88 8d       	ldd	r24, Y+24	; 0x18
    50d2:	18 2f       	mov	r17, r24
    50d4:	1a 95       	dec	r17
    50d6:	f1 f7       	brne	.-4      	; 0x50d4 <s_transstart+0x1e6>
    50d8:	18 8f       	std	Y+24, r17	; 0x18
	_delay_us(3);
	SHT_SCK_1;
    50da:	82 e6       	ldi	r24, 0x62	; 98
    50dc:	90 e0       	ldi	r25, 0x00	; 0
    50de:	22 e6       	ldi	r18, 0x62	; 98
    50e0:	30 e0       	ldi	r19, 0x00	; 0
    50e2:	f9 01       	movw	r30, r18
    50e4:	20 81       	ld	r18, Z
    50e6:	22 60       	ori	r18, 0x02	; 2
    50e8:	fc 01       	movw	r30, r24
    50ea:	20 83       	st	Z, r18
    50ec:	80 e0       	ldi	r24, 0x00	; 0
    50ee:	90 e0       	ldi	r25, 0x00	; 0
    50f0:	a0 e4       	ldi	r26, 0x40	; 64
    50f2:	b0 e4       	ldi	r27, 0x40	; 64
    50f4:	89 8f       	std	Y+25, r24	; 0x19
    50f6:	9a 8f       	std	Y+26, r25	; 0x1a
    50f8:	ab 8f       	std	Y+27, r26	; 0x1b
    50fa:	bc 8f       	std	Y+28, r27	; 0x1c
	#endif

	__builtin_avr_delay_cycles(__ticks_dc);

#else
	__tmp = ((F_CPU) / 3e6) * __us;
    50fc:	2b ea       	ldi	r18, 0xAB	; 171
    50fe:	3a ea       	ldi	r19, 0xAA	; 170
    5100:	4a ea       	ldi	r20, 0xAA	; 170
    5102:	50 e4       	ldi	r21, 0x40	; 64
    5104:	69 8d       	ldd	r22, Y+25	; 0x19
    5106:	7a 8d       	ldd	r23, Y+26	; 0x1a
    5108:	8b 8d       	ldd	r24, Y+27	; 0x1b
    510a:	9c 8d       	ldd	r25, Y+28	; 0x1c
    510c:	0e 94 2d 36 	call	0x6c5a	; 0x6c5a <__mulsf3>
    5110:	dc 01       	movw	r26, r24
    5112:	cb 01       	movw	r24, r22
    5114:	8d 8f       	std	Y+29, r24	; 0x1d
    5116:	9e 8f       	std	Y+30, r25	; 0x1e
    5118:	af 8f       	std	Y+31, r26	; 0x1f
    511a:	b8 a3       	std	Y+32, r27	; 0x20
	if (__tmp < 1.0)
    511c:	20 e0       	ldi	r18, 0x00	; 0
    511e:	30 e0       	ldi	r19, 0x00	; 0
    5120:	40 e8       	ldi	r20, 0x80	; 128
    5122:	5f e3       	ldi	r21, 0x3F	; 63
    5124:	6d 8d       	ldd	r22, Y+29	; 0x1d
    5126:	7e 8d       	ldd	r23, Y+30	; 0x1e
    5128:	8f 8d       	ldd	r24, Y+31	; 0x1f
    512a:	98 a1       	ldd	r25, Y+32	; 0x20
    512c:	0e 94 13 38 	call	0x7026	; 0x7026 <__ltsf2>
    5130:	88 23       	and	r24, r24
    5132:	1c f4       	brge	.+6      	; 0x513a <s_transstart+0x24c>
		__ticks = 1;
    5134:	81 e0       	ldi	r24, 0x01	; 1
    5136:	89 a3       	std	Y+33, r24	; 0x21
    5138:	97 c0       	rjmp	.+302    	; 0x5268 <s_transstart+0x37a>
	else if (__tmp > 255)
    513a:	20 e0       	ldi	r18, 0x00	; 0
    513c:	30 e0       	ldi	r19, 0x00	; 0
    513e:	4f e7       	ldi	r20, 0x7F	; 127
    5140:	53 e4       	ldi	r21, 0x43	; 67
    5142:	6d 8d       	ldd	r22, Y+29	; 0x1d
    5144:	7e 8d       	ldd	r23, Y+30	; 0x1e
    5146:	8f 8d       	ldd	r24, Y+31	; 0x1f
    5148:	98 a1       	ldd	r25, Y+32	; 0x20
    514a:	0e 94 b5 37 	call	0x6f6a	; 0x6f6a <__gtsf2>
    514e:	18 16       	cp	r1, r24
    5150:	0c f0       	brlt	.+2      	; 0x5154 <s_transstart+0x266>
    5152:	81 c0       	rjmp	.+258    	; 0x5256 <s_transstart+0x368>
	{
		_delay_ms(__us / 1000.0);
    5154:	20 e0       	ldi	r18, 0x00	; 0
    5156:	30 e0       	ldi	r19, 0x00	; 0
    5158:	4a e7       	ldi	r20, 0x7A	; 122
    515a:	54 e4       	ldi	r21, 0x44	; 68
    515c:	69 8d       	ldd	r22, Y+25	; 0x19
    515e:	7a 8d       	ldd	r23, Y+26	; 0x1a
    5160:	8b 8d       	ldd	r24, Y+27	; 0x1b
    5162:	9c 8d       	ldd	r25, Y+28	; 0x1c
    5164:	0e 94 12 37 	call	0x6e24	; 0x6e24 <__divsf3>
    5168:	dc 01       	movw	r26, r24
    516a:	cb 01       	movw	r24, r22
    516c:	8a a3       	std	Y+34, r24	; 0x22
    516e:	9b a3       	std	Y+35, r25	; 0x23
    5170:	ac a3       	std	Y+36, r26	; 0x24
    5172:	bd a3       	std	Y+37, r27	; 0x25
	#endif

	__builtin_avr_delay_cycles(__ticks_dc);

#else
	__tmp = ((F_CPU) / 4e3) * __ms;
    5174:	20 e0       	ldi	r18, 0x00	; 0
    5176:	30 e0       	ldi	r19, 0x00	; 0
    5178:	4a e7       	ldi	r20, 0x7A	; 122
    517a:	55 e4       	ldi	r21, 0x45	; 69
    517c:	6a a1       	ldd	r22, Y+34	; 0x22
    517e:	7b a1       	ldd	r23, Y+35	; 0x23
    5180:	8c a1       	ldd	r24, Y+36	; 0x24
    5182:	9d a1       	ldd	r25, Y+37	; 0x25
    5184:	0e 94 2d 36 	call	0x6c5a	; 0x6c5a <__mulsf3>
    5188:	dc 01       	movw	r26, r24
    518a:	cb 01       	movw	r24, r22
    518c:	8e a3       	std	Y+38, r24	; 0x26
    518e:	9f a3       	std	Y+39, r25	; 0x27
    5190:	a8 a7       	std	Y+40, r26	; 0x28
    5192:	b9 a7       	std	Y+41, r27	; 0x29
	if (__tmp < 1.0)
    5194:	20 e0       	ldi	r18, 0x00	; 0
    5196:	30 e0       	ldi	r19, 0x00	; 0
    5198:	40 e8       	ldi	r20, 0x80	; 128
    519a:	5f e3       	ldi	r21, 0x3F	; 63
    519c:	6e a1       	ldd	r22, Y+38	; 0x26
    519e:	7f a1       	ldd	r23, Y+39	; 0x27
    51a0:	88 a5       	ldd	r24, Y+40	; 0x28
    51a2:	99 a5       	ldd	r25, Y+41	; 0x29
    51a4:	0e 94 13 38 	call	0x7026	; 0x7026 <__ltsf2>
    51a8:	88 23       	and	r24, r24
    51aa:	2c f4       	brge	.+10     	; 0x51b6 <s_transstart+0x2c8>
		__ticks = 1;
    51ac:	81 e0       	ldi	r24, 0x01	; 1
    51ae:	90 e0       	ldi	r25, 0x00	; 0
    51b0:	9b a7       	std	Y+43, r25	; 0x2b
    51b2:	8a a7       	std	Y+42, r24	; 0x2a
    51b4:	42 c0       	rjmp	.+132    	; 0x523a <s_transstart+0x34c>
	else if (__tmp > 65535)
    51b6:	20 e0       	ldi	r18, 0x00	; 0
    51b8:	3f ef       	ldi	r19, 0xFF	; 255
    51ba:	4f e7       	ldi	r20, 0x7F	; 127
    51bc:	57 e4       	ldi	r21, 0x47	; 71
    51be:	6e a1       	ldd	r22, Y+38	; 0x26
    51c0:	7f a1       	ldd	r23, Y+39	; 0x27
    51c2:	88 a5       	ldd	r24, Y+40	; 0x28
    51c4:	99 a5       	ldd	r25, Y+41	; 0x29
    51c6:	0e 94 b5 37 	call	0x6f6a	; 0x6f6a <__gtsf2>
    51ca:	18 16       	cp	r1, r24
    51cc:	64 f5       	brge	.+88     	; 0x5226 <s_transstart+0x338>
	{
		//	__ticks = requested delay in 1/10 ms
		__ticks = (uint16_t) (__ms * 10.0);
    51ce:	20 e0       	ldi	r18, 0x00	; 0
    51d0:	30 e0       	ldi	r19, 0x00	; 0
    51d2:	40 e2       	ldi	r20, 0x20	; 32
    51d4:	51 e4       	ldi	r21, 0x41	; 65
    51d6:	6a a1       	ldd	r22, Y+34	; 0x22
    51d8:	7b a1       	ldd	r23, Y+35	; 0x23
    51da:	8c a1       	ldd	r24, Y+36	; 0x24
    51dc:	9d a1       	ldd	r25, Y+37	; 0x25
    51de:	0e 94 2d 36 	call	0x6c5a	; 0x6c5a <__mulsf3>
    51e2:	dc 01       	movw	r26, r24
    51e4:	cb 01       	movw	r24, r22
    51e6:	bc 01       	movw	r22, r24
    51e8:	cd 01       	movw	r24, r26
    51ea:	0e 94 48 34 	call	0x6890	; 0x6890 <__fixunssfsi>
    51ee:	dc 01       	movw	r26, r24
    51f0:	cb 01       	movw	r24, r22
    51f2:	9b a7       	std	Y+43, r25	; 0x2b
    51f4:	8a a7       	std	Y+42, r24	; 0x2a
    51f6:	12 c0       	rjmp	.+36     	; 0x521c <s_transstart+0x32e>
    51f8:	80 e9       	ldi	r24, 0x90	; 144
    51fa:	91 e0       	ldi	r25, 0x01	; 1
    51fc:	9d a7       	std	Y+45, r25	; 0x2d
    51fe:	8c a7       	std	Y+44, r24	; 0x2c
    milliseconds can be achieved.
 */
void
_delay_loop_2(uint16_t __count)
{
	__asm__ volatile (
    5200:	8c a5       	ldd	r24, Y+44	; 0x2c
    5202:	9d a5       	ldd	r25, Y+45	; 0x2d
    5204:	8c 01       	movw	r16, r24
    5206:	c8 01       	movw	r24, r16
    5208:	01 97       	sbiw	r24, 0x01	; 1
    520a:	f1 f7       	brne	.-4      	; 0x5208 <s_transstart+0x31a>
    520c:	8c 01       	movw	r16, r24
    520e:	1d a7       	std	Y+45, r17	; 0x2d
    5210:	0c a7       	std	Y+44, r16	; 0x2c
		while(__ticks)
		{
			// wait 1/10 ms
			_delay_loop_2(((F_CPU) / 4e3) / 10);
			__ticks --;
    5212:	8a a5       	ldd	r24, Y+42	; 0x2a
    5214:	9b a5       	ldd	r25, Y+43	; 0x2b
    5216:	01 97       	sbiw	r24, 0x01	; 1
    5218:	9b a7       	std	Y+43, r25	; 0x2b
    521a:	8a a7       	std	Y+42, r24	; 0x2a
		__ticks = 1;
	else if (__tmp > 65535)
	{
		//	__ticks = requested delay in 1/10 ms
		__ticks = (uint16_t) (__ms * 10.0);
		while(__ticks)
    521c:	8a a5       	ldd	r24, Y+42	; 0x2a
    521e:	9b a5       	ldd	r25, Y+43	; 0x2b
    5220:	00 97       	sbiw	r24, 0x00	; 0
    5222:	51 f7       	brne	.-44     	; 0x51f8 <s_transstart+0x30a>
    5224:	28 c0       	rjmp	.+80     	; 0x5276 <s_transstart+0x388>
			__ticks --;
		}
		return;
	}
	else
		__ticks = (uint16_t)__tmp;
    5226:	6e a1       	ldd	r22, Y+38	; 0x26
    5228:	7f a1       	ldd	r23, Y+39	; 0x27
    522a:	88 a5       	ldd	r24, Y+40	; 0x28
    522c:	99 a5       	ldd	r25, Y+41	; 0x29
    522e:	0e 94 48 34 	call	0x6890	; 0x6890 <__fixunssfsi>
    5232:	dc 01       	movw	r26, r24
    5234:	cb 01       	movw	r24, r22
    5236:	9b a7       	std	Y+43, r25	; 0x2b
    5238:	8a a7       	std	Y+42, r24	; 0x2a
    523a:	8a a5       	ldd	r24, Y+42	; 0x2a
    523c:	9b a5       	ldd	r25, Y+43	; 0x2b
    523e:	9f a7       	std	Y+47, r25	; 0x2f
    5240:	8e a7       	std	Y+46, r24	; 0x2e
    5242:	8e a5       	ldd	r24, Y+46	; 0x2e
    5244:	9f a5       	ldd	r25, Y+47	; 0x2f
    5246:	8c 01       	movw	r16, r24
    5248:	f8 01       	movw	r30, r16
    524a:	31 97       	sbiw	r30, 0x01	; 1
    524c:	f1 f7       	brne	.-4      	; 0x524a <s_transstart+0x35c>
    524e:	8f 01       	movw	r16, r30
    5250:	1f a7       	std	Y+47, r17	; 0x2f
    5252:	0e a7       	std	Y+46, r16	; 0x2e
    5254:	10 c0       	rjmp	.+32     	; 0x5276 <s_transstart+0x388>
	{
		_delay_ms(__us / 1000.0);
		return;
	}
	else
		__ticks = (uint8_t)__tmp;
    5256:	6d 8d       	ldd	r22, Y+29	; 0x1d
    5258:	7e 8d       	ldd	r23, Y+30	; 0x1e
    525a:	8f 8d       	ldd	r24, Y+31	; 0x1f
    525c:	98 a1       	ldd	r25, Y+32	; 0x20
    525e:	0e 94 48 34 	call	0x6890	; 0x6890 <__fixunssfsi>
    5262:	dc 01       	movw	r26, r24
    5264:	cb 01       	movw	r24, r22
    5266:	89 a3       	std	Y+33, r24	; 0x21
    5268:	89 a1       	ldd	r24, Y+33	; 0x21
    526a:	88 ab       	std	Y+48, r24	; 0x30
    can be achieved.
*/
void
_delay_loop_1(uint8_t __count)
{
	__asm__ volatile (
    526c:	88 a9       	ldd	r24, Y+48	; 0x30
    526e:	18 2f       	mov	r17, r24
    5270:	1a 95       	dec	r17
    5272:	f1 f7       	brne	.-4      	; 0x5270 <s_transstart+0x382>
    5274:	18 ab       	std	Y+48, r17	; 0x30
	_delay_us(3);
	DATA_OUT_0;
    5276:	82 e6       	ldi	r24, 0x62	; 98
    5278:	90 e0       	ldi	r25, 0x00	; 0
    527a:	22 e6       	ldi	r18, 0x62	; 98
    527c:	30 e0       	ldi	r19, 0x00	; 0
    527e:	f9 01       	movw	r30, r18
    5280:	20 81       	ld	r18, Z
    5282:	2e 7f       	andi	r18, 0xFE	; 254
    5284:	fc 01       	movw	r30, r24
    5286:	20 83       	st	Z, r18
    5288:	80 e0       	ldi	r24, 0x00	; 0
    528a:	90 e0       	ldi	r25, 0x00	; 0
    528c:	a0 e4       	ldi	r26, 0x40	; 64
    528e:	b0 e4       	ldi	r27, 0x40	; 64
    5290:	89 ab       	std	Y+49, r24	; 0x31
    5292:	9a ab       	std	Y+50, r25	; 0x32
    5294:	ab ab       	std	Y+51, r26	; 0x33
    5296:	bc ab       	std	Y+52, r27	; 0x34
	#endif

	__builtin_avr_delay_cycles(__ticks_dc);

#else
	__tmp = ((F_CPU) / 3e6) * __us;
    5298:	2b ea       	ldi	r18, 0xAB	; 171
    529a:	3a ea       	ldi	r19, 0xAA	; 170
    529c:	4a ea       	ldi	r20, 0xAA	; 170
    529e:	50 e4       	ldi	r21, 0x40	; 64
    52a0:	69 a9       	ldd	r22, Y+49	; 0x31
    52a2:	7a a9       	ldd	r23, Y+50	; 0x32
    52a4:	8b a9       	ldd	r24, Y+51	; 0x33
    52a6:	9c a9       	ldd	r25, Y+52	; 0x34
    52a8:	0e 94 2d 36 	call	0x6c5a	; 0x6c5a <__mulsf3>
    52ac:	dc 01       	movw	r26, r24
    52ae:	cb 01       	movw	r24, r22
    52b0:	8d ab       	std	Y+53, r24	; 0x35
    52b2:	9e ab       	std	Y+54, r25	; 0x36
    52b4:	af ab       	std	Y+55, r26	; 0x37
    52b6:	b8 af       	std	Y+56, r27	; 0x38
	if (__tmp < 1.0)
    52b8:	20 e0       	ldi	r18, 0x00	; 0
    52ba:	30 e0       	ldi	r19, 0x00	; 0
    52bc:	40 e8       	ldi	r20, 0x80	; 128
    52be:	5f e3       	ldi	r21, 0x3F	; 63
    52c0:	6d a9       	ldd	r22, Y+53	; 0x35
    52c2:	7e a9       	ldd	r23, Y+54	; 0x36
    52c4:	8f a9       	ldd	r24, Y+55	; 0x37
    52c6:	98 ad       	ldd	r25, Y+56	; 0x38
    52c8:	0e 94 13 38 	call	0x7026	; 0x7026 <__ltsf2>
    52cc:	88 23       	and	r24, r24
    52ce:	1c f4       	brge	.+6      	; 0x52d6 <s_transstart+0x3e8>
		__ticks = 1;
    52d0:	81 e0       	ldi	r24, 0x01	; 1
    52d2:	89 af       	std	Y+57, r24	; 0x39
    52d4:	da c0       	rjmp	.+436    	; 0x548a <s_transstart+0x59c>
	else if (__tmp > 255)
    52d6:	20 e0       	ldi	r18, 0x00	; 0
    52d8:	30 e0       	ldi	r19, 0x00	; 0
    52da:	4f e7       	ldi	r20, 0x7F	; 127
    52dc:	53 e4       	ldi	r21, 0x43	; 67
    52de:	6d a9       	ldd	r22, Y+53	; 0x35
    52e0:	7e a9       	ldd	r23, Y+54	; 0x36
    52e2:	8f a9       	ldd	r24, Y+55	; 0x37
    52e4:	98 ad       	ldd	r25, Y+56	; 0x38
    52e6:	0e 94 b5 37 	call	0x6f6a	; 0x6f6a <__gtsf2>
    52ea:	18 16       	cp	r1, r24
    52ec:	0c f0       	brlt	.+2      	; 0x52f0 <s_transstart+0x402>
    52ee:	c4 c0       	rjmp	.+392    	; 0x5478 <s_transstart+0x58a>
	{
		_delay_ms(__us / 1000.0);
    52f0:	20 e0       	ldi	r18, 0x00	; 0
    52f2:	30 e0       	ldi	r19, 0x00	; 0
    52f4:	4a e7       	ldi	r20, 0x7A	; 122
    52f6:	54 e4       	ldi	r21, 0x44	; 68
    52f8:	69 a9       	ldd	r22, Y+49	; 0x31
    52fa:	7a a9       	ldd	r23, Y+50	; 0x32
    52fc:	8b a9       	ldd	r24, Y+51	; 0x33
    52fe:	9c a9       	ldd	r25, Y+52	; 0x34
    5300:	0e 94 12 37 	call	0x6e24	; 0x6e24 <__divsf3>
    5304:	dc 01       	movw	r26, r24
    5306:	cb 01       	movw	r24, r22
    5308:	8a af       	std	Y+58, r24	; 0x3a
    530a:	9b af       	std	Y+59, r25	; 0x3b
    530c:	ac af       	std	Y+60, r26	; 0x3c
    530e:	bd af       	std	Y+61, r27	; 0x3d
	#endif

	__builtin_avr_delay_cycles(__ticks_dc);

#else
	__tmp = ((F_CPU) / 4e3) * __ms;
    5310:	8e 01       	movw	r16, r28
    5312:	02 5c       	subi	r16, 0xC2	; 194
    5314:	1f 4f       	sbci	r17, 0xFF	; 255
    5316:	20 e0       	ldi	r18, 0x00	; 0
    5318:	30 e0       	ldi	r19, 0x00	; 0
    531a:	4a e7       	ldi	r20, 0x7A	; 122
    531c:	55 e4       	ldi	r21, 0x45	; 69
    531e:	6a ad       	ldd	r22, Y+58	; 0x3a
    5320:	7b ad       	ldd	r23, Y+59	; 0x3b
    5322:	8c ad       	ldd	r24, Y+60	; 0x3c
    5324:	9d ad       	ldd	r25, Y+61	; 0x3d
    5326:	0e 94 2d 36 	call	0x6c5a	; 0x6c5a <__mulsf3>
    532a:	dc 01       	movw	r26, r24
    532c:	cb 01       	movw	r24, r22
    532e:	f8 01       	movw	r30, r16
    5330:	80 83       	st	Z, r24
    5332:	91 83       	std	Z+1, r25	; 0x01
    5334:	a2 83       	std	Z+2, r26	; 0x02
    5336:	b3 83       	std	Z+3, r27	; 0x03
	if (__tmp < 1.0)
    5338:	ce 01       	movw	r24, r28
    533a:	ce 96       	adiw	r24, 0x3e	; 62
    533c:	20 e0       	ldi	r18, 0x00	; 0
    533e:	30 e0       	ldi	r19, 0x00	; 0
    5340:	40 e8       	ldi	r20, 0x80	; 128
    5342:	5f e3       	ldi	r21, 0x3F	; 63
    5344:	fc 01       	movw	r30, r24
    5346:	60 81       	ld	r22, Z
    5348:	71 81       	ldd	r23, Z+1	; 0x01
    534a:	82 81       	ldd	r24, Z+2	; 0x02
    534c:	93 81       	ldd	r25, Z+3	; 0x03
    534e:	0e 94 13 38 	call	0x7026	; 0x7026 <__ltsf2>
    5352:	88 23       	and	r24, r24
    5354:	4c f4       	brge	.+18     	; 0x5368 <s_transstart+0x47a>
		__ticks = 1;
    5356:	ce 01       	movw	r24, r28
    5358:	8e 5b       	subi	r24, 0xBE	; 190
    535a:	9f 4f       	sbci	r25, 0xFF	; 255
    535c:	21 e0       	ldi	r18, 0x01	; 1
    535e:	30 e0       	ldi	r19, 0x00	; 0
    5360:	fc 01       	movw	r30, r24
    5362:	31 83       	std	Z+1, r19	; 0x01
    5364:	20 83       	st	Z, r18
    5366:	6a c0       	rjmp	.+212    	; 0x543c <s_transstart+0x54e>
	else if (__tmp > 65535)
    5368:	ce 01       	movw	r24, r28
    536a:	ce 96       	adiw	r24, 0x3e	; 62
    536c:	20 e0       	ldi	r18, 0x00	; 0
    536e:	3f ef       	ldi	r19, 0xFF	; 255
    5370:	4f e7       	ldi	r20, 0x7F	; 127
    5372:	57 e4       	ldi	r21, 0x47	; 71
    5374:	fc 01       	movw	r30, r24
    5376:	60 81       	ld	r22, Z
    5378:	71 81       	ldd	r23, Z+1	; 0x01
    537a:	82 81       	ldd	r24, Z+2	; 0x02
    537c:	93 81       	ldd	r25, Z+3	; 0x03
    537e:	0e 94 b5 37 	call	0x6f6a	; 0x6f6a <__gtsf2>
    5382:	18 16       	cp	r1, r24
    5384:	0c f0       	brlt	.+2      	; 0x5388 <s_transstart+0x49a>
    5386:	49 c0       	rjmp	.+146    	; 0x541a <s_transstart+0x52c>
	{
		//	__ticks = requested delay in 1/10 ms
		__ticks = (uint16_t) (__ms * 10.0);
    5388:	20 e0       	ldi	r18, 0x00	; 0
    538a:	30 e0       	ldi	r19, 0x00	; 0
    538c:	40 e2       	ldi	r20, 0x20	; 32
    538e:	51 e4       	ldi	r21, 0x41	; 65
    5390:	6a ad       	ldd	r22, Y+58	; 0x3a
    5392:	7b ad       	ldd	r23, Y+59	; 0x3b
    5394:	8c ad       	ldd	r24, Y+60	; 0x3c
    5396:	9d ad       	ldd	r25, Y+61	; 0x3d
    5398:	0e 94 2d 36 	call	0x6c5a	; 0x6c5a <__mulsf3>
    539c:	dc 01       	movw	r26, r24
    539e:	cb 01       	movw	r24, r22
    53a0:	8e 01       	movw	r16, r28
    53a2:	0e 5b       	subi	r16, 0xBE	; 190
    53a4:	1f 4f       	sbci	r17, 0xFF	; 255
    53a6:	bc 01       	movw	r22, r24
    53a8:	cd 01       	movw	r24, r26
    53aa:	0e 94 48 34 	call	0x6890	; 0x6890 <__fixunssfsi>
    53ae:	dc 01       	movw	r26, r24
    53b0:	cb 01       	movw	r24, r22
    53b2:	f8 01       	movw	r30, r16
    53b4:	91 83       	std	Z+1, r25	; 0x01
    53b6:	80 83       	st	Z, r24
    53b8:	27 c0       	rjmp	.+78     	; 0x5408 <s_transstart+0x51a>
    53ba:	ce 01       	movw	r24, r28
    53bc:	8c 5b       	subi	r24, 0xBC	; 188
    53be:	9f 4f       	sbci	r25, 0xFF	; 255
    53c0:	20 e9       	ldi	r18, 0x90	; 144
    53c2:	31 e0       	ldi	r19, 0x01	; 1
    53c4:	fc 01       	movw	r30, r24
    53c6:	31 83       	std	Z+1, r19	; 0x01
    53c8:	20 83       	st	Z, r18
    milliseconds can be achieved.
 */
void
_delay_loop_2(uint16_t __count)
{
	__asm__ volatile (
    53ca:	ce 01       	movw	r24, r28
    53cc:	8c 5b       	subi	r24, 0xBC	; 188
    53ce:	9f 4f       	sbci	r25, 0xFF	; 255
    53d0:	fc 01       	movw	r30, r24
    53d2:	80 81       	ld	r24, Z
    53d4:	91 81       	ldd	r25, Z+1	; 0x01
    53d6:	8c 01       	movw	r16, r24
    53d8:	c8 01       	movw	r24, r16
    53da:	01 97       	sbiw	r24, 0x01	; 1
    53dc:	f1 f7       	brne	.-4      	; 0x53da <s_transstart+0x4ec>
    53de:	8c 01       	movw	r16, r24
    53e0:	ce 01       	movw	r24, r28
    53e2:	8c 5b       	subi	r24, 0xBC	; 188
    53e4:	9f 4f       	sbci	r25, 0xFF	; 255
    53e6:	fc 01       	movw	r30, r24
    53e8:	11 83       	std	Z+1, r17	; 0x01
    53ea:	00 83       	st	Z, r16
		while(__ticks)
		{
			// wait 1/10 ms
			_delay_loop_2(((F_CPU) / 4e3) / 10);
			__ticks --;
    53ec:	ce 01       	movw	r24, r28
    53ee:	8e 5b       	subi	r24, 0xBE	; 190
    53f0:	9f 4f       	sbci	r25, 0xFF	; 255
    53f2:	9e 01       	movw	r18, r28
    53f4:	2e 5b       	subi	r18, 0xBE	; 190
    53f6:	3f 4f       	sbci	r19, 0xFF	; 255
    53f8:	f9 01       	movw	r30, r18
    53fa:	20 81       	ld	r18, Z
    53fc:	31 81       	ldd	r19, Z+1	; 0x01
    53fe:	21 50       	subi	r18, 0x01	; 1
    5400:	31 09       	sbc	r19, r1
    5402:	fc 01       	movw	r30, r24
    5404:	31 83       	std	Z+1, r19	; 0x01
    5406:	20 83       	st	Z, r18
		__ticks = 1;
	else if (__tmp > 65535)
	{
		//	__ticks = requested delay in 1/10 ms
		__ticks = (uint16_t) (__ms * 10.0);
		while(__ticks)
    5408:	ce 01       	movw	r24, r28
    540a:	8e 5b       	subi	r24, 0xBE	; 190
    540c:	9f 4f       	sbci	r25, 0xFF	; 255
    540e:	fc 01       	movw	r30, r24
    5410:	80 81       	ld	r24, Z
    5412:	91 81       	ldd	r25, Z+1	; 0x01
    5414:	00 97       	sbiw	r24, 0x00	; 0
    5416:	89 f6       	brne	.-94     	; 0x53ba <s_transstart+0x4cc>
    5418:	4b c0       	rjmp	.+150    	; 0x54b0 <s_transstart+0x5c2>
			__ticks --;
		}
		return;
	}
	else
		__ticks = (uint16_t)__tmp;
    541a:	8e 01       	movw	r16, r28
    541c:	0e 5b       	subi	r16, 0xBE	; 190
    541e:	1f 4f       	sbci	r17, 0xFF	; 255
    5420:	ce 01       	movw	r24, r28
    5422:	ce 96       	adiw	r24, 0x3e	; 62
    5424:	fc 01       	movw	r30, r24
    5426:	60 81       	ld	r22, Z
    5428:	71 81       	ldd	r23, Z+1	; 0x01
    542a:	82 81       	ldd	r24, Z+2	; 0x02
    542c:	93 81       	ldd	r25, Z+3	; 0x03
    542e:	0e 94 48 34 	call	0x6890	; 0x6890 <__fixunssfsi>
    5432:	dc 01       	movw	r26, r24
    5434:	cb 01       	movw	r24, r22
    5436:	f8 01       	movw	r30, r16
    5438:	91 83       	std	Z+1, r25	; 0x01
    543a:	80 83       	st	Z, r24
    543c:	ce 01       	movw	r24, r28
    543e:	8a 5b       	subi	r24, 0xBA	; 186
    5440:	9f 4f       	sbci	r25, 0xFF	; 255
    5442:	9e 01       	movw	r18, r28
    5444:	2e 5b       	subi	r18, 0xBE	; 190
    5446:	3f 4f       	sbci	r19, 0xFF	; 255
    5448:	f9 01       	movw	r30, r18
    544a:	20 81       	ld	r18, Z
    544c:	31 81       	ldd	r19, Z+1	; 0x01
    544e:	fc 01       	movw	r30, r24
    5450:	31 83       	std	Z+1, r19	; 0x01
    5452:	20 83       	st	Z, r18
    5454:	ce 01       	movw	r24, r28
    5456:	8a 5b       	subi	r24, 0xBA	; 186
    5458:	9f 4f       	sbci	r25, 0xFF	; 255
    545a:	fc 01       	movw	r30, r24
    545c:	80 81       	ld	r24, Z
    545e:	91 81       	ldd	r25, Z+1	; 0x01
    5460:	8c 01       	movw	r16, r24
    5462:	c8 01       	movw	r24, r16
    5464:	01 97       	sbiw	r24, 0x01	; 1
    5466:	f1 f7       	brne	.-4      	; 0x5464 <s_transstart+0x576>
    5468:	8c 01       	movw	r16, r24
    546a:	ce 01       	movw	r24, r28
    546c:	8a 5b       	subi	r24, 0xBA	; 186
    546e:	9f 4f       	sbci	r25, 0xFF	; 255
    5470:	fc 01       	movw	r30, r24
    5472:	11 83       	std	Z+1, r17	; 0x01
    5474:	00 83       	st	Z, r16
    5476:	1c c0       	rjmp	.+56     	; 0x54b0 <s_transstart+0x5c2>
	{
		_delay_ms(__us / 1000.0);
		return;
	}
	else
		__ticks = (uint8_t)__tmp;
    5478:	6d a9       	ldd	r22, Y+53	; 0x35
    547a:	7e a9       	ldd	r23, Y+54	; 0x36
    547c:	8f a9       	ldd	r24, Y+55	; 0x37
    547e:	98 ad       	ldd	r25, Y+56	; 0x38
    5480:	0e 94 48 34 	call	0x6890	; 0x6890 <__fixunssfsi>
    5484:	dc 01       	movw	r26, r24
    5486:	cb 01       	movw	r24, r22
    5488:	89 af       	std	Y+57, r24	; 0x39
    548a:	ce 01       	movw	r24, r28
    548c:	88 5b       	subi	r24, 0xB8	; 184
    548e:	9f 4f       	sbci	r25, 0xFF	; 255
    5490:	29 ad       	ldd	r18, Y+57	; 0x39
    5492:	fc 01       	movw	r30, r24
    5494:	20 83       	st	Z, r18
    can be achieved.
*/
void
_delay_loop_1(uint8_t __count)
{
	__asm__ volatile (
    5496:	ce 01       	movw	r24, r28
    5498:	88 5b       	subi	r24, 0xB8	; 184
    549a:	9f 4f       	sbci	r25, 0xFF	; 255
    549c:	fc 01       	movw	r30, r24
    549e:	80 81       	ld	r24, Z
    54a0:	18 2f       	mov	r17, r24
    54a2:	1a 95       	dec	r17
    54a4:	f1 f7       	brne	.-4      	; 0x54a2 <s_transstart+0x5b4>
    54a6:	ce 01       	movw	r24, r28
    54a8:	88 5b       	subi	r24, 0xB8	; 184
    54aa:	9f 4f       	sbci	r25, 0xFF	; 255
    54ac:	fc 01       	movw	r30, r24
    54ae:	10 83       	st	Z, r17
	_delay_us(3);
	SHT_SCK_0;
    54b0:	82 e6       	ldi	r24, 0x62	; 98
    54b2:	90 e0       	ldi	r25, 0x00	; 0
    54b4:	22 e6       	ldi	r18, 0x62	; 98
    54b6:	30 e0       	ldi	r19, 0x00	; 0
    54b8:	f9 01       	movw	r30, r18
    54ba:	20 81       	ld	r18, Z
    54bc:	2d 7f       	andi	r18, 0xFD	; 253
    54be:	fc 01       	movw	r30, r24
    54c0:	20 83       	st	Z, r18
    54c2:	9e 01       	movw	r18, r28
    54c4:	27 5b       	subi	r18, 0xB7	; 183
    54c6:	3f 4f       	sbci	r19, 0xFF	; 255
    54c8:	80 e0       	ldi	r24, 0x00	; 0
    54ca:	90 e0       	ldi	r25, 0x00	; 0
    54cc:	a0 ec       	ldi	r26, 0xC0	; 192
    54ce:	b0 e4       	ldi	r27, 0x40	; 64
    54d0:	f9 01       	movw	r30, r18
    54d2:	80 83       	st	Z, r24
    54d4:	91 83       	std	Z+1, r25	; 0x01
    54d6:	a2 83       	std	Z+2, r26	; 0x02
    54d8:	b3 83       	std	Z+3, r27	; 0x03
	#endif

	__builtin_avr_delay_cycles(__ticks_dc);

#else
	__tmp = ((F_CPU) / 3e6) * __us;
    54da:	8e 01       	movw	r16, r28
    54dc:	03 5b       	subi	r16, 0xB3	; 179
    54de:	1f 4f       	sbci	r17, 0xFF	; 255
    54e0:	ce 01       	movw	r24, r28
    54e2:	87 5b       	subi	r24, 0xB7	; 183
    54e4:	9f 4f       	sbci	r25, 0xFF	; 255
    54e6:	2b ea       	ldi	r18, 0xAB	; 171
    54e8:	3a ea       	ldi	r19, 0xAA	; 170
    54ea:	4a ea       	ldi	r20, 0xAA	; 170
    54ec:	50 e4       	ldi	r21, 0x40	; 64
    54ee:	fc 01       	movw	r30, r24
    54f0:	60 81       	ld	r22, Z
    54f2:	71 81       	ldd	r23, Z+1	; 0x01
    54f4:	82 81       	ldd	r24, Z+2	; 0x02
    54f6:	93 81       	ldd	r25, Z+3	; 0x03
    54f8:	0e 94 2d 36 	call	0x6c5a	; 0x6c5a <__mulsf3>
    54fc:	dc 01       	movw	r26, r24
    54fe:	cb 01       	movw	r24, r22
    5500:	f8 01       	movw	r30, r16
    5502:	80 83       	st	Z, r24
    5504:	91 83       	std	Z+1, r25	; 0x01
    5506:	a2 83       	std	Z+2, r26	; 0x02
    5508:	b3 83       	std	Z+3, r27	; 0x03
	if (__tmp < 1.0)
    550a:	ce 01       	movw	r24, r28
    550c:	83 5b       	subi	r24, 0xB3	; 179
    550e:	9f 4f       	sbci	r25, 0xFF	; 255
    5510:	20 e0       	ldi	r18, 0x00	; 0
    5512:	30 e0       	ldi	r19, 0x00	; 0
    5514:	40 e8       	ldi	r20, 0x80	; 128
    5516:	5f e3       	ldi	r21, 0x3F	; 63
    5518:	fc 01       	movw	r30, r24
    551a:	60 81       	ld	r22, Z
    551c:	71 81       	ldd	r23, Z+1	; 0x01
    551e:	82 81       	ldd	r24, Z+2	; 0x02
    5520:	93 81       	ldd	r25, Z+3	; 0x03
    5522:	0e 94 13 38 	call	0x7026	; 0x7026 <__ltsf2>
    5526:	88 23       	and	r24, r24
    5528:	3c f4       	brge	.+14     	; 0x5538 <s_transstart+0x64a>
		__ticks = 1;
    552a:	ce 01       	movw	r24, r28
    552c:	8f 5a       	subi	r24, 0xAF	; 175
    552e:	9f 4f       	sbci	r25, 0xFF	; 255
    5530:	21 e0       	ldi	r18, 0x01	; 1
    5532:	fc 01       	movw	r30, r24
    5534:	20 83       	st	Z, r18
    5536:	f9 c0       	rjmp	.+498    	; 0x572a <s_transstart+0x83c>
	else if (__tmp > 255)
    5538:	ce 01       	movw	r24, r28
    553a:	83 5b       	subi	r24, 0xB3	; 179
    553c:	9f 4f       	sbci	r25, 0xFF	; 255
    553e:	20 e0       	ldi	r18, 0x00	; 0
    5540:	30 e0       	ldi	r19, 0x00	; 0
    5542:	4f e7       	ldi	r20, 0x7F	; 127
    5544:	53 e4       	ldi	r21, 0x43	; 67
    5546:	fc 01       	movw	r30, r24
    5548:	60 81       	ld	r22, Z
    554a:	71 81       	ldd	r23, Z+1	; 0x01
    554c:	82 81       	ldd	r24, Z+2	; 0x02
    554e:	93 81       	ldd	r25, Z+3	; 0x03
    5550:	0e 94 b5 37 	call	0x6f6a	; 0x6f6a <__gtsf2>
    5554:	18 16       	cp	r1, r24
    5556:	0c f0       	brlt	.+2      	; 0x555a <s_transstart+0x66c>
    5558:	d7 c0       	rjmp	.+430    	; 0x5708 <s_transstart+0x81a>
	{
		_delay_ms(__us / 1000.0);
    555a:	ce 01       	movw	r24, r28
    555c:	87 5b       	subi	r24, 0xB7	; 183
    555e:	9f 4f       	sbci	r25, 0xFF	; 255
    5560:	20 e0       	ldi	r18, 0x00	; 0
    5562:	30 e0       	ldi	r19, 0x00	; 0
    5564:	4a e7       	ldi	r20, 0x7A	; 122
    5566:	54 e4       	ldi	r21, 0x44	; 68
    5568:	fc 01       	movw	r30, r24
    556a:	60 81       	ld	r22, Z
    556c:	71 81       	ldd	r23, Z+1	; 0x01
    556e:	82 81       	ldd	r24, Z+2	; 0x02
    5570:	93 81       	ldd	r25, Z+3	; 0x03
    5572:	0e 94 12 37 	call	0x6e24	; 0x6e24 <__divsf3>
    5576:	dc 01       	movw	r26, r24
    5578:	cb 01       	movw	r24, r22
    557a:	9e 01       	movw	r18, r28
    557c:	2e 5a       	subi	r18, 0xAE	; 174
    557e:	3f 4f       	sbci	r19, 0xFF	; 255
    5580:	f9 01       	movw	r30, r18
    5582:	80 83       	st	Z, r24
    5584:	91 83       	std	Z+1, r25	; 0x01
    5586:	a2 83       	std	Z+2, r26	; 0x02
    5588:	b3 83       	std	Z+3, r27	; 0x03
	#endif

	__builtin_avr_delay_cycles(__ticks_dc);

#else
	__tmp = ((F_CPU) / 4e3) * __ms;
    558a:	8e 01       	movw	r16, r28
    558c:	0a 5a       	subi	r16, 0xAA	; 170
    558e:	1f 4f       	sbci	r17, 0xFF	; 255
    5590:	ce 01       	movw	r24, r28
    5592:	8e 5a       	subi	r24, 0xAE	; 174
    5594:	9f 4f       	sbci	r25, 0xFF	; 255
    5596:	20 e0       	ldi	r18, 0x00	; 0
    5598:	30 e0       	ldi	r19, 0x00	; 0
    559a:	4a e7       	ldi	r20, 0x7A	; 122
    559c:	55 e4       	ldi	r21, 0x45	; 69
    559e:	fc 01       	movw	r30, r24
    55a0:	60 81       	ld	r22, Z
    55a2:	71 81       	ldd	r23, Z+1	; 0x01
    55a4:	82 81       	ldd	r24, Z+2	; 0x02
    55a6:	93 81       	ldd	r25, Z+3	; 0x03
    55a8:	0e 94 2d 36 	call	0x6c5a	; 0x6c5a <__mulsf3>
    55ac:	dc 01       	movw	r26, r24
    55ae:	cb 01       	movw	r24, r22
    55b0:	f8 01       	movw	r30, r16
    55b2:	80 83       	st	Z, r24
    55b4:	91 83       	std	Z+1, r25	; 0x01
    55b6:	a2 83       	std	Z+2, r26	; 0x02
    55b8:	b3 83       	std	Z+3, r27	; 0x03
	if (__tmp < 1.0)
    55ba:	ce 01       	movw	r24, r28
    55bc:	8a 5a       	subi	r24, 0xAA	; 170
    55be:	9f 4f       	sbci	r25, 0xFF	; 255
    55c0:	20 e0       	ldi	r18, 0x00	; 0
    55c2:	30 e0       	ldi	r19, 0x00	; 0
    55c4:	40 e8       	ldi	r20, 0x80	; 128
    55c6:	5f e3       	ldi	r21, 0x3F	; 63
    55c8:	fc 01       	movw	r30, r24
    55ca:	60 81       	ld	r22, Z
    55cc:	71 81       	ldd	r23, Z+1	; 0x01
    55ce:	82 81       	ldd	r24, Z+2	; 0x02
    55d0:	93 81       	ldd	r25, Z+3	; 0x03
    55d2:	0e 94 13 38 	call	0x7026	; 0x7026 <__ltsf2>
    55d6:	88 23       	and	r24, r24
    55d8:	4c f4       	brge	.+18     	; 0x55ec <s_transstart+0x6fe>
		__ticks = 1;
    55da:	ce 01       	movw	r24, r28
    55dc:	86 5a       	subi	r24, 0xA6	; 166
    55de:	9f 4f       	sbci	r25, 0xFF	; 255
    55e0:	21 e0       	ldi	r18, 0x01	; 1
    55e2:	30 e0       	ldi	r19, 0x00	; 0
    55e4:	fc 01       	movw	r30, r24
    55e6:	31 83       	std	Z+1, r19	; 0x01
    55e8:	20 83       	st	Z, r18
    55ea:	70 c0       	rjmp	.+224    	; 0x56cc <s_transstart+0x7de>
	else if (__tmp > 65535)
    55ec:	ce 01       	movw	r24, r28
    55ee:	8a 5a       	subi	r24, 0xAA	; 170
    55f0:	9f 4f       	sbci	r25, 0xFF	; 255
    55f2:	20 e0       	ldi	r18, 0x00	; 0
    55f4:	3f ef       	ldi	r19, 0xFF	; 255
    55f6:	4f e7       	ldi	r20, 0x7F	; 127
    55f8:	57 e4       	ldi	r21, 0x47	; 71
    55fa:	fc 01       	movw	r30, r24
    55fc:	60 81       	ld	r22, Z
    55fe:	71 81       	ldd	r23, Z+1	; 0x01
    5600:	82 81       	ldd	r24, Z+2	; 0x02
    5602:	93 81       	ldd	r25, Z+3	; 0x03
    5604:	0e 94 b5 37 	call	0x6f6a	; 0x6f6a <__gtsf2>
    5608:	18 16       	cp	r1, r24
    560a:	0c f0       	brlt	.+2      	; 0x560e <s_transstart+0x720>
    560c:	4d c0       	rjmp	.+154    	; 0x56a8 <s_transstart+0x7ba>
	{
		//	__ticks = requested delay in 1/10 ms
		__ticks = (uint16_t) (__ms * 10.0);
    560e:	ce 01       	movw	r24, r28
    5610:	8e 5a       	subi	r24, 0xAE	; 174
    5612:	9f 4f       	sbci	r25, 0xFF	; 255
    5614:	20 e0       	ldi	r18, 0x00	; 0
    5616:	30 e0       	ldi	r19, 0x00	; 0
    5618:	40 e2       	ldi	r20, 0x20	; 32
    561a:	51 e4       	ldi	r21, 0x41	; 65
    561c:	fc 01       	movw	r30, r24
    561e:	60 81       	ld	r22, Z
    5620:	71 81       	ldd	r23, Z+1	; 0x01
    5622:	82 81       	ldd	r24, Z+2	; 0x02
    5624:	93 81       	ldd	r25, Z+3	; 0x03
    5626:	0e 94 2d 36 	call	0x6c5a	; 0x6c5a <__mulsf3>
    562a:	dc 01       	movw	r26, r24
    562c:	cb 01       	movw	r24, r22
    562e:	8e 01       	movw	r16, r28
    5630:	06 5a       	subi	r16, 0xA6	; 166
    5632:	1f 4f       	sbci	r17, 0xFF	; 255
    5634:	bc 01       	movw	r22, r24
    5636:	cd 01       	movw	r24, r26
    5638:	0e 94 48 34 	call	0x6890	; 0x6890 <__fixunssfsi>
    563c:	dc 01       	movw	r26, r24
    563e:	cb 01       	movw	r24, r22
    5640:	f8 01       	movw	r30, r16
    5642:	91 83       	std	Z+1, r25	; 0x01
    5644:	80 83       	st	Z, r24
    5646:	27 c0       	rjmp	.+78     	; 0x5696 <s_transstart+0x7a8>
    5648:	ce 01       	movw	r24, r28
    564a:	84 5a       	subi	r24, 0xA4	; 164
    564c:	9f 4f       	sbci	r25, 0xFF	; 255
    564e:	20 e9       	ldi	r18, 0x90	; 144
    5650:	31 e0       	ldi	r19, 0x01	; 1
    5652:	fc 01       	movw	r30, r24
    5654:	31 83       	std	Z+1, r19	; 0x01
    5656:	20 83       	st	Z, r18
    milliseconds can be achieved.
 */
void
_delay_loop_2(uint16_t __count)
{
	__asm__ volatile (
    5658:	ce 01       	movw	r24, r28
    565a:	84 5a       	subi	r24, 0xA4	; 164
    565c:	9f 4f       	sbci	r25, 0xFF	; 255
    565e:	fc 01       	movw	r30, r24
    5660:	80 81       	ld	r24, Z
    5662:	91 81       	ldd	r25, Z+1	; 0x01
    5664:	8c 01       	movw	r16, r24
    5666:	c8 01       	movw	r24, r16
    5668:	01 97       	sbiw	r24, 0x01	; 1
    566a:	f1 f7       	brne	.-4      	; 0x5668 <s_transstart+0x77a>
    566c:	8c 01       	movw	r16, r24
    566e:	ce 01       	movw	r24, r28
    5670:	84 5a       	subi	r24, 0xA4	; 164
    5672:	9f 4f       	sbci	r25, 0xFF	; 255
    5674:	fc 01       	movw	r30, r24
    5676:	11 83       	std	Z+1, r17	; 0x01
    5678:	00 83       	st	Z, r16
		while(__ticks)
		{
			// wait 1/10 ms
			_delay_loop_2(((F_CPU) / 4e3) / 10);
			__ticks --;
    567a:	ce 01       	movw	r24, r28
    567c:	86 5a       	subi	r24, 0xA6	; 166
    567e:	9f 4f       	sbci	r25, 0xFF	; 255
    5680:	9e 01       	movw	r18, r28
    5682:	26 5a       	subi	r18, 0xA6	; 166
    5684:	3f 4f       	sbci	r19, 0xFF	; 255
    5686:	f9 01       	movw	r30, r18
    5688:	20 81       	ld	r18, Z
    568a:	31 81       	ldd	r19, Z+1	; 0x01
    568c:	21 50       	subi	r18, 0x01	; 1
    568e:	31 09       	sbc	r19, r1
    5690:	fc 01       	movw	r30, r24
    5692:	31 83       	std	Z+1, r19	; 0x01
    5694:	20 83       	st	Z, r18
		__ticks = 1;
	else if (__tmp > 65535)
	{
		//	__ticks = requested delay in 1/10 ms
		__ticks = (uint16_t) (__ms * 10.0);
		while(__ticks)
    5696:	ce 01       	movw	r24, r28
    5698:	86 5a       	subi	r24, 0xA6	; 166
    569a:	9f 4f       	sbci	r25, 0xFF	; 255
    569c:	fc 01       	movw	r30, r24
    569e:	80 81       	ld	r24, Z
    56a0:	91 81       	ldd	r25, Z+1	; 0x01
    56a2:	00 97       	sbiw	r24, 0x00	; 0
    56a4:	89 f6       	brne	.-94     	; 0x5648 <s_transstart+0x75a>
    56a6:	58 c0       	rjmp	.+176    	; 0x5758 <s_transstart+0x86a>
			__ticks --;
		}
		return;
	}
	else
		__ticks = (uint16_t)__tmp;
    56a8:	8e 01       	movw	r16, r28
    56aa:	06 5a       	subi	r16, 0xA6	; 166
    56ac:	1f 4f       	sbci	r17, 0xFF	; 255
    56ae:	ce 01       	movw	r24, r28
    56b0:	8a 5a       	subi	r24, 0xAA	; 170
    56b2:	9f 4f       	sbci	r25, 0xFF	; 255
    56b4:	fc 01       	movw	r30, r24
    56b6:	60 81       	ld	r22, Z
    56b8:	71 81       	ldd	r23, Z+1	; 0x01
    56ba:	82 81       	ldd	r24, Z+2	; 0x02
    56bc:	93 81       	ldd	r25, Z+3	; 0x03
    56be:	0e 94 48 34 	call	0x6890	; 0x6890 <__fixunssfsi>
    56c2:	dc 01       	movw	r26, r24
    56c4:	cb 01       	movw	r24, r22
    56c6:	f8 01       	movw	r30, r16
    56c8:	91 83       	std	Z+1, r25	; 0x01
    56ca:	80 83       	st	Z, r24
    56cc:	ce 01       	movw	r24, r28
    56ce:	82 5a       	subi	r24, 0xA2	; 162
    56d0:	9f 4f       	sbci	r25, 0xFF	; 255
    56d2:	9e 01       	movw	r18, r28
    56d4:	26 5a       	subi	r18, 0xA6	; 166
    56d6:	3f 4f       	sbci	r19, 0xFF	; 255
    56d8:	f9 01       	movw	r30, r18
    56da:	20 81       	ld	r18, Z
    56dc:	31 81       	ldd	r19, Z+1	; 0x01
    56de:	fc 01       	movw	r30, r24
    56e0:	31 83       	std	Z+1, r19	; 0x01
    56e2:	20 83       	st	Z, r18
    56e4:	ce 01       	movw	r24, r28
    56e6:	82 5a       	subi	r24, 0xA2	; 162
    56e8:	9f 4f       	sbci	r25, 0xFF	; 255
    56ea:	fc 01       	movw	r30, r24
    56ec:	80 81       	ld	r24, Z
    56ee:	91 81       	ldd	r25, Z+1	; 0x01
    56f0:	8c 01       	movw	r16, r24
    56f2:	c8 01       	movw	r24, r16
    56f4:	01 97       	sbiw	r24, 0x01	; 1
    56f6:	f1 f7       	brne	.-4      	; 0x56f4 <s_transstart+0x806>
    56f8:	8c 01       	movw	r16, r24
    56fa:	ce 01       	movw	r24, r28
    56fc:	82 5a       	subi	r24, 0xA2	; 162
    56fe:	9f 4f       	sbci	r25, 0xFF	; 255
    5700:	fc 01       	movw	r30, r24
    5702:	11 83       	std	Z+1, r17	; 0x01
    5704:	00 83       	st	Z, r16
    5706:	28 c0       	rjmp	.+80     	; 0x5758 <s_transstart+0x86a>
	{
		_delay_ms(__us / 1000.0);
		return;
	}
	else
		__ticks = (uint8_t)__tmp;
    5708:	8e 01       	movw	r16, r28
    570a:	0f 5a       	subi	r16, 0xAF	; 175
    570c:	1f 4f       	sbci	r17, 0xFF	; 255
    570e:	ce 01       	movw	r24, r28
    5710:	83 5b       	subi	r24, 0xB3	; 179
    5712:	9f 4f       	sbci	r25, 0xFF	; 255
    5714:	fc 01       	movw	r30, r24
    5716:	60 81       	ld	r22, Z
    5718:	71 81       	ldd	r23, Z+1	; 0x01
    571a:	82 81       	ldd	r24, Z+2	; 0x02
    571c:	93 81       	ldd	r25, Z+3	; 0x03
    571e:	0e 94 48 34 	call	0x6890	; 0x6890 <__fixunssfsi>
    5722:	dc 01       	movw	r26, r24
    5724:	cb 01       	movw	r24, r22
    5726:	f8 01       	movw	r30, r16
    5728:	80 83       	st	Z, r24
    572a:	ce 01       	movw	r24, r28
    572c:	80 5a       	subi	r24, 0xA0	; 160
    572e:	9f 4f       	sbci	r25, 0xFF	; 255
    5730:	9e 01       	movw	r18, r28
    5732:	2f 5a       	subi	r18, 0xAF	; 175
    5734:	3f 4f       	sbci	r19, 0xFF	; 255
    5736:	f9 01       	movw	r30, r18
    5738:	20 81       	ld	r18, Z
    573a:	fc 01       	movw	r30, r24
    573c:	20 83       	st	Z, r18
    can be achieved.
*/
void
_delay_loop_1(uint8_t __count)
{
	__asm__ volatile (
    573e:	ce 01       	movw	r24, r28
    5740:	80 5a       	subi	r24, 0xA0	; 160
    5742:	9f 4f       	sbci	r25, 0xFF	; 255
    5744:	fc 01       	movw	r30, r24
    5746:	80 81       	ld	r24, Z
    5748:	18 2f       	mov	r17, r24
    574a:	1a 95       	dec	r17
    574c:	f1 f7       	brne	.-4      	; 0x574a <s_transstart+0x85c>
    574e:	ce 01       	movw	r24, r28
    5750:	80 5a       	subi	r24, 0xA0	; 160
    5752:	9f 4f       	sbci	r25, 0xFF	; 255
    5754:	fc 01       	movw	r30, r24
    5756:	10 83       	st	Z, r17
	_delay_us(6);
	SHT_SCK_1;
    5758:	82 e6       	ldi	r24, 0x62	; 98
    575a:	90 e0       	ldi	r25, 0x00	; 0
    575c:	22 e6       	ldi	r18, 0x62	; 98
    575e:	30 e0       	ldi	r19, 0x00	; 0
    5760:	f9 01       	movw	r30, r18
    5762:	20 81       	ld	r18, Z
    5764:	22 60       	ori	r18, 0x02	; 2
    5766:	fc 01       	movw	r30, r24
    5768:	20 83       	st	Z, r18
    576a:	9e 01       	movw	r18, r28
    576c:	2f 59       	subi	r18, 0x9F	; 159
    576e:	3f 4f       	sbci	r19, 0xFF	; 255
    5770:	80 e0       	ldi	r24, 0x00	; 0
    5772:	90 e0       	ldi	r25, 0x00	; 0
    5774:	a0 e4       	ldi	r26, 0x40	; 64
    5776:	b0 e4       	ldi	r27, 0x40	; 64
    5778:	f9 01       	movw	r30, r18
    577a:	80 83       	st	Z, r24
    577c:	91 83       	std	Z+1, r25	; 0x01
    577e:	a2 83       	std	Z+2, r26	; 0x02
    5780:	b3 83       	std	Z+3, r27	; 0x03
	#endif

	__builtin_avr_delay_cycles(__ticks_dc);

#else
	__tmp = ((F_CPU) / 3e6) * __us;
    5782:	8e 01       	movw	r16, r28
    5784:	0b 59       	subi	r16, 0x9B	; 155
    5786:	1f 4f       	sbci	r17, 0xFF	; 255
    5788:	ce 01       	movw	r24, r28
    578a:	8f 59       	subi	r24, 0x9F	; 159
    578c:	9f 4f       	sbci	r25, 0xFF	; 255
    578e:	2b ea       	ldi	r18, 0xAB	; 171
    5790:	3a ea       	ldi	r19, 0xAA	; 170
    5792:	4a ea       	ldi	r20, 0xAA	; 170
    5794:	50 e4       	ldi	r21, 0x40	; 64
    5796:	fc 01       	movw	r30, r24
    5798:	60 81       	ld	r22, Z
    579a:	71 81       	ldd	r23, Z+1	; 0x01
    579c:	82 81       	ldd	r24, Z+2	; 0x02
    579e:	93 81       	ldd	r25, Z+3	; 0x03
    57a0:	0e 94 2d 36 	call	0x6c5a	; 0x6c5a <__mulsf3>
    57a4:	dc 01       	movw	r26, r24
    57a6:	cb 01       	movw	r24, r22
    57a8:	f8 01       	movw	r30, r16
    57aa:	80 83       	st	Z, r24
    57ac:	91 83       	std	Z+1, r25	; 0x01
    57ae:	a2 83       	std	Z+2, r26	; 0x02
    57b0:	b3 83       	std	Z+3, r27	; 0x03
	if (__tmp < 1.0)
    57b2:	ce 01       	movw	r24, r28
    57b4:	8b 59       	subi	r24, 0x9B	; 155
    57b6:	9f 4f       	sbci	r25, 0xFF	; 255
    57b8:	20 e0       	ldi	r18, 0x00	; 0
    57ba:	30 e0       	ldi	r19, 0x00	; 0
    57bc:	40 e8       	ldi	r20, 0x80	; 128
    57be:	5f e3       	ldi	r21, 0x3F	; 63
    57c0:	fc 01       	movw	r30, r24
    57c2:	60 81       	ld	r22, Z
    57c4:	71 81       	ldd	r23, Z+1	; 0x01
    57c6:	82 81       	ldd	r24, Z+2	; 0x02
    57c8:	93 81       	ldd	r25, Z+3	; 0x03
    57ca:	0e 94 13 38 	call	0x7026	; 0x7026 <__ltsf2>
    57ce:	88 23       	and	r24, r24
    57d0:	3c f4       	brge	.+14     	; 0x57e0 <s_transstart+0x8f2>
		__ticks = 1;
    57d2:	ce 01       	movw	r24, r28
    57d4:	87 59       	subi	r24, 0x97	; 151
    57d6:	9f 4f       	sbci	r25, 0xFF	; 255
    57d8:	21 e0       	ldi	r18, 0x01	; 1
    57da:	fc 01       	movw	r30, r24
    57dc:	20 83       	st	Z, r18
    57de:	f9 c0       	rjmp	.+498    	; 0x59d2 <s_transstart+0xae4>
	else if (__tmp > 255)
    57e0:	ce 01       	movw	r24, r28
    57e2:	8b 59       	subi	r24, 0x9B	; 155
    57e4:	9f 4f       	sbci	r25, 0xFF	; 255
    57e6:	20 e0       	ldi	r18, 0x00	; 0
    57e8:	30 e0       	ldi	r19, 0x00	; 0
    57ea:	4f e7       	ldi	r20, 0x7F	; 127
    57ec:	53 e4       	ldi	r21, 0x43	; 67
    57ee:	fc 01       	movw	r30, r24
    57f0:	60 81       	ld	r22, Z
    57f2:	71 81       	ldd	r23, Z+1	; 0x01
    57f4:	82 81       	ldd	r24, Z+2	; 0x02
    57f6:	93 81       	ldd	r25, Z+3	; 0x03
    57f8:	0e 94 b5 37 	call	0x6f6a	; 0x6f6a <__gtsf2>
    57fc:	18 16       	cp	r1, r24
    57fe:	0c f0       	brlt	.+2      	; 0x5802 <s_transstart+0x914>
    5800:	d7 c0       	rjmp	.+430    	; 0x59b0 <s_transstart+0xac2>
	{
		_delay_ms(__us / 1000.0);
    5802:	ce 01       	movw	r24, r28
    5804:	8f 59       	subi	r24, 0x9F	; 159
    5806:	9f 4f       	sbci	r25, 0xFF	; 255
    5808:	20 e0       	ldi	r18, 0x00	; 0
    580a:	30 e0       	ldi	r19, 0x00	; 0
    580c:	4a e7       	ldi	r20, 0x7A	; 122
    580e:	54 e4       	ldi	r21, 0x44	; 68
    5810:	fc 01       	movw	r30, r24
    5812:	60 81       	ld	r22, Z
    5814:	71 81       	ldd	r23, Z+1	; 0x01
    5816:	82 81       	ldd	r24, Z+2	; 0x02
    5818:	93 81       	ldd	r25, Z+3	; 0x03
    581a:	0e 94 12 37 	call	0x6e24	; 0x6e24 <__divsf3>
    581e:	dc 01       	movw	r26, r24
    5820:	cb 01       	movw	r24, r22
    5822:	9e 01       	movw	r18, r28
    5824:	26 59       	subi	r18, 0x96	; 150
    5826:	3f 4f       	sbci	r19, 0xFF	; 255
    5828:	f9 01       	movw	r30, r18
    582a:	80 83       	st	Z, r24
    582c:	91 83       	std	Z+1, r25	; 0x01
    582e:	a2 83       	std	Z+2, r26	; 0x02
    5830:	b3 83       	std	Z+3, r27	; 0x03
	#endif

	__builtin_avr_delay_cycles(__ticks_dc);

#else
	__tmp = ((F_CPU) / 4e3) * __ms;
    5832:	8e 01       	movw	r16, r28
    5834:	02 59       	subi	r16, 0x92	; 146
    5836:	1f 4f       	sbci	r17, 0xFF	; 255
    5838:	ce 01       	movw	r24, r28
    583a:	86 59       	subi	r24, 0x96	; 150
    583c:	9f 4f       	sbci	r25, 0xFF	; 255
    583e:	20 e0       	ldi	r18, 0x00	; 0
    5840:	30 e0       	ldi	r19, 0x00	; 0
    5842:	4a e7       	ldi	r20, 0x7A	; 122
    5844:	55 e4       	ldi	r21, 0x45	; 69
    5846:	fc 01       	movw	r30, r24
    5848:	60 81       	ld	r22, Z
    584a:	71 81       	ldd	r23, Z+1	; 0x01
    584c:	82 81       	ldd	r24, Z+2	; 0x02
    584e:	93 81       	ldd	r25, Z+3	; 0x03
    5850:	0e 94 2d 36 	call	0x6c5a	; 0x6c5a <__mulsf3>
    5854:	dc 01       	movw	r26, r24
    5856:	cb 01       	movw	r24, r22
    5858:	f8 01       	movw	r30, r16
    585a:	80 83       	st	Z, r24
    585c:	91 83       	std	Z+1, r25	; 0x01
    585e:	a2 83       	std	Z+2, r26	; 0x02
    5860:	b3 83       	std	Z+3, r27	; 0x03
	if (__tmp < 1.0)
    5862:	ce 01       	movw	r24, r28
    5864:	82 59       	subi	r24, 0x92	; 146
    5866:	9f 4f       	sbci	r25, 0xFF	; 255
    5868:	20 e0       	ldi	r18, 0x00	; 0
    586a:	30 e0       	ldi	r19, 0x00	; 0
    586c:	40 e8       	ldi	r20, 0x80	; 128
    586e:	5f e3       	ldi	r21, 0x3F	; 63
    5870:	fc 01       	movw	r30, r24
    5872:	60 81       	ld	r22, Z
    5874:	71 81       	ldd	r23, Z+1	; 0x01
    5876:	82 81       	ldd	r24, Z+2	; 0x02
    5878:	93 81       	ldd	r25, Z+3	; 0x03
    587a:	0e 94 13 38 	call	0x7026	; 0x7026 <__ltsf2>
    587e:	88 23       	and	r24, r24
    5880:	4c f4       	brge	.+18     	; 0x5894 <s_transstart+0x9a6>
		__ticks = 1;
    5882:	ce 01       	movw	r24, r28
    5884:	8e 58       	subi	r24, 0x8E	; 142
    5886:	9f 4f       	sbci	r25, 0xFF	; 255
    5888:	21 e0       	ldi	r18, 0x01	; 1
    588a:	30 e0       	ldi	r19, 0x00	; 0
    588c:	fc 01       	movw	r30, r24
    588e:	31 83       	std	Z+1, r19	; 0x01
    5890:	20 83       	st	Z, r18
    5892:	70 c0       	rjmp	.+224    	; 0x5974 <s_transstart+0xa86>
	else if (__tmp > 65535)
    5894:	ce 01       	movw	r24, r28
    5896:	82 59       	subi	r24, 0x92	; 146
    5898:	9f 4f       	sbci	r25, 0xFF	; 255
    589a:	20 e0       	ldi	r18, 0x00	; 0
    589c:	3f ef       	ldi	r19, 0xFF	; 255
    589e:	4f e7       	ldi	r20, 0x7F	; 127
    58a0:	57 e4       	ldi	r21, 0x47	; 71
    58a2:	fc 01       	movw	r30, r24
    58a4:	60 81       	ld	r22, Z
    58a6:	71 81       	ldd	r23, Z+1	; 0x01
    58a8:	82 81       	ldd	r24, Z+2	; 0x02
    58aa:	93 81       	ldd	r25, Z+3	; 0x03
    58ac:	0e 94 b5 37 	call	0x6f6a	; 0x6f6a <__gtsf2>
    58b0:	18 16       	cp	r1, r24
    58b2:	0c f0       	brlt	.+2      	; 0x58b6 <s_transstart+0x9c8>
    58b4:	4d c0       	rjmp	.+154    	; 0x5950 <s_transstart+0xa62>
	{
		//	__ticks = requested delay in 1/10 ms
		__ticks = (uint16_t) (__ms * 10.0);
    58b6:	ce 01       	movw	r24, r28
    58b8:	86 59       	subi	r24, 0x96	; 150
    58ba:	9f 4f       	sbci	r25, 0xFF	; 255
    58bc:	20 e0       	ldi	r18, 0x00	; 0
    58be:	30 e0       	ldi	r19, 0x00	; 0
    58c0:	40 e2       	ldi	r20, 0x20	; 32
    58c2:	51 e4       	ldi	r21, 0x41	; 65
    58c4:	fc 01       	movw	r30, r24
    58c6:	60 81       	ld	r22, Z
    58c8:	71 81       	ldd	r23, Z+1	; 0x01
    58ca:	82 81       	ldd	r24, Z+2	; 0x02
    58cc:	93 81       	ldd	r25, Z+3	; 0x03
    58ce:	0e 94 2d 36 	call	0x6c5a	; 0x6c5a <__mulsf3>
    58d2:	dc 01       	movw	r26, r24
    58d4:	cb 01       	movw	r24, r22
    58d6:	8e 01       	movw	r16, r28
    58d8:	0e 58       	subi	r16, 0x8E	; 142
    58da:	1f 4f       	sbci	r17, 0xFF	; 255
    58dc:	bc 01       	movw	r22, r24
    58de:	cd 01       	movw	r24, r26
    58e0:	0e 94 48 34 	call	0x6890	; 0x6890 <__fixunssfsi>
    58e4:	dc 01       	movw	r26, r24
    58e6:	cb 01       	movw	r24, r22
    58e8:	f8 01       	movw	r30, r16
    58ea:	91 83       	std	Z+1, r25	; 0x01
    58ec:	80 83       	st	Z, r24
    58ee:	27 c0       	rjmp	.+78     	; 0x593e <s_transstart+0xa50>
    58f0:	ce 01       	movw	r24, r28
    58f2:	8c 58       	subi	r24, 0x8C	; 140
    58f4:	9f 4f       	sbci	r25, 0xFF	; 255
    58f6:	20 e9       	ldi	r18, 0x90	; 144
    58f8:	31 e0       	ldi	r19, 0x01	; 1
    58fa:	fc 01       	movw	r30, r24
    58fc:	31 83       	std	Z+1, r19	; 0x01
    58fe:	20 83       	st	Z, r18
    milliseconds can be achieved.
 */
void
_delay_loop_2(uint16_t __count)
{
	__asm__ volatile (
    5900:	ce 01       	movw	r24, r28
    5902:	8c 58       	subi	r24, 0x8C	; 140
    5904:	9f 4f       	sbci	r25, 0xFF	; 255
    5906:	fc 01       	movw	r30, r24
    5908:	80 81       	ld	r24, Z
    590a:	91 81       	ldd	r25, Z+1	; 0x01
    590c:	8c 01       	movw	r16, r24
    590e:	c8 01       	movw	r24, r16
    5910:	01 97       	sbiw	r24, 0x01	; 1
    5912:	f1 f7       	brne	.-4      	; 0x5910 <s_transstart+0xa22>
    5914:	8c 01       	movw	r16, r24
    5916:	ce 01       	movw	r24, r28
    5918:	8c 58       	subi	r24, 0x8C	; 140
    591a:	9f 4f       	sbci	r25, 0xFF	; 255
    591c:	fc 01       	movw	r30, r24
    591e:	11 83       	std	Z+1, r17	; 0x01
    5920:	00 83       	st	Z, r16
		while(__ticks)
		{
			// wait 1/10 ms
			_delay_loop_2(((F_CPU) / 4e3) / 10);
			__ticks --;
    5922:	ce 01       	movw	r24, r28
    5924:	8e 58       	subi	r24, 0x8E	; 142
    5926:	9f 4f       	sbci	r25, 0xFF	; 255
    5928:	9e 01       	movw	r18, r28
    592a:	2e 58       	subi	r18, 0x8E	; 142
    592c:	3f 4f       	sbci	r19, 0xFF	; 255
    592e:	f9 01       	movw	r30, r18
    5930:	20 81       	ld	r18, Z
    5932:	31 81       	ldd	r19, Z+1	; 0x01
    5934:	21 50       	subi	r18, 0x01	; 1
    5936:	31 09       	sbc	r19, r1
    5938:	fc 01       	movw	r30, r24
    593a:	31 83       	std	Z+1, r19	; 0x01
    593c:	20 83       	st	Z, r18
		__ticks = 1;
	else if (__tmp > 65535)
	{
		//	__ticks = requested delay in 1/10 ms
		__ticks = (uint16_t) (__ms * 10.0);
		while(__ticks)
    593e:	ce 01       	movw	r24, r28
    5940:	8e 58       	subi	r24, 0x8E	; 142
    5942:	9f 4f       	sbci	r25, 0xFF	; 255
    5944:	fc 01       	movw	r30, r24
    5946:	80 81       	ld	r24, Z
    5948:	91 81       	ldd	r25, Z+1	; 0x01
    594a:	00 97       	sbiw	r24, 0x00	; 0
    594c:	89 f6       	brne	.-94     	; 0x58f0 <s_transstart+0xa02>
    594e:	58 c0       	rjmp	.+176    	; 0x5a00 <s_transstart+0xb12>
			__ticks --;
		}
		return;
	}
	else
		__ticks = (uint16_t)__tmp;
    5950:	8e 01       	movw	r16, r28
    5952:	0e 58       	subi	r16, 0x8E	; 142
    5954:	1f 4f       	sbci	r17, 0xFF	; 255
    5956:	ce 01       	movw	r24, r28
    5958:	82 59       	subi	r24, 0x92	; 146
    595a:	9f 4f       	sbci	r25, 0xFF	; 255
    595c:	fc 01       	movw	r30, r24
    595e:	60 81       	ld	r22, Z
    5960:	71 81       	ldd	r23, Z+1	; 0x01
    5962:	82 81       	ldd	r24, Z+2	; 0x02
    5964:	93 81       	ldd	r25, Z+3	; 0x03
    5966:	0e 94 48 34 	call	0x6890	; 0x6890 <__fixunssfsi>
    596a:	dc 01       	movw	r26, r24
    596c:	cb 01       	movw	r24, r22
    596e:	f8 01       	movw	r30, r16
    5970:	91 83       	std	Z+1, r25	; 0x01
    5972:	80 83       	st	Z, r24
    5974:	ce 01       	movw	r24, r28
    5976:	8a 58       	subi	r24, 0x8A	; 138
    5978:	9f 4f       	sbci	r25, 0xFF	; 255
    597a:	9e 01       	movw	r18, r28
    597c:	2e 58       	subi	r18, 0x8E	; 142
    597e:	3f 4f       	sbci	r19, 0xFF	; 255
    5980:	f9 01       	movw	r30, r18
    5982:	20 81       	ld	r18, Z
    5984:	31 81       	ldd	r19, Z+1	; 0x01
    5986:	fc 01       	movw	r30, r24
    5988:	31 83       	std	Z+1, r19	; 0x01
    598a:	20 83       	st	Z, r18
    598c:	ce 01       	movw	r24, r28
    598e:	8a 58       	subi	r24, 0x8A	; 138
    5990:	9f 4f       	sbci	r25, 0xFF	; 255
    5992:	fc 01       	movw	r30, r24
    5994:	80 81       	ld	r24, Z
    5996:	91 81       	ldd	r25, Z+1	; 0x01
    5998:	8c 01       	movw	r16, r24
    599a:	c8 01       	movw	r24, r16
    599c:	01 97       	sbiw	r24, 0x01	; 1
    599e:	f1 f7       	brne	.-4      	; 0x599c <s_transstart+0xaae>
    59a0:	8c 01       	movw	r16, r24
    59a2:	ce 01       	movw	r24, r28
    59a4:	8a 58       	subi	r24, 0x8A	; 138
    59a6:	9f 4f       	sbci	r25, 0xFF	; 255
    59a8:	fc 01       	movw	r30, r24
    59aa:	11 83       	std	Z+1, r17	; 0x01
    59ac:	00 83       	st	Z, r16
    59ae:	28 c0       	rjmp	.+80     	; 0x5a00 <s_transstart+0xb12>
	{
		_delay_ms(__us / 1000.0);
		return;
	}
	else
		__ticks = (uint8_t)__tmp;
    59b0:	8e 01       	movw	r16, r28
    59b2:	07 59       	subi	r16, 0x97	; 151
    59b4:	1f 4f       	sbci	r17, 0xFF	; 255
    59b6:	ce 01       	movw	r24, r28
    59b8:	8b 59       	subi	r24, 0x9B	; 155
    59ba:	9f 4f       	sbci	r25, 0xFF	; 255
    59bc:	fc 01       	movw	r30, r24
    59be:	60 81       	ld	r22, Z
    59c0:	71 81       	ldd	r23, Z+1	; 0x01
    59c2:	82 81       	ldd	r24, Z+2	; 0x02
    59c4:	93 81       	ldd	r25, Z+3	; 0x03
    59c6:	0e 94 48 34 	call	0x6890	; 0x6890 <__fixunssfsi>
    59ca:	dc 01       	movw	r26, r24
    59cc:	cb 01       	movw	r24, r22
    59ce:	f8 01       	movw	r30, r16
    59d0:	80 83       	st	Z, r24
    59d2:	ce 01       	movw	r24, r28
    59d4:	88 58       	subi	r24, 0x88	; 136
    59d6:	9f 4f       	sbci	r25, 0xFF	; 255
    59d8:	9e 01       	movw	r18, r28
    59da:	27 59       	subi	r18, 0x97	; 151
    59dc:	3f 4f       	sbci	r19, 0xFF	; 255
    59de:	f9 01       	movw	r30, r18
    59e0:	20 81       	ld	r18, Z
    59e2:	fc 01       	movw	r30, r24
    59e4:	20 83       	st	Z, r18
    can be achieved.
*/
void
_delay_loop_1(uint8_t __count)
{
	__asm__ volatile (
    59e6:	ce 01       	movw	r24, r28
    59e8:	88 58       	subi	r24, 0x88	; 136
    59ea:	9f 4f       	sbci	r25, 0xFF	; 255
    59ec:	fc 01       	movw	r30, r24
    59ee:	80 81       	ld	r24, Z
    59f0:	18 2f       	mov	r17, r24
    59f2:	1a 95       	dec	r17
    59f4:	f1 f7       	brne	.-4      	; 0x59f2 <s_transstart+0xb04>
    59f6:	ce 01       	movw	r24, r28
    59f8:	88 58       	subi	r24, 0x88	; 136
    59fa:	9f 4f       	sbci	r25, 0xFF	; 255
    59fc:	fc 01       	movw	r30, r24
    59fe:	10 83       	st	Z, r17
	_delay_us(3);
	DATA_OUT_1;
    5a00:	82 e6       	ldi	r24, 0x62	; 98
    5a02:	90 e0       	ldi	r25, 0x00	; 0
    5a04:	22 e6       	ldi	r18, 0x62	; 98
    5a06:	30 e0       	ldi	r19, 0x00	; 0
    5a08:	f9 01       	movw	r30, r18
    5a0a:	20 81       	ld	r18, Z
    5a0c:	21 60       	ori	r18, 0x01	; 1
    5a0e:	fc 01       	movw	r30, r24
    5a10:	20 83       	st	Z, r18
    5a12:	9e 01       	movw	r18, r28
    5a14:	27 58       	subi	r18, 0x87	; 135
    5a16:	3f 4f       	sbci	r19, 0xFF	; 255
    5a18:	80 e0       	ldi	r24, 0x00	; 0
    5a1a:	90 e0       	ldi	r25, 0x00	; 0
    5a1c:	a0 e4       	ldi	r26, 0x40	; 64
    5a1e:	b0 e4       	ldi	r27, 0x40	; 64
    5a20:	f9 01       	movw	r30, r18
    5a22:	80 83       	st	Z, r24
    5a24:	91 83       	std	Z+1, r25	; 0x01
    5a26:	a2 83       	std	Z+2, r26	; 0x02
    5a28:	b3 83       	std	Z+3, r27	; 0x03
	#endif

	__builtin_avr_delay_cycles(__ticks_dc);

#else
	__tmp = ((F_CPU) / 3e6) * __us;
    5a2a:	8e 01       	movw	r16, r28
    5a2c:	03 58       	subi	r16, 0x83	; 131
    5a2e:	1f 4f       	sbci	r17, 0xFF	; 255
    5a30:	ce 01       	movw	r24, r28
    5a32:	87 58       	subi	r24, 0x87	; 135
    5a34:	9f 4f       	sbci	r25, 0xFF	; 255
    5a36:	2b ea       	ldi	r18, 0xAB	; 171
    5a38:	3a ea       	ldi	r19, 0xAA	; 170
    5a3a:	4a ea       	ldi	r20, 0xAA	; 170
    5a3c:	50 e4       	ldi	r21, 0x40	; 64
    5a3e:	fc 01       	movw	r30, r24
    5a40:	60 81       	ld	r22, Z
    5a42:	71 81       	ldd	r23, Z+1	; 0x01
    5a44:	82 81       	ldd	r24, Z+2	; 0x02
    5a46:	93 81       	ldd	r25, Z+3	; 0x03
    5a48:	0e 94 2d 36 	call	0x6c5a	; 0x6c5a <__mulsf3>
    5a4c:	dc 01       	movw	r26, r24
    5a4e:	cb 01       	movw	r24, r22
    5a50:	f8 01       	movw	r30, r16
    5a52:	80 83       	st	Z, r24
    5a54:	91 83       	std	Z+1, r25	; 0x01
    5a56:	a2 83       	std	Z+2, r26	; 0x02
    5a58:	b3 83       	std	Z+3, r27	; 0x03
	if (__tmp < 1.0)
    5a5a:	ce 01       	movw	r24, r28
    5a5c:	83 58       	subi	r24, 0x83	; 131
    5a5e:	9f 4f       	sbci	r25, 0xFF	; 255
    5a60:	20 e0       	ldi	r18, 0x00	; 0
    5a62:	30 e0       	ldi	r19, 0x00	; 0
    5a64:	40 e8       	ldi	r20, 0x80	; 128
    5a66:	5f e3       	ldi	r21, 0x3F	; 63
    5a68:	fc 01       	movw	r30, r24
    5a6a:	60 81       	ld	r22, Z
    5a6c:	71 81       	ldd	r23, Z+1	; 0x01
    5a6e:	82 81       	ldd	r24, Z+2	; 0x02
    5a70:	93 81       	ldd	r25, Z+3	; 0x03
    5a72:	0e 94 13 38 	call	0x7026	; 0x7026 <__ltsf2>
    5a76:	88 23       	and	r24, r24
    5a78:	3c f4       	brge	.+14     	; 0x5a88 <s_transstart+0xb9a>
		__ticks = 1;
    5a7a:	ce 01       	movw	r24, r28
    5a7c:	8f 57       	subi	r24, 0x7F	; 127
    5a7e:	9f 4f       	sbci	r25, 0xFF	; 255
    5a80:	21 e0       	ldi	r18, 0x01	; 1
    5a82:	fc 01       	movw	r30, r24
    5a84:	20 83       	st	Z, r18
    5a86:	f9 c0       	rjmp	.+498    	; 0x5c7a <s_transstart+0xd8c>
	else if (__tmp > 255)
    5a88:	ce 01       	movw	r24, r28
    5a8a:	83 58       	subi	r24, 0x83	; 131
    5a8c:	9f 4f       	sbci	r25, 0xFF	; 255
    5a8e:	20 e0       	ldi	r18, 0x00	; 0
    5a90:	30 e0       	ldi	r19, 0x00	; 0
    5a92:	4f e7       	ldi	r20, 0x7F	; 127
    5a94:	53 e4       	ldi	r21, 0x43	; 67
    5a96:	fc 01       	movw	r30, r24
    5a98:	60 81       	ld	r22, Z
    5a9a:	71 81       	ldd	r23, Z+1	; 0x01
    5a9c:	82 81       	ldd	r24, Z+2	; 0x02
    5a9e:	93 81       	ldd	r25, Z+3	; 0x03
    5aa0:	0e 94 b5 37 	call	0x6f6a	; 0x6f6a <__gtsf2>
    5aa4:	18 16       	cp	r1, r24
    5aa6:	0c f0       	brlt	.+2      	; 0x5aaa <s_transstart+0xbbc>
    5aa8:	d7 c0       	rjmp	.+430    	; 0x5c58 <s_transstart+0xd6a>
	{
		_delay_ms(__us / 1000.0);
    5aaa:	ce 01       	movw	r24, r28
    5aac:	87 58       	subi	r24, 0x87	; 135
    5aae:	9f 4f       	sbci	r25, 0xFF	; 255
    5ab0:	20 e0       	ldi	r18, 0x00	; 0
    5ab2:	30 e0       	ldi	r19, 0x00	; 0
    5ab4:	4a e7       	ldi	r20, 0x7A	; 122
    5ab6:	54 e4       	ldi	r21, 0x44	; 68
    5ab8:	fc 01       	movw	r30, r24
    5aba:	60 81       	ld	r22, Z
    5abc:	71 81       	ldd	r23, Z+1	; 0x01
    5abe:	82 81       	ldd	r24, Z+2	; 0x02
    5ac0:	93 81       	ldd	r25, Z+3	; 0x03
    5ac2:	0e 94 12 37 	call	0x6e24	; 0x6e24 <__divsf3>
    5ac6:	dc 01       	movw	r26, r24
    5ac8:	cb 01       	movw	r24, r22
    5aca:	9e 01       	movw	r18, r28
    5acc:	2e 57       	subi	r18, 0x7E	; 126
    5ace:	3f 4f       	sbci	r19, 0xFF	; 255
    5ad0:	f9 01       	movw	r30, r18
    5ad2:	80 83       	st	Z, r24
    5ad4:	91 83       	std	Z+1, r25	; 0x01
    5ad6:	a2 83       	std	Z+2, r26	; 0x02
    5ad8:	b3 83       	std	Z+3, r27	; 0x03
	#endif

	__builtin_avr_delay_cycles(__ticks_dc);

#else
	__tmp = ((F_CPU) / 4e3) * __ms;
    5ada:	8e 01       	movw	r16, r28
    5adc:	0a 57       	subi	r16, 0x7A	; 122
    5ade:	1f 4f       	sbci	r17, 0xFF	; 255
    5ae0:	ce 01       	movw	r24, r28
    5ae2:	8e 57       	subi	r24, 0x7E	; 126
    5ae4:	9f 4f       	sbci	r25, 0xFF	; 255
    5ae6:	20 e0       	ldi	r18, 0x00	; 0
    5ae8:	30 e0       	ldi	r19, 0x00	; 0
    5aea:	4a e7       	ldi	r20, 0x7A	; 122
    5aec:	55 e4       	ldi	r21, 0x45	; 69
    5aee:	fc 01       	movw	r30, r24
    5af0:	60 81       	ld	r22, Z
    5af2:	71 81       	ldd	r23, Z+1	; 0x01
    5af4:	82 81       	ldd	r24, Z+2	; 0x02
    5af6:	93 81       	ldd	r25, Z+3	; 0x03
    5af8:	0e 94 2d 36 	call	0x6c5a	; 0x6c5a <__mulsf3>
    5afc:	dc 01       	movw	r26, r24
    5afe:	cb 01       	movw	r24, r22
    5b00:	f8 01       	movw	r30, r16
    5b02:	80 83       	st	Z, r24
    5b04:	91 83       	std	Z+1, r25	; 0x01
    5b06:	a2 83       	std	Z+2, r26	; 0x02
    5b08:	b3 83       	std	Z+3, r27	; 0x03
	if (__tmp < 1.0)
    5b0a:	ce 01       	movw	r24, r28
    5b0c:	8a 57       	subi	r24, 0x7A	; 122
    5b0e:	9f 4f       	sbci	r25, 0xFF	; 255
    5b10:	20 e0       	ldi	r18, 0x00	; 0
    5b12:	30 e0       	ldi	r19, 0x00	; 0
    5b14:	40 e8       	ldi	r20, 0x80	; 128
    5b16:	5f e3       	ldi	r21, 0x3F	; 63
    5b18:	fc 01       	movw	r30, r24
    5b1a:	60 81       	ld	r22, Z
    5b1c:	71 81       	ldd	r23, Z+1	; 0x01
    5b1e:	82 81       	ldd	r24, Z+2	; 0x02
    5b20:	93 81       	ldd	r25, Z+3	; 0x03
    5b22:	0e 94 13 38 	call	0x7026	; 0x7026 <__ltsf2>
    5b26:	88 23       	and	r24, r24
    5b28:	4c f4       	brge	.+18     	; 0x5b3c <s_transstart+0xc4e>
		__ticks = 1;
    5b2a:	ce 01       	movw	r24, r28
    5b2c:	86 57       	subi	r24, 0x76	; 118
    5b2e:	9f 4f       	sbci	r25, 0xFF	; 255
    5b30:	21 e0       	ldi	r18, 0x01	; 1
    5b32:	30 e0       	ldi	r19, 0x00	; 0
    5b34:	fc 01       	movw	r30, r24
    5b36:	31 83       	std	Z+1, r19	; 0x01
    5b38:	20 83       	st	Z, r18
    5b3a:	70 c0       	rjmp	.+224    	; 0x5c1c <s_transstart+0xd2e>
	else if (__tmp > 65535)
    5b3c:	ce 01       	movw	r24, r28
    5b3e:	8a 57       	subi	r24, 0x7A	; 122
    5b40:	9f 4f       	sbci	r25, 0xFF	; 255
    5b42:	20 e0       	ldi	r18, 0x00	; 0
    5b44:	3f ef       	ldi	r19, 0xFF	; 255
    5b46:	4f e7       	ldi	r20, 0x7F	; 127
    5b48:	57 e4       	ldi	r21, 0x47	; 71
    5b4a:	fc 01       	movw	r30, r24
    5b4c:	60 81       	ld	r22, Z
    5b4e:	71 81       	ldd	r23, Z+1	; 0x01
    5b50:	82 81       	ldd	r24, Z+2	; 0x02
    5b52:	93 81       	ldd	r25, Z+3	; 0x03
    5b54:	0e 94 b5 37 	call	0x6f6a	; 0x6f6a <__gtsf2>
    5b58:	18 16       	cp	r1, r24
    5b5a:	0c f0       	brlt	.+2      	; 0x5b5e <s_transstart+0xc70>
    5b5c:	4d c0       	rjmp	.+154    	; 0x5bf8 <s_transstart+0xd0a>
	{
		//	__ticks = requested delay in 1/10 ms
		__ticks = (uint16_t) (__ms * 10.0);
    5b5e:	ce 01       	movw	r24, r28
    5b60:	8e 57       	subi	r24, 0x7E	; 126
    5b62:	9f 4f       	sbci	r25, 0xFF	; 255
    5b64:	20 e0       	ldi	r18, 0x00	; 0
    5b66:	30 e0       	ldi	r19, 0x00	; 0
    5b68:	40 e2       	ldi	r20, 0x20	; 32
    5b6a:	51 e4       	ldi	r21, 0x41	; 65
    5b6c:	fc 01       	movw	r30, r24
    5b6e:	60 81       	ld	r22, Z
    5b70:	71 81       	ldd	r23, Z+1	; 0x01
    5b72:	82 81       	ldd	r24, Z+2	; 0x02
    5b74:	93 81       	ldd	r25, Z+3	; 0x03
    5b76:	0e 94 2d 36 	call	0x6c5a	; 0x6c5a <__mulsf3>
    5b7a:	dc 01       	movw	r26, r24
    5b7c:	cb 01       	movw	r24, r22
    5b7e:	8e 01       	movw	r16, r28
    5b80:	06 57       	subi	r16, 0x76	; 118
    5b82:	1f 4f       	sbci	r17, 0xFF	; 255
    5b84:	bc 01       	movw	r22, r24
    5b86:	cd 01       	movw	r24, r26
    5b88:	0e 94 48 34 	call	0x6890	; 0x6890 <__fixunssfsi>
    5b8c:	dc 01       	movw	r26, r24
    5b8e:	cb 01       	movw	r24, r22
    5b90:	f8 01       	movw	r30, r16
    5b92:	91 83       	std	Z+1, r25	; 0x01
    5b94:	80 83       	st	Z, r24
    5b96:	27 c0       	rjmp	.+78     	; 0x5be6 <s_transstart+0xcf8>
    5b98:	ce 01       	movw	r24, r28
    5b9a:	84 57       	subi	r24, 0x74	; 116
    5b9c:	9f 4f       	sbci	r25, 0xFF	; 255
    5b9e:	20 e9       	ldi	r18, 0x90	; 144
    5ba0:	31 e0       	ldi	r19, 0x01	; 1
    5ba2:	fc 01       	movw	r30, r24
    5ba4:	31 83       	std	Z+1, r19	; 0x01
    5ba6:	20 83       	st	Z, r18
    milliseconds can be achieved.
 */
void
_delay_loop_2(uint16_t __count)
{
	__asm__ volatile (
    5ba8:	ce 01       	movw	r24, r28
    5baa:	84 57       	subi	r24, 0x74	; 116
    5bac:	9f 4f       	sbci	r25, 0xFF	; 255
    5bae:	fc 01       	movw	r30, r24
    5bb0:	80 81       	ld	r24, Z
    5bb2:	91 81       	ldd	r25, Z+1	; 0x01
    5bb4:	8c 01       	movw	r16, r24
    5bb6:	c8 01       	movw	r24, r16
    5bb8:	01 97       	sbiw	r24, 0x01	; 1
    5bba:	f1 f7       	brne	.-4      	; 0x5bb8 <s_transstart+0xcca>
    5bbc:	8c 01       	movw	r16, r24
    5bbe:	ce 01       	movw	r24, r28
    5bc0:	84 57       	subi	r24, 0x74	; 116
    5bc2:	9f 4f       	sbci	r25, 0xFF	; 255
    5bc4:	fc 01       	movw	r30, r24
    5bc6:	11 83       	std	Z+1, r17	; 0x01
    5bc8:	00 83       	st	Z, r16
		while(__ticks)
		{
			// wait 1/10 ms
			_delay_loop_2(((F_CPU) / 4e3) / 10);
			__ticks --;
    5bca:	ce 01       	movw	r24, r28
    5bcc:	86 57       	subi	r24, 0x76	; 118
    5bce:	9f 4f       	sbci	r25, 0xFF	; 255
    5bd0:	9e 01       	movw	r18, r28
    5bd2:	26 57       	subi	r18, 0x76	; 118
    5bd4:	3f 4f       	sbci	r19, 0xFF	; 255
    5bd6:	f9 01       	movw	r30, r18
    5bd8:	20 81       	ld	r18, Z
    5bda:	31 81       	ldd	r19, Z+1	; 0x01
    5bdc:	21 50       	subi	r18, 0x01	; 1
    5bde:	31 09       	sbc	r19, r1
    5be0:	fc 01       	movw	r30, r24
    5be2:	31 83       	std	Z+1, r19	; 0x01
    5be4:	20 83       	st	Z, r18
		__ticks = 1;
	else if (__tmp > 65535)
	{
		//	__ticks = requested delay in 1/10 ms
		__ticks = (uint16_t) (__ms * 10.0);
		while(__ticks)
    5be6:	ce 01       	movw	r24, r28
    5be8:	86 57       	subi	r24, 0x76	; 118
    5bea:	9f 4f       	sbci	r25, 0xFF	; 255
    5bec:	fc 01       	movw	r30, r24
    5bee:	80 81       	ld	r24, Z
    5bf0:	91 81       	ldd	r25, Z+1	; 0x01
    5bf2:	00 97       	sbiw	r24, 0x00	; 0
    5bf4:	89 f6       	brne	.-94     	; 0x5b98 <s_transstart+0xcaa>
    5bf6:	58 c0       	rjmp	.+176    	; 0x5ca8 <s_transstart+0xdba>
			__ticks --;
		}
		return;
	}
	else
		__ticks = (uint16_t)__tmp;
    5bf8:	8e 01       	movw	r16, r28
    5bfa:	06 57       	subi	r16, 0x76	; 118
    5bfc:	1f 4f       	sbci	r17, 0xFF	; 255
    5bfe:	ce 01       	movw	r24, r28
    5c00:	8a 57       	subi	r24, 0x7A	; 122
    5c02:	9f 4f       	sbci	r25, 0xFF	; 255
    5c04:	fc 01       	movw	r30, r24
    5c06:	60 81       	ld	r22, Z
    5c08:	71 81       	ldd	r23, Z+1	; 0x01
    5c0a:	82 81       	ldd	r24, Z+2	; 0x02
    5c0c:	93 81       	ldd	r25, Z+3	; 0x03
    5c0e:	0e 94 48 34 	call	0x6890	; 0x6890 <__fixunssfsi>
    5c12:	dc 01       	movw	r26, r24
    5c14:	cb 01       	movw	r24, r22
    5c16:	f8 01       	movw	r30, r16
    5c18:	91 83       	std	Z+1, r25	; 0x01
    5c1a:	80 83       	st	Z, r24
    5c1c:	ce 01       	movw	r24, r28
    5c1e:	82 57       	subi	r24, 0x72	; 114
    5c20:	9f 4f       	sbci	r25, 0xFF	; 255
    5c22:	9e 01       	movw	r18, r28
    5c24:	26 57       	subi	r18, 0x76	; 118
    5c26:	3f 4f       	sbci	r19, 0xFF	; 255
    5c28:	f9 01       	movw	r30, r18
    5c2a:	20 81       	ld	r18, Z
    5c2c:	31 81       	ldd	r19, Z+1	; 0x01
    5c2e:	fc 01       	movw	r30, r24
    5c30:	31 83       	std	Z+1, r19	; 0x01
    5c32:	20 83       	st	Z, r18
    5c34:	ce 01       	movw	r24, r28
    5c36:	82 57       	subi	r24, 0x72	; 114
    5c38:	9f 4f       	sbci	r25, 0xFF	; 255
    5c3a:	fc 01       	movw	r30, r24
    5c3c:	80 81       	ld	r24, Z
    5c3e:	91 81       	ldd	r25, Z+1	; 0x01
    5c40:	8c 01       	movw	r16, r24
    5c42:	c8 01       	movw	r24, r16
    5c44:	01 97       	sbiw	r24, 0x01	; 1
    5c46:	f1 f7       	brne	.-4      	; 0x5c44 <s_transstart+0xd56>
    5c48:	8c 01       	movw	r16, r24
    5c4a:	ce 01       	movw	r24, r28
    5c4c:	82 57       	subi	r24, 0x72	; 114
    5c4e:	9f 4f       	sbci	r25, 0xFF	; 255
    5c50:	fc 01       	movw	r30, r24
    5c52:	11 83       	std	Z+1, r17	; 0x01
    5c54:	00 83       	st	Z, r16
    5c56:	28 c0       	rjmp	.+80     	; 0x5ca8 <s_transstart+0xdba>
	{
		_delay_ms(__us / 1000.0);
		return;
	}
	else
		__ticks = (uint8_t)__tmp;
    5c58:	8e 01       	movw	r16, r28
    5c5a:	0f 57       	subi	r16, 0x7F	; 127
    5c5c:	1f 4f       	sbci	r17, 0xFF	; 255
    5c5e:	ce 01       	movw	r24, r28
    5c60:	83 58       	subi	r24, 0x83	; 131
    5c62:	9f 4f       	sbci	r25, 0xFF	; 255
    5c64:	fc 01       	movw	r30, r24
    5c66:	60 81       	ld	r22, Z
    5c68:	71 81       	ldd	r23, Z+1	; 0x01
    5c6a:	82 81       	ldd	r24, Z+2	; 0x02
    5c6c:	93 81       	ldd	r25, Z+3	; 0x03
    5c6e:	0e 94 48 34 	call	0x6890	; 0x6890 <__fixunssfsi>
    5c72:	dc 01       	movw	r26, r24
    5c74:	cb 01       	movw	r24, r22
    5c76:	f8 01       	movw	r30, r16
    5c78:	80 83       	st	Z, r24
    5c7a:	ce 01       	movw	r24, r28
    5c7c:	80 57       	subi	r24, 0x70	; 112
    5c7e:	9f 4f       	sbci	r25, 0xFF	; 255
    5c80:	9e 01       	movw	r18, r28
    5c82:	2f 57       	subi	r18, 0x7F	; 127
    5c84:	3f 4f       	sbci	r19, 0xFF	; 255
    5c86:	f9 01       	movw	r30, r18
    5c88:	20 81       	ld	r18, Z
    5c8a:	fc 01       	movw	r30, r24
    5c8c:	20 83       	st	Z, r18
    can be achieved.
*/
void
_delay_loop_1(uint8_t __count)
{
	__asm__ volatile (
    5c8e:	ce 01       	movw	r24, r28
    5c90:	80 57       	subi	r24, 0x70	; 112
    5c92:	9f 4f       	sbci	r25, 0xFF	; 255
    5c94:	fc 01       	movw	r30, r24
    5c96:	80 81       	ld	r24, Z
    5c98:	18 2f       	mov	r17, r24
    5c9a:	1a 95       	dec	r17
    5c9c:	f1 f7       	brne	.-4      	; 0x5c9a <s_transstart+0xdac>
    5c9e:	ce 01       	movw	r24, r28
    5ca0:	80 57       	subi	r24, 0x70	; 112
    5ca2:	9f 4f       	sbci	r25, 0xFF	; 255
    5ca4:	fc 01       	movw	r30, r24
    5ca6:	10 83       	st	Z, r17
	_delay_us(3);
	SHT_SCK_0;
    5ca8:	82 e6       	ldi	r24, 0x62	; 98
    5caa:	90 e0       	ldi	r25, 0x00	; 0
    5cac:	22 e6       	ldi	r18, 0x62	; 98
    5cae:	30 e0       	ldi	r19, 0x00	; 0
    5cb0:	f9 01       	movw	r30, r18
    5cb2:	20 81       	ld	r18, Z
    5cb4:	2d 7f       	andi	r18, 0xFD	; 253
    5cb6:	fc 01       	movw	r30, r24
    5cb8:	20 83       	st	Z, r18
}
    5cba:	c0 57       	subi	r28, 0x70	; 112
    5cbc:	df 4f       	sbci	r29, 0xFF	; 255
    5cbe:	0f b6       	in	r0, 0x3f	; 63
    5cc0:	f8 94       	cli
    5cc2:	de bf       	out	0x3e, r29	; 62
    5cc4:	0f be       	out	0x3f, r0	; 63
    5cc6:	cd bf       	out	0x3d, r28	; 61
    5cc8:	df 91       	pop	r29
    5cca:	cf 91       	pop	r28
    5ccc:	1f 91       	pop	r17
    5cce:	0f 91       	pop	r16
    5cd0:	08 95       	ret

00005cd2 <s_connectionreset>:

void  s_connectionreset(void)
{
    5cd2:	0f 93       	push	r16
    5cd4:	1f 93       	push	r17
    5cd6:	cf 93       	push	r28
    5cd8:	df 93       	push	r29
    5cda:	cd b7       	in	r28, 0x3d	; 61
    5cdc:	de b7       	in	r29, 0x3e	; 62
    5cde:	e1 97       	sbiw	r28, 0x31	; 49
    5ce0:	0f b6       	in	r0, 0x3f	; 63
    5ce2:	f8 94       	cli
    5ce4:	de bf       	out	0x3e, r29	; 62
    5ce6:	0f be       	out	0x3f, r0	; 63
    5ce8:	cd bf       	out	0x3d, r28	; 61
	unsigned char i;

	DATAOUT; 
    5cea:	81 e6       	ldi	r24, 0x61	; 97
    5cec:	90 e0       	ldi	r25, 0x00	; 0
    5cee:	21 e6       	ldi	r18, 0x61	; 97
    5cf0:	30 e0       	ldi	r19, 0x00	; 0
    5cf2:	f9 01       	movw	r30, r18
    5cf4:	20 81       	ld	r18, Z
    5cf6:	21 60       	ori	r18, 0x01	; 1
    5cf8:	fc 01       	movw	r30, r24
    5cfa:	20 83       	st	Z, r18
	SHTOUT;
    5cfc:	81 e6       	ldi	r24, 0x61	; 97
    5cfe:	90 e0       	ldi	r25, 0x00	; 0
    5d00:	21 e6       	ldi	r18, 0x61	; 97
    5d02:	30 e0       	ldi	r19, 0x00	; 0
    5d04:	f9 01       	movw	r30, r18
    5d06:	20 81       	ld	r18, Z
    5d08:	22 60       	ori	r18, 0x02	; 2
    5d0a:	fc 01       	movw	r30, r24
    5d0c:	20 83       	st	Z, r18
	DATA_OUT_1; 
    5d0e:	82 e6       	ldi	r24, 0x62	; 98
    5d10:	90 e0       	ldi	r25, 0x00	; 0
    5d12:	22 e6       	ldi	r18, 0x62	; 98
    5d14:	30 e0       	ldi	r19, 0x00	; 0
    5d16:	f9 01       	movw	r30, r18
    5d18:	20 81       	ld	r18, Z
    5d1a:	21 60       	ori	r18, 0x01	; 1
    5d1c:	fc 01       	movw	r30, r24
    5d1e:	20 83       	st	Z, r18
	SHT_SCK_0; 
    5d20:	82 e6       	ldi	r24, 0x62	; 98
    5d22:	90 e0       	ldi	r25, 0x00	; 0
    5d24:	22 e6       	ldi	r18, 0x62	; 98
    5d26:	30 e0       	ldi	r19, 0x00	; 0
    5d28:	f9 01       	movw	r30, r18
    5d2a:	20 81       	ld	r18, Z
    5d2c:	2d 7f       	andi	r18, 0xFD	; 253
    5d2e:	fc 01       	movw	r30, r24
    5d30:	20 83       	st	Z, r18

	for(i=0; i<9; i++) 	
    5d32:	19 82       	std	Y+1, r1	; 0x01
    5d34:	9f c1       	rjmp	.+830    	; 0x6074 <s_connectionreset+0x3a2>
	{ 
		SHT_SCK_1;
    5d36:	82 e6       	ldi	r24, 0x62	; 98
    5d38:	90 e0       	ldi	r25, 0x00	; 0
    5d3a:	22 e6       	ldi	r18, 0x62	; 98
    5d3c:	30 e0       	ldi	r19, 0x00	; 0
    5d3e:	f9 01       	movw	r30, r18
    5d40:	20 81       	ld	r18, Z
    5d42:	22 60       	ori	r18, 0x02	; 2
    5d44:	fc 01       	movw	r30, r24
    5d46:	20 83       	st	Z, r18
    5d48:	80 e0       	ldi	r24, 0x00	; 0
    5d4a:	90 e0       	ldi	r25, 0x00	; 0
    5d4c:	a0 e4       	ldi	r26, 0x40	; 64
    5d4e:	b0 e4       	ldi	r27, 0x40	; 64
    5d50:	8a 83       	std	Y+2, r24	; 0x02
    5d52:	9b 83       	std	Y+3, r25	; 0x03
    5d54:	ac 83       	std	Y+4, r26	; 0x04
    5d56:	bd 83       	std	Y+5, r27	; 0x05
	#endif

	__builtin_avr_delay_cycles(__ticks_dc);

#else
	__tmp = ((F_CPU) / 3e6) * __us;
    5d58:	2b ea       	ldi	r18, 0xAB	; 171
    5d5a:	3a ea       	ldi	r19, 0xAA	; 170
    5d5c:	4a ea       	ldi	r20, 0xAA	; 170
    5d5e:	50 e4       	ldi	r21, 0x40	; 64
    5d60:	6a 81       	ldd	r22, Y+2	; 0x02
    5d62:	7b 81       	ldd	r23, Y+3	; 0x03
    5d64:	8c 81       	ldd	r24, Y+4	; 0x04
    5d66:	9d 81       	ldd	r25, Y+5	; 0x05
    5d68:	0e 94 2d 36 	call	0x6c5a	; 0x6c5a <__mulsf3>
    5d6c:	dc 01       	movw	r26, r24
    5d6e:	cb 01       	movw	r24, r22
    5d70:	8e 83       	std	Y+6, r24	; 0x06
    5d72:	9f 83       	std	Y+7, r25	; 0x07
    5d74:	a8 87       	std	Y+8, r26	; 0x08
    5d76:	b9 87       	std	Y+9, r27	; 0x09
	if (__tmp < 1.0)
    5d78:	20 e0       	ldi	r18, 0x00	; 0
    5d7a:	30 e0       	ldi	r19, 0x00	; 0
    5d7c:	40 e8       	ldi	r20, 0x80	; 128
    5d7e:	5f e3       	ldi	r21, 0x3F	; 63
    5d80:	6e 81       	ldd	r22, Y+6	; 0x06
    5d82:	7f 81       	ldd	r23, Y+7	; 0x07
    5d84:	88 85       	ldd	r24, Y+8	; 0x08
    5d86:	99 85       	ldd	r25, Y+9	; 0x09
    5d88:	0e 94 13 38 	call	0x7026	; 0x7026 <__ltsf2>
    5d8c:	88 23       	and	r24, r24
    5d8e:	1c f4       	brge	.+6      	; 0x5d96 <s_connectionreset+0xc4>
		__ticks = 1;
    5d90:	81 e0       	ldi	r24, 0x01	; 1
    5d92:	8a 87       	std	Y+10, r24	; 0x0a
    5d94:	97 c0       	rjmp	.+302    	; 0x5ec4 <s_connectionreset+0x1f2>
	else if (__tmp > 255)
    5d96:	20 e0       	ldi	r18, 0x00	; 0
    5d98:	30 e0       	ldi	r19, 0x00	; 0
    5d9a:	4f e7       	ldi	r20, 0x7F	; 127
    5d9c:	53 e4       	ldi	r21, 0x43	; 67
    5d9e:	6e 81       	ldd	r22, Y+6	; 0x06
    5da0:	7f 81       	ldd	r23, Y+7	; 0x07
    5da2:	88 85       	ldd	r24, Y+8	; 0x08
    5da4:	99 85       	ldd	r25, Y+9	; 0x09
    5da6:	0e 94 b5 37 	call	0x6f6a	; 0x6f6a <__gtsf2>
    5daa:	18 16       	cp	r1, r24
    5dac:	0c f0       	brlt	.+2      	; 0x5db0 <s_connectionreset+0xde>
    5dae:	81 c0       	rjmp	.+258    	; 0x5eb2 <s_connectionreset+0x1e0>
	{
		_delay_ms(__us / 1000.0);
    5db0:	20 e0       	ldi	r18, 0x00	; 0
    5db2:	30 e0       	ldi	r19, 0x00	; 0
    5db4:	4a e7       	ldi	r20, 0x7A	; 122
    5db6:	54 e4       	ldi	r21, 0x44	; 68
    5db8:	6a 81       	ldd	r22, Y+2	; 0x02
    5dba:	7b 81       	ldd	r23, Y+3	; 0x03
    5dbc:	8c 81       	ldd	r24, Y+4	; 0x04
    5dbe:	9d 81       	ldd	r25, Y+5	; 0x05
    5dc0:	0e 94 12 37 	call	0x6e24	; 0x6e24 <__divsf3>
    5dc4:	dc 01       	movw	r26, r24
    5dc6:	cb 01       	movw	r24, r22
    5dc8:	8b 87       	std	Y+11, r24	; 0x0b
    5dca:	9c 87       	std	Y+12, r25	; 0x0c
    5dcc:	ad 87       	std	Y+13, r26	; 0x0d
    5dce:	be 87       	std	Y+14, r27	; 0x0e
	#endif

	__builtin_avr_delay_cycles(__ticks_dc);

#else
	__tmp = ((F_CPU) / 4e3) * __ms;
    5dd0:	20 e0       	ldi	r18, 0x00	; 0
    5dd2:	30 e0       	ldi	r19, 0x00	; 0
    5dd4:	4a e7       	ldi	r20, 0x7A	; 122
    5dd6:	55 e4       	ldi	r21, 0x45	; 69
    5dd8:	6b 85       	ldd	r22, Y+11	; 0x0b
    5dda:	7c 85       	ldd	r23, Y+12	; 0x0c
    5ddc:	8d 85       	ldd	r24, Y+13	; 0x0d
    5dde:	9e 85       	ldd	r25, Y+14	; 0x0e
    5de0:	0e 94 2d 36 	call	0x6c5a	; 0x6c5a <__mulsf3>
    5de4:	dc 01       	movw	r26, r24
    5de6:	cb 01       	movw	r24, r22
    5de8:	8f 87       	std	Y+15, r24	; 0x0f
    5dea:	98 8b       	std	Y+16, r25	; 0x10
    5dec:	a9 8b       	std	Y+17, r26	; 0x11
    5dee:	ba 8b       	std	Y+18, r27	; 0x12
	if (__tmp < 1.0)
    5df0:	20 e0       	ldi	r18, 0x00	; 0
    5df2:	30 e0       	ldi	r19, 0x00	; 0
    5df4:	40 e8       	ldi	r20, 0x80	; 128
    5df6:	5f e3       	ldi	r21, 0x3F	; 63
    5df8:	6f 85       	ldd	r22, Y+15	; 0x0f
    5dfa:	78 89       	ldd	r23, Y+16	; 0x10
    5dfc:	89 89       	ldd	r24, Y+17	; 0x11
    5dfe:	9a 89       	ldd	r25, Y+18	; 0x12
    5e00:	0e 94 13 38 	call	0x7026	; 0x7026 <__ltsf2>
    5e04:	88 23       	and	r24, r24
    5e06:	2c f4       	brge	.+10     	; 0x5e12 <s_connectionreset+0x140>
		__ticks = 1;
    5e08:	81 e0       	ldi	r24, 0x01	; 1
    5e0a:	90 e0       	ldi	r25, 0x00	; 0
    5e0c:	9c 8b       	std	Y+20, r25	; 0x14
    5e0e:	8b 8b       	std	Y+19, r24	; 0x13
    5e10:	42 c0       	rjmp	.+132    	; 0x5e96 <s_connectionreset+0x1c4>
	else if (__tmp > 65535)
    5e12:	20 e0       	ldi	r18, 0x00	; 0
    5e14:	3f ef       	ldi	r19, 0xFF	; 255
    5e16:	4f e7       	ldi	r20, 0x7F	; 127
    5e18:	57 e4       	ldi	r21, 0x47	; 71
    5e1a:	6f 85       	ldd	r22, Y+15	; 0x0f
    5e1c:	78 89       	ldd	r23, Y+16	; 0x10
    5e1e:	89 89       	ldd	r24, Y+17	; 0x11
    5e20:	9a 89       	ldd	r25, Y+18	; 0x12
    5e22:	0e 94 b5 37 	call	0x6f6a	; 0x6f6a <__gtsf2>
    5e26:	18 16       	cp	r1, r24
    5e28:	64 f5       	brge	.+88     	; 0x5e82 <s_connectionreset+0x1b0>
	{
		//	__ticks = requested delay in 1/10 ms
		__ticks = (uint16_t) (__ms * 10.0);
    5e2a:	20 e0       	ldi	r18, 0x00	; 0
    5e2c:	30 e0       	ldi	r19, 0x00	; 0
    5e2e:	40 e2       	ldi	r20, 0x20	; 32
    5e30:	51 e4       	ldi	r21, 0x41	; 65
    5e32:	6b 85       	ldd	r22, Y+11	; 0x0b
    5e34:	7c 85       	ldd	r23, Y+12	; 0x0c
    5e36:	8d 85       	ldd	r24, Y+13	; 0x0d
    5e38:	9e 85       	ldd	r25, Y+14	; 0x0e
    5e3a:	0e 94 2d 36 	call	0x6c5a	; 0x6c5a <__mulsf3>
    5e3e:	dc 01       	movw	r26, r24
    5e40:	cb 01       	movw	r24, r22
    5e42:	bc 01       	movw	r22, r24
    5e44:	cd 01       	movw	r24, r26
    5e46:	0e 94 48 34 	call	0x6890	; 0x6890 <__fixunssfsi>
    5e4a:	dc 01       	movw	r26, r24
    5e4c:	cb 01       	movw	r24, r22
    5e4e:	9c 8b       	std	Y+20, r25	; 0x14
    5e50:	8b 8b       	std	Y+19, r24	; 0x13
    5e52:	12 c0       	rjmp	.+36     	; 0x5e78 <s_connectionreset+0x1a6>
    5e54:	80 e9       	ldi	r24, 0x90	; 144
    5e56:	91 e0       	ldi	r25, 0x01	; 1
    5e58:	9e 8b       	std	Y+22, r25	; 0x16
    5e5a:	8d 8b       	std	Y+21, r24	; 0x15
    milliseconds can be achieved.
 */
void
_delay_loop_2(uint16_t __count)
{
	__asm__ volatile (
    5e5c:	8d 89       	ldd	r24, Y+21	; 0x15
    5e5e:	9e 89       	ldd	r25, Y+22	; 0x16
    5e60:	8c 01       	movw	r16, r24
    5e62:	c8 01       	movw	r24, r16
    5e64:	01 97       	sbiw	r24, 0x01	; 1
    5e66:	f1 f7       	brne	.-4      	; 0x5e64 <s_connectionreset+0x192>
    5e68:	8c 01       	movw	r16, r24
    5e6a:	1e 8b       	std	Y+22, r17	; 0x16
    5e6c:	0d 8b       	std	Y+21, r16	; 0x15
		while(__ticks)
		{
			// wait 1/10 ms
			_delay_loop_2(((F_CPU) / 4e3) / 10);
			__ticks --;
    5e6e:	8b 89       	ldd	r24, Y+19	; 0x13
    5e70:	9c 89       	ldd	r25, Y+20	; 0x14
    5e72:	01 97       	sbiw	r24, 0x01	; 1
    5e74:	9c 8b       	std	Y+20, r25	; 0x14
    5e76:	8b 8b       	std	Y+19, r24	; 0x13
		__ticks = 1;
	else if (__tmp > 65535)
	{
		//	__ticks = requested delay in 1/10 ms
		__ticks = (uint16_t) (__ms * 10.0);
		while(__ticks)
    5e78:	8b 89       	ldd	r24, Y+19	; 0x13
    5e7a:	9c 89       	ldd	r25, Y+20	; 0x14
    5e7c:	00 97       	sbiw	r24, 0x00	; 0
    5e7e:	51 f7       	brne	.-44     	; 0x5e54 <s_connectionreset+0x182>
    5e80:	28 c0       	rjmp	.+80     	; 0x5ed2 <s_connectionreset+0x200>
			__ticks --;
		}
		return;
	}
	else
		__ticks = (uint16_t)__tmp;
    5e82:	6f 85       	ldd	r22, Y+15	; 0x0f
    5e84:	78 89       	ldd	r23, Y+16	; 0x10
    5e86:	89 89       	ldd	r24, Y+17	; 0x11
    5e88:	9a 89       	ldd	r25, Y+18	; 0x12
    5e8a:	0e 94 48 34 	call	0x6890	; 0x6890 <__fixunssfsi>
    5e8e:	dc 01       	movw	r26, r24
    5e90:	cb 01       	movw	r24, r22
    5e92:	9c 8b       	std	Y+20, r25	; 0x14
    5e94:	8b 8b       	std	Y+19, r24	; 0x13
    5e96:	8b 89       	ldd	r24, Y+19	; 0x13
    5e98:	9c 89       	ldd	r25, Y+20	; 0x14
    5e9a:	98 8f       	std	Y+24, r25	; 0x18
    5e9c:	8f 8b       	std	Y+23, r24	; 0x17
    5e9e:	8f 89       	ldd	r24, Y+23	; 0x17
    5ea0:	98 8d       	ldd	r25, Y+24	; 0x18
    5ea2:	8c 01       	movw	r16, r24
    5ea4:	f8 01       	movw	r30, r16
    5ea6:	31 97       	sbiw	r30, 0x01	; 1
    5ea8:	f1 f7       	brne	.-4      	; 0x5ea6 <s_connectionreset+0x1d4>
    5eaa:	8f 01       	movw	r16, r30
    5eac:	18 8f       	std	Y+24, r17	; 0x18
    5eae:	0f 8b       	std	Y+23, r16	; 0x17
    5eb0:	10 c0       	rjmp	.+32     	; 0x5ed2 <s_connectionreset+0x200>
	{
		_delay_ms(__us / 1000.0);
		return;
	}
	else
		__ticks = (uint8_t)__tmp;
    5eb2:	6e 81       	ldd	r22, Y+6	; 0x06
    5eb4:	7f 81       	ldd	r23, Y+7	; 0x07
    5eb6:	88 85       	ldd	r24, Y+8	; 0x08
    5eb8:	99 85       	ldd	r25, Y+9	; 0x09
    5eba:	0e 94 48 34 	call	0x6890	; 0x6890 <__fixunssfsi>
    5ebe:	dc 01       	movw	r26, r24
    5ec0:	cb 01       	movw	r24, r22
    5ec2:	8a 87       	std	Y+10, r24	; 0x0a
    5ec4:	8a 85       	ldd	r24, Y+10	; 0x0a
    5ec6:	89 8f       	std	Y+25, r24	; 0x19
    can be achieved.
*/
void
_delay_loop_1(uint8_t __count)
{
	__asm__ volatile (
    5ec8:	89 8d       	ldd	r24, Y+25	; 0x19
    5eca:	18 2f       	mov	r17, r24
    5ecc:	1a 95       	dec	r17
    5ece:	f1 f7       	brne	.-4      	; 0x5ecc <s_connectionreset+0x1fa>
    5ed0:	19 8f       	std	Y+25, r17	; 0x19
		_delay_us(3);
		SHT_SCK_0;
    5ed2:	82 e6       	ldi	r24, 0x62	; 98
    5ed4:	90 e0       	ldi	r25, 0x00	; 0
    5ed6:	22 e6       	ldi	r18, 0x62	; 98
    5ed8:	30 e0       	ldi	r19, 0x00	; 0
    5eda:	f9 01       	movw	r30, r18
    5edc:	20 81       	ld	r18, Z
    5ede:	2d 7f       	andi	r18, 0xFD	; 253
    5ee0:	fc 01       	movw	r30, r24
    5ee2:	20 83       	st	Z, r18
    5ee4:	80 e0       	ldi	r24, 0x00	; 0
    5ee6:	90 e0       	ldi	r25, 0x00	; 0
    5ee8:	a0 e4       	ldi	r26, 0x40	; 64
    5eea:	b0 e4       	ldi	r27, 0x40	; 64
    5eec:	8a 8f       	std	Y+26, r24	; 0x1a
    5eee:	9b 8f       	std	Y+27, r25	; 0x1b
    5ef0:	ac 8f       	std	Y+28, r26	; 0x1c
    5ef2:	bd 8f       	std	Y+29, r27	; 0x1d
	#endif

	__builtin_avr_delay_cycles(__ticks_dc);

#else
	__tmp = ((F_CPU) / 3e6) * __us;
    5ef4:	2b ea       	ldi	r18, 0xAB	; 171
    5ef6:	3a ea       	ldi	r19, 0xAA	; 170
    5ef8:	4a ea       	ldi	r20, 0xAA	; 170
    5efa:	50 e4       	ldi	r21, 0x40	; 64
    5efc:	6a 8d       	ldd	r22, Y+26	; 0x1a
    5efe:	7b 8d       	ldd	r23, Y+27	; 0x1b
    5f00:	8c 8d       	ldd	r24, Y+28	; 0x1c
    5f02:	9d 8d       	ldd	r25, Y+29	; 0x1d
    5f04:	0e 94 2d 36 	call	0x6c5a	; 0x6c5a <__mulsf3>
    5f08:	dc 01       	movw	r26, r24
    5f0a:	cb 01       	movw	r24, r22
    5f0c:	8e 8f       	std	Y+30, r24	; 0x1e
    5f0e:	9f 8f       	std	Y+31, r25	; 0x1f
    5f10:	a8 a3       	std	Y+32, r26	; 0x20
    5f12:	b9 a3       	std	Y+33, r27	; 0x21
	if (__tmp < 1.0)
    5f14:	20 e0       	ldi	r18, 0x00	; 0
    5f16:	30 e0       	ldi	r19, 0x00	; 0
    5f18:	40 e8       	ldi	r20, 0x80	; 128
    5f1a:	5f e3       	ldi	r21, 0x3F	; 63
    5f1c:	6e 8d       	ldd	r22, Y+30	; 0x1e
    5f1e:	7f 8d       	ldd	r23, Y+31	; 0x1f
    5f20:	88 a1       	ldd	r24, Y+32	; 0x20
    5f22:	99 a1       	ldd	r25, Y+33	; 0x21
    5f24:	0e 94 13 38 	call	0x7026	; 0x7026 <__ltsf2>
    5f28:	88 23       	and	r24, r24
    5f2a:	1c f4       	brge	.+6      	; 0x5f32 <s_connectionreset+0x260>
		__ticks = 1;
    5f2c:	81 e0       	ldi	r24, 0x01	; 1
    5f2e:	8a a3       	std	Y+34, r24	; 0x22
    5f30:	97 c0       	rjmp	.+302    	; 0x6060 <s_connectionreset+0x38e>
	else if (__tmp > 255)
    5f32:	20 e0       	ldi	r18, 0x00	; 0
    5f34:	30 e0       	ldi	r19, 0x00	; 0
    5f36:	4f e7       	ldi	r20, 0x7F	; 127
    5f38:	53 e4       	ldi	r21, 0x43	; 67
    5f3a:	6e 8d       	ldd	r22, Y+30	; 0x1e
    5f3c:	7f 8d       	ldd	r23, Y+31	; 0x1f
    5f3e:	88 a1       	ldd	r24, Y+32	; 0x20
    5f40:	99 a1       	ldd	r25, Y+33	; 0x21
    5f42:	0e 94 b5 37 	call	0x6f6a	; 0x6f6a <__gtsf2>
    5f46:	18 16       	cp	r1, r24
    5f48:	0c f0       	brlt	.+2      	; 0x5f4c <s_connectionreset+0x27a>
    5f4a:	81 c0       	rjmp	.+258    	; 0x604e <s_connectionreset+0x37c>
	{
		_delay_ms(__us / 1000.0);
    5f4c:	20 e0       	ldi	r18, 0x00	; 0
    5f4e:	30 e0       	ldi	r19, 0x00	; 0
    5f50:	4a e7       	ldi	r20, 0x7A	; 122
    5f52:	54 e4       	ldi	r21, 0x44	; 68
    5f54:	6a 8d       	ldd	r22, Y+26	; 0x1a
    5f56:	7b 8d       	ldd	r23, Y+27	; 0x1b
    5f58:	8c 8d       	ldd	r24, Y+28	; 0x1c
    5f5a:	9d 8d       	ldd	r25, Y+29	; 0x1d
    5f5c:	0e 94 12 37 	call	0x6e24	; 0x6e24 <__divsf3>
    5f60:	dc 01       	movw	r26, r24
    5f62:	cb 01       	movw	r24, r22
    5f64:	8b a3       	std	Y+35, r24	; 0x23
    5f66:	9c a3       	std	Y+36, r25	; 0x24
    5f68:	ad a3       	std	Y+37, r26	; 0x25
    5f6a:	be a3       	std	Y+38, r27	; 0x26
	#endif

	__builtin_avr_delay_cycles(__ticks_dc);

#else
	__tmp = ((F_CPU) / 4e3) * __ms;
    5f6c:	20 e0       	ldi	r18, 0x00	; 0
    5f6e:	30 e0       	ldi	r19, 0x00	; 0
    5f70:	4a e7       	ldi	r20, 0x7A	; 122
    5f72:	55 e4       	ldi	r21, 0x45	; 69
    5f74:	6b a1       	ldd	r22, Y+35	; 0x23
    5f76:	7c a1       	ldd	r23, Y+36	; 0x24
    5f78:	8d a1       	ldd	r24, Y+37	; 0x25
    5f7a:	9e a1       	ldd	r25, Y+38	; 0x26
    5f7c:	0e 94 2d 36 	call	0x6c5a	; 0x6c5a <__mulsf3>
    5f80:	dc 01       	movw	r26, r24
    5f82:	cb 01       	movw	r24, r22
    5f84:	8f a3       	std	Y+39, r24	; 0x27
    5f86:	98 a7       	std	Y+40, r25	; 0x28
    5f88:	a9 a7       	std	Y+41, r26	; 0x29
    5f8a:	ba a7       	std	Y+42, r27	; 0x2a
	if (__tmp < 1.0)
    5f8c:	20 e0       	ldi	r18, 0x00	; 0
    5f8e:	30 e0       	ldi	r19, 0x00	; 0
    5f90:	40 e8       	ldi	r20, 0x80	; 128
    5f92:	5f e3       	ldi	r21, 0x3F	; 63
    5f94:	6f a1       	ldd	r22, Y+39	; 0x27
    5f96:	78 a5       	ldd	r23, Y+40	; 0x28
    5f98:	89 a5       	ldd	r24, Y+41	; 0x29
    5f9a:	9a a5       	ldd	r25, Y+42	; 0x2a
    5f9c:	0e 94 13 38 	call	0x7026	; 0x7026 <__ltsf2>
    5fa0:	88 23       	and	r24, r24
    5fa2:	2c f4       	brge	.+10     	; 0x5fae <s_connectionreset+0x2dc>
		__ticks = 1;
    5fa4:	81 e0       	ldi	r24, 0x01	; 1
    5fa6:	90 e0       	ldi	r25, 0x00	; 0
    5fa8:	9c a7       	std	Y+44, r25	; 0x2c
    5faa:	8b a7       	std	Y+43, r24	; 0x2b
    5fac:	42 c0       	rjmp	.+132    	; 0x6032 <s_connectionreset+0x360>
	else if (__tmp > 65535)
    5fae:	20 e0       	ldi	r18, 0x00	; 0
    5fb0:	3f ef       	ldi	r19, 0xFF	; 255
    5fb2:	4f e7       	ldi	r20, 0x7F	; 127
    5fb4:	57 e4       	ldi	r21, 0x47	; 71
    5fb6:	6f a1       	ldd	r22, Y+39	; 0x27
    5fb8:	78 a5       	ldd	r23, Y+40	; 0x28
    5fba:	89 a5       	ldd	r24, Y+41	; 0x29
    5fbc:	9a a5       	ldd	r25, Y+42	; 0x2a
    5fbe:	0e 94 b5 37 	call	0x6f6a	; 0x6f6a <__gtsf2>
    5fc2:	18 16       	cp	r1, r24
    5fc4:	64 f5       	brge	.+88     	; 0x601e <s_connectionreset+0x34c>
	{
		//	__ticks = requested delay in 1/10 ms
		__ticks = (uint16_t) (__ms * 10.0);
    5fc6:	20 e0       	ldi	r18, 0x00	; 0
    5fc8:	30 e0       	ldi	r19, 0x00	; 0
    5fca:	40 e2       	ldi	r20, 0x20	; 32
    5fcc:	51 e4       	ldi	r21, 0x41	; 65
    5fce:	6b a1       	ldd	r22, Y+35	; 0x23
    5fd0:	7c a1       	ldd	r23, Y+36	; 0x24
    5fd2:	8d a1       	ldd	r24, Y+37	; 0x25
    5fd4:	9e a1       	ldd	r25, Y+38	; 0x26
    5fd6:	0e 94 2d 36 	call	0x6c5a	; 0x6c5a <__mulsf3>
    5fda:	dc 01       	movw	r26, r24
    5fdc:	cb 01       	movw	r24, r22
    5fde:	bc 01       	movw	r22, r24
    5fe0:	cd 01       	movw	r24, r26
    5fe2:	0e 94 48 34 	call	0x6890	; 0x6890 <__fixunssfsi>
    5fe6:	dc 01       	movw	r26, r24
    5fe8:	cb 01       	movw	r24, r22
    5fea:	9c a7       	std	Y+44, r25	; 0x2c
    5fec:	8b a7       	std	Y+43, r24	; 0x2b
    5fee:	12 c0       	rjmp	.+36     	; 0x6014 <s_connectionreset+0x342>
    5ff0:	80 e9       	ldi	r24, 0x90	; 144
    5ff2:	91 e0       	ldi	r25, 0x01	; 1
    5ff4:	9e a7       	std	Y+46, r25	; 0x2e
    5ff6:	8d a7       	std	Y+45, r24	; 0x2d
    milliseconds can be achieved.
 */
void
_delay_loop_2(uint16_t __count)
{
	__asm__ volatile (
    5ff8:	8d a5       	ldd	r24, Y+45	; 0x2d
    5ffa:	9e a5       	ldd	r25, Y+46	; 0x2e
    5ffc:	8c 01       	movw	r16, r24
    5ffe:	c8 01       	movw	r24, r16
    6000:	01 97       	sbiw	r24, 0x01	; 1
    6002:	f1 f7       	brne	.-4      	; 0x6000 <s_connectionreset+0x32e>
    6004:	8c 01       	movw	r16, r24
    6006:	1e a7       	std	Y+46, r17	; 0x2e
    6008:	0d a7       	std	Y+45, r16	; 0x2d
		while(__ticks)
		{
			// wait 1/10 ms
			_delay_loop_2(((F_CPU) / 4e3) / 10);
			__ticks --;
    600a:	8b a5       	ldd	r24, Y+43	; 0x2b
    600c:	9c a5       	ldd	r25, Y+44	; 0x2c
    600e:	01 97       	sbiw	r24, 0x01	; 1
    6010:	9c a7       	std	Y+44, r25	; 0x2c
    6012:	8b a7       	std	Y+43, r24	; 0x2b
		__ticks = 1;
	else if (__tmp > 65535)
	{
		//	__ticks = requested delay in 1/10 ms
		__ticks = (uint16_t) (__ms * 10.0);
		while(__ticks)
    6014:	8b a5       	ldd	r24, Y+43	; 0x2b
    6016:	9c a5       	ldd	r25, Y+44	; 0x2c
    6018:	00 97       	sbiw	r24, 0x00	; 0
    601a:	51 f7       	brne	.-44     	; 0x5ff0 <s_connectionreset+0x31e>
    601c:	28 c0       	rjmp	.+80     	; 0x606e <s_connectionreset+0x39c>
			__ticks --;
		}
		return;
	}
	else
		__ticks = (uint16_t)__tmp;
    601e:	6f a1       	ldd	r22, Y+39	; 0x27
    6020:	78 a5       	ldd	r23, Y+40	; 0x28
    6022:	89 a5       	ldd	r24, Y+41	; 0x29
    6024:	9a a5       	ldd	r25, Y+42	; 0x2a
    6026:	0e 94 48 34 	call	0x6890	; 0x6890 <__fixunssfsi>
    602a:	dc 01       	movw	r26, r24
    602c:	cb 01       	movw	r24, r22
    602e:	9c a7       	std	Y+44, r25	; 0x2c
    6030:	8b a7       	std	Y+43, r24	; 0x2b
    6032:	8b a5       	ldd	r24, Y+43	; 0x2b
    6034:	9c a5       	ldd	r25, Y+44	; 0x2c
    6036:	98 ab       	std	Y+48, r25	; 0x30
    6038:	8f a7       	std	Y+47, r24	; 0x2f
    603a:	8f a5       	ldd	r24, Y+47	; 0x2f
    603c:	98 a9       	ldd	r25, Y+48	; 0x30
    603e:	8c 01       	movw	r16, r24
    6040:	f8 01       	movw	r30, r16
    6042:	31 97       	sbiw	r30, 0x01	; 1
    6044:	f1 f7       	brne	.-4      	; 0x6042 <s_connectionreset+0x370>
    6046:	8f 01       	movw	r16, r30
    6048:	18 ab       	std	Y+48, r17	; 0x30
    604a:	0f a7       	std	Y+47, r16	; 0x2f
    604c:	10 c0       	rjmp	.+32     	; 0x606e <s_connectionreset+0x39c>
	{
		_delay_ms(__us / 1000.0);
		return;
	}
	else
		__ticks = (uint8_t)__tmp;
    604e:	6e 8d       	ldd	r22, Y+30	; 0x1e
    6050:	7f 8d       	ldd	r23, Y+31	; 0x1f
    6052:	88 a1       	ldd	r24, Y+32	; 0x20
    6054:	99 a1       	ldd	r25, Y+33	; 0x21
    6056:	0e 94 48 34 	call	0x6890	; 0x6890 <__fixunssfsi>
    605a:	dc 01       	movw	r26, r24
    605c:	cb 01       	movw	r24, r22
    605e:	8a a3       	std	Y+34, r24	; 0x22
    6060:	8a a1       	ldd	r24, Y+34	; 0x22
    6062:	89 ab       	std	Y+49, r24	; 0x31
    can be achieved.
*/
void
_delay_loop_1(uint8_t __count)
{
	__asm__ volatile (
    6064:	89 a9       	ldd	r24, Y+49	; 0x31
    6066:	18 2f       	mov	r17, r24
    6068:	1a 95       	dec	r17
    606a:	f1 f7       	brne	.-4      	; 0x6068 <s_connectionreset+0x396>
    606c:	19 ab       	std	Y+49, r17	; 0x31
	DATAOUT; 
	SHTOUT;
	DATA_OUT_1; 
	SHT_SCK_0; 

	for(i=0; i<9; i++) 	
    606e:	89 81       	ldd	r24, Y+1	; 0x01
    6070:	8f 5f       	subi	r24, 0xFF	; 255
    6072:	89 83       	std	Y+1, r24	; 0x01
    6074:	89 81       	ldd	r24, Y+1	; 0x01
    6076:	89 30       	cpi	r24, 0x09	; 9
    6078:	08 f4       	brcc	.+2      	; 0x607c <s_connectionreset+0x3aa>
    607a:	5d ce       	rjmp	.-838    	; 0x5d36 <s_connectionreset+0x64>
		SHT_SCK_1;
		_delay_us(3);
		SHT_SCK_0;
		_delay_us(3);
	}
	s_transstart(); 	
    607c:	0e 94 77 27 	call	0x4eee	; 0x4eee <s_transstart>
}
    6080:	e1 96       	adiw	r28, 0x31	; 49
    6082:	0f b6       	in	r0, 0x3f	; 63
    6084:	f8 94       	cli
    6086:	de bf       	out	0x3e, r29	; 62
    6088:	0f be       	out	0x3f, r0	; 63
    608a:	cd bf       	out	0x3d, r28	; 61
    608c:	df 91       	pop	r29
    608e:	cf 91       	pop	r28
    6090:	1f 91       	pop	r17
    6092:	0f 91       	pop	r16
    6094:	08 95       	ret

00006096 <s_measure>:

char s_measure(unsigned char *p_value, unsigned char *p_checksum, unsigned char  mode)
{
    6096:	0f 93       	push	r16
    6098:	1f 93       	push	r17
    609a:	cf 93       	push	r28
    609c:	df 93       	push	r29
    609e:	cd b7       	in	r28, 0x3d	; 61
    60a0:	de b7       	in	r29, 0x3e	; 62
    60a2:	a0 97       	sbiw	r28, 0x20	; 32
    60a4:	0f b6       	in	r0, 0x3f	; 63
    60a6:	f8 94       	cli
    60a8:	de bf       	out	0x3e, r29	; 62
    60aa:	0f be       	out	0x3f, r0	; 63
    60ac:	cd bf       	out	0x3d, r28	; 61
    60ae:	9d 8f       	std	Y+29, r25	; 0x1d
    60b0:	8c 8f       	std	Y+28, r24	; 0x1c
    60b2:	7f 8f       	std	Y+31, r23	; 0x1f
    60b4:	6e 8f       	std	Y+30, r22	; 0x1e
    60b6:	48 a3       	std	Y+32, r20	; 0x20
	unsigned char error = 0;
    60b8:	19 82       	std	Y+1, r1	; 0x01
	unsigned int i;
	s_transstart(); 
    60ba:	0e 94 77 27 	call	0x4eee	; 0x4eee <s_transstart>
	switch(mode)
    60be:	88 a1       	ldd	r24, Y+32	; 0x20
    60c0:	88 2f       	mov	r24, r24
    60c2:	90 e0       	ldi	r25, 0x00	; 0
    60c4:	00 97       	sbiw	r24, 0x00	; 0
    60c6:	21 f0       	breq	.+8      	; 0x60d0 <s_measure+0x3a>
    60c8:	81 30       	cpi	r24, 0x01	; 1
    60ca:	91 05       	cpc	r25, r1
    60cc:	41 f0       	breq	.+16     	; 0x60de <s_measure+0x48>
    60ce:	0e c0       	rjmp	.+28     	; 0x60ec <s_measure+0x56>
	{
		case TEMP : 
			error += s_write_byte(MEASURE_TEMP); 
    60d0:	83 e0       	ldi	r24, 0x03	; 3
    60d2:	0e 94 cb 15 	call	0x2b96	; 0x2b96 <s_write_byte>
    60d6:	99 81       	ldd	r25, Y+1	; 0x01
    60d8:	89 0f       	add	r24, r25
    60da:	89 83       	std	Y+1, r24	; 0x01
			break;                  // 000 00011
    60dc:	08 c0       	rjmp	.+16     	; 0x60ee <s_measure+0x58>
		case HUMI : 
			error += s_write_byte(MEASURE_HUMI); 
    60de:	85 e0       	ldi	r24, 0x05	; 5
    60e0:	0e 94 cb 15 	call	0x2b96	; 0x2b96 <s_write_byte>
    60e4:	99 81       	ldd	r25, Y+1	; 0x01
    60e6:	89 0f       	add	r24, r25
    60e8:	89 83       	std	Y+1, r24	; 0x01
			break; 				   // 000 00101
    60ea:	01 c0       	rjmp	.+2      	; 0x60ee <s_measure+0x58>
		default : 
			break;
    60ec:	00 00       	nop
	}
    	DATAIN;
    60ee:	81 e6       	ldi	r24, 0x61	; 97
    60f0:	90 e0       	ldi	r25, 0x00	; 0
    60f2:	21 e6       	ldi	r18, 0x61	; 97
    60f4:	30 e0       	ldi	r19, 0x00	; 0
    60f6:	f9 01       	movw	r30, r18
    60f8:	20 81       	ld	r18, Z
    60fa:	2e 7f       	andi	r18, 0xFE	; 254
    60fc:	fc 01       	movw	r30, r24
    60fe:	20 83       	st	Z, r18
    6100:	80 e0       	ldi	r24, 0x00	; 0
    6102:	90 e0       	ldi	r25, 0x00	; 0
    6104:	a0 e4       	ldi	r26, 0x40	; 64
    6106:	b0 e4       	ldi	r27, 0x40	; 64
    6108:	8c 83       	std	Y+4, r24	; 0x04
    610a:	9d 83       	std	Y+5, r25	; 0x05
    610c:	ae 83       	std	Y+6, r26	; 0x06
    610e:	bf 83       	std	Y+7, r27	; 0x07
	#endif

	__builtin_avr_delay_cycles(__ticks_dc);

#else
	__tmp = ((F_CPU) / 3e6) * __us;
    6110:	2b ea       	ldi	r18, 0xAB	; 171
    6112:	3a ea       	ldi	r19, 0xAA	; 170
    6114:	4a ea       	ldi	r20, 0xAA	; 170
    6116:	50 e4       	ldi	r21, 0x40	; 64
    6118:	6c 81       	ldd	r22, Y+4	; 0x04
    611a:	7d 81       	ldd	r23, Y+5	; 0x05
    611c:	8e 81       	ldd	r24, Y+6	; 0x06
    611e:	9f 81       	ldd	r25, Y+7	; 0x07
    6120:	0e 94 2d 36 	call	0x6c5a	; 0x6c5a <__mulsf3>
    6124:	dc 01       	movw	r26, r24
    6126:	cb 01       	movw	r24, r22
    6128:	88 87       	std	Y+8, r24	; 0x08
    612a:	99 87       	std	Y+9, r25	; 0x09
    612c:	aa 87       	std	Y+10, r26	; 0x0a
    612e:	bb 87       	std	Y+11, r27	; 0x0b
	if (__tmp < 1.0)
    6130:	20 e0       	ldi	r18, 0x00	; 0
    6132:	30 e0       	ldi	r19, 0x00	; 0
    6134:	40 e8       	ldi	r20, 0x80	; 128
    6136:	5f e3       	ldi	r21, 0x3F	; 63
    6138:	68 85       	ldd	r22, Y+8	; 0x08
    613a:	79 85       	ldd	r23, Y+9	; 0x09
    613c:	8a 85       	ldd	r24, Y+10	; 0x0a
    613e:	9b 85       	ldd	r25, Y+11	; 0x0b
    6140:	0e 94 13 38 	call	0x7026	; 0x7026 <__ltsf2>
    6144:	88 23       	and	r24, r24
    6146:	1c f4       	brge	.+6      	; 0x614e <s_measure+0xb8>
		__ticks = 1;
    6148:	81 e0       	ldi	r24, 0x01	; 1
    614a:	8c 87       	std	Y+12, r24	; 0x0c
    614c:	97 c0       	rjmp	.+302    	; 0x627c <s_measure+0x1e6>
	else if (__tmp > 255)
    614e:	20 e0       	ldi	r18, 0x00	; 0
    6150:	30 e0       	ldi	r19, 0x00	; 0
    6152:	4f e7       	ldi	r20, 0x7F	; 127
    6154:	53 e4       	ldi	r21, 0x43	; 67
    6156:	68 85       	ldd	r22, Y+8	; 0x08
    6158:	79 85       	ldd	r23, Y+9	; 0x09
    615a:	8a 85       	ldd	r24, Y+10	; 0x0a
    615c:	9b 85       	ldd	r25, Y+11	; 0x0b
    615e:	0e 94 b5 37 	call	0x6f6a	; 0x6f6a <__gtsf2>
    6162:	18 16       	cp	r1, r24
    6164:	0c f0       	brlt	.+2      	; 0x6168 <s_measure+0xd2>
    6166:	81 c0       	rjmp	.+258    	; 0x626a <s_measure+0x1d4>
	{
		_delay_ms(__us / 1000.0);
    6168:	20 e0       	ldi	r18, 0x00	; 0
    616a:	30 e0       	ldi	r19, 0x00	; 0
    616c:	4a e7       	ldi	r20, 0x7A	; 122
    616e:	54 e4       	ldi	r21, 0x44	; 68
    6170:	6c 81       	ldd	r22, Y+4	; 0x04
    6172:	7d 81       	ldd	r23, Y+5	; 0x05
    6174:	8e 81       	ldd	r24, Y+6	; 0x06
    6176:	9f 81       	ldd	r25, Y+7	; 0x07
    6178:	0e 94 12 37 	call	0x6e24	; 0x6e24 <__divsf3>
    617c:	dc 01       	movw	r26, r24
    617e:	cb 01       	movw	r24, r22
    6180:	8d 87       	std	Y+13, r24	; 0x0d
    6182:	9e 87       	std	Y+14, r25	; 0x0e
    6184:	af 87       	std	Y+15, r26	; 0x0f
    6186:	b8 8b       	std	Y+16, r27	; 0x10
	#endif

	__builtin_avr_delay_cycles(__ticks_dc);

#else
	__tmp = ((F_CPU) / 4e3) * __ms;
    6188:	20 e0       	ldi	r18, 0x00	; 0
    618a:	30 e0       	ldi	r19, 0x00	; 0
    618c:	4a e7       	ldi	r20, 0x7A	; 122
    618e:	55 e4       	ldi	r21, 0x45	; 69
    6190:	6d 85       	ldd	r22, Y+13	; 0x0d
    6192:	7e 85       	ldd	r23, Y+14	; 0x0e
    6194:	8f 85       	ldd	r24, Y+15	; 0x0f
    6196:	98 89       	ldd	r25, Y+16	; 0x10
    6198:	0e 94 2d 36 	call	0x6c5a	; 0x6c5a <__mulsf3>
    619c:	dc 01       	movw	r26, r24
    619e:	cb 01       	movw	r24, r22
    61a0:	89 8b       	std	Y+17, r24	; 0x11
    61a2:	9a 8b       	std	Y+18, r25	; 0x12
    61a4:	ab 8b       	std	Y+19, r26	; 0x13
    61a6:	bc 8b       	std	Y+20, r27	; 0x14
	if (__tmp < 1.0)
    61a8:	20 e0       	ldi	r18, 0x00	; 0
    61aa:	30 e0       	ldi	r19, 0x00	; 0
    61ac:	40 e8       	ldi	r20, 0x80	; 128
    61ae:	5f e3       	ldi	r21, 0x3F	; 63
    61b0:	69 89       	ldd	r22, Y+17	; 0x11
    61b2:	7a 89       	ldd	r23, Y+18	; 0x12
    61b4:	8b 89       	ldd	r24, Y+19	; 0x13
    61b6:	9c 89       	ldd	r25, Y+20	; 0x14
    61b8:	0e 94 13 38 	call	0x7026	; 0x7026 <__ltsf2>
    61bc:	88 23       	and	r24, r24
    61be:	2c f4       	brge	.+10     	; 0x61ca <s_measure+0x134>
		__ticks = 1;
    61c0:	81 e0       	ldi	r24, 0x01	; 1
    61c2:	90 e0       	ldi	r25, 0x00	; 0
    61c4:	9e 8b       	std	Y+22, r25	; 0x16
    61c6:	8d 8b       	std	Y+21, r24	; 0x15
    61c8:	42 c0       	rjmp	.+132    	; 0x624e <s_measure+0x1b8>
	else if (__tmp > 65535)
    61ca:	20 e0       	ldi	r18, 0x00	; 0
    61cc:	3f ef       	ldi	r19, 0xFF	; 255
    61ce:	4f e7       	ldi	r20, 0x7F	; 127
    61d0:	57 e4       	ldi	r21, 0x47	; 71
    61d2:	69 89       	ldd	r22, Y+17	; 0x11
    61d4:	7a 89       	ldd	r23, Y+18	; 0x12
    61d6:	8b 89       	ldd	r24, Y+19	; 0x13
    61d8:	9c 89       	ldd	r25, Y+20	; 0x14
    61da:	0e 94 b5 37 	call	0x6f6a	; 0x6f6a <__gtsf2>
    61de:	18 16       	cp	r1, r24
    61e0:	64 f5       	brge	.+88     	; 0x623a <s_measure+0x1a4>
	{
		//	__ticks = requested delay in 1/10 ms
		__ticks = (uint16_t) (__ms * 10.0);
    61e2:	20 e0       	ldi	r18, 0x00	; 0
    61e4:	30 e0       	ldi	r19, 0x00	; 0
    61e6:	40 e2       	ldi	r20, 0x20	; 32
    61e8:	51 e4       	ldi	r21, 0x41	; 65
    61ea:	6d 85       	ldd	r22, Y+13	; 0x0d
    61ec:	7e 85       	ldd	r23, Y+14	; 0x0e
    61ee:	8f 85       	ldd	r24, Y+15	; 0x0f
    61f0:	98 89       	ldd	r25, Y+16	; 0x10
    61f2:	0e 94 2d 36 	call	0x6c5a	; 0x6c5a <__mulsf3>
    61f6:	dc 01       	movw	r26, r24
    61f8:	cb 01       	movw	r24, r22
    61fa:	bc 01       	movw	r22, r24
    61fc:	cd 01       	movw	r24, r26
    61fe:	0e 94 48 34 	call	0x6890	; 0x6890 <__fixunssfsi>
    6202:	dc 01       	movw	r26, r24
    6204:	cb 01       	movw	r24, r22
    6206:	9e 8b       	std	Y+22, r25	; 0x16
    6208:	8d 8b       	std	Y+21, r24	; 0x15
    620a:	12 c0       	rjmp	.+36     	; 0x6230 <s_measure+0x19a>
    620c:	80 e9       	ldi	r24, 0x90	; 144
    620e:	91 e0       	ldi	r25, 0x01	; 1
    6210:	98 8f       	std	Y+24, r25	; 0x18
    6212:	8f 8b       	std	Y+23, r24	; 0x17
    milliseconds can be achieved.
 */
void
_delay_loop_2(uint16_t __count)
{
	__asm__ volatile (
    6214:	8f 89       	ldd	r24, Y+23	; 0x17
    6216:	98 8d       	ldd	r25, Y+24	; 0x18
    6218:	8c 01       	movw	r16, r24
    621a:	c8 01       	movw	r24, r16
    621c:	01 97       	sbiw	r24, 0x01	; 1
    621e:	f1 f7       	brne	.-4      	; 0x621c <s_measure+0x186>
    6220:	8c 01       	movw	r16, r24
    6222:	18 8f       	std	Y+24, r17	; 0x18
    6224:	0f 8b       	std	Y+23, r16	; 0x17
		while(__ticks)
		{
			// wait 1/10 ms
			_delay_loop_2(((F_CPU) / 4e3) / 10);
			__ticks --;
    6226:	8d 89       	ldd	r24, Y+21	; 0x15
    6228:	9e 89       	ldd	r25, Y+22	; 0x16
    622a:	01 97       	sbiw	r24, 0x01	; 1
    622c:	9e 8b       	std	Y+22, r25	; 0x16
    622e:	8d 8b       	std	Y+21, r24	; 0x15
		__ticks = 1;
	else if (__tmp > 65535)
	{
		//	__ticks = requested delay in 1/10 ms
		__ticks = (uint16_t) (__ms * 10.0);
		while(__ticks)
    6230:	8d 89       	ldd	r24, Y+21	; 0x15
    6232:	9e 89       	ldd	r25, Y+22	; 0x16
    6234:	00 97       	sbiw	r24, 0x00	; 0
    6236:	51 f7       	brne	.-44     	; 0x620c <s_measure+0x176>
    6238:	28 c0       	rjmp	.+80     	; 0x628a <s_measure+0x1f4>
			__ticks --;
		}
		return;
	}
	else
		__ticks = (uint16_t)__tmp;
    623a:	69 89       	ldd	r22, Y+17	; 0x11
    623c:	7a 89       	ldd	r23, Y+18	; 0x12
    623e:	8b 89       	ldd	r24, Y+19	; 0x13
    6240:	9c 89       	ldd	r25, Y+20	; 0x14
    6242:	0e 94 48 34 	call	0x6890	; 0x6890 <__fixunssfsi>
    6246:	dc 01       	movw	r26, r24
    6248:	cb 01       	movw	r24, r22
    624a:	9e 8b       	std	Y+22, r25	; 0x16
    624c:	8d 8b       	std	Y+21, r24	; 0x15
    624e:	8d 89       	ldd	r24, Y+21	; 0x15
    6250:	9e 89       	ldd	r25, Y+22	; 0x16
    6252:	9a 8f       	std	Y+26, r25	; 0x1a
    6254:	89 8f       	std	Y+25, r24	; 0x19
    6256:	89 8d       	ldd	r24, Y+25	; 0x19
    6258:	9a 8d       	ldd	r25, Y+26	; 0x1a
    625a:	8c 01       	movw	r16, r24
    625c:	f8 01       	movw	r30, r16
    625e:	31 97       	sbiw	r30, 0x01	; 1
    6260:	f1 f7       	brne	.-4      	; 0x625e <s_measure+0x1c8>
    6262:	8f 01       	movw	r16, r30
    6264:	1a 8f       	std	Y+26, r17	; 0x1a
    6266:	09 8f       	std	Y+25, r16	; 0x19
    6268:	10 c0       	rjmp	.+32     	; 0x628a <s_measure+0x1f4>
	{
		_delay_ms(__us / 1000.0);
		return;
	}
	else
		__ticks = (uint8_t)__tmp;
    626a:	68 85       	ldd	r22, Y+8	; 0x08
    626c:	79 85       	ldd	r23, Y+9	; 0x09
    626e:	8a 85       	ldd	r24, Y+10	; 0x0a
    6270:	9b 85       	ldd	r25, Y+11	; 0x0b
    6272:	0e 94 48 34 	call	0x6890	; 0x6890 <__fixunssfsi>
    6276:	dc 01       	movw	r26, r24
    6278:	cb 01       	movw	r24, r22
    627a:	8c 87       	std	Y+12, r24	; 0x0c
    627c:	8c 85       	ldd	r24, Y+12	; 0x0c
    627e:	8b 8f       	std	Y+27, r24	; 0x1b
    can be achieved.
*/
void
_delay_loop_1(uint8_t __count)
{
	__asm__ volatile (
    6280:	8b 8d       	ldd	r24, Y+27	; 0x1b
    6282:	18 2f       	mov	r17, r24
    6284:	1a 95       	dec	r17
    6286:	f1 f7       	brne	.-4      	; 0x6284 <s_measure+0x1ee>
    6288:	1b 8f       	std	Y+27, r17	; 0x1b
	_delay_us(3);

	for (i=0;i<65535;i++) 	
    628a:	1b 82       	std	Y+3, r1	; 0x03
    628c:	1a 82       	std	Y+2, r1	; 0x02
    628e:	0b c0       	rjmp	.+22     	; 0x62a6 <s_measure+0x210>
		if(!DATA_IN) break; 
    6290:	80 e2       	ldi	r24, 0x20	; 32
    6292:	90 e0       	ldi	r25, 0x00	; 0
    6294:	fc 01       	movw	r30, r24
    6296:	80 81       	ld	r24, Z
    6298:	88 23       	and	r24, r24
    629a:	61 f0       	breq	.+24     	; 0x62b4 <s_measure+0x21e>
			break;
	}
    	DATAIN;
	_delay_us(3);

	for (i=0;i<65535;i++) 	
    629c:	8a 81       	ldd	r24, Y+2	; 0x02
    629e:	9b 81       	ldd	r25, Y+3	; 0x03
    62a0:	01 96       	adiw	r24, 0x01	; 1
    62a2:	9b 83       	std	Y+3, r25	; 0x03
    62a4:	8a 83       	std	Y+2, r24	; 0x02
    62a6:	8a 81       	ldd	r24, Y+2	; 0x02
    62a8:	9b 81       	ldd	r25, Y+3	; 0x03
    62aa:	8f 3f       	cpi	r24, 0xFF	; 255
    62ac:	ff ef       	ldi	r31, 0xFF	; 255
    62ae:	9f 07       	cpc	r25, r31
    62b0:	79 f7       	brne	.-34     	; 0x6290 <s_measure+0x1fa>
    62b2:	01 c0       	rjmp	.+2      	; 0x62b6 <s_measure+0x220>
		if(!DATA_IN) break; 
    62b4:	00 00       	nop
	if(DATA_IN) 
    62b6:	80 e2       	ldi	r24, 0x20	; 32
    62b8:	90 e0       	ldi	r25, 0x00	; 0
    62ba:	fc 01       	movw	r30, r24
    62bc:	80 81       	ld	r24, Z
    62be:	88 2f       	mov	r24, r24
    62c0:	90 e0       	ldi	r25, 0x00	; 0
    62c2:	81 70       	andi	r24, 0x01	; 1
    62c4:	99 27       	eor	r25, r25
    62c6:	00 97       	sbiw	r24, 0x00	; 0
    62c8:	19 f0       	breq	.+6      	; 0x62d0 <s_measure+0x23a>
		error += 1; 
    62ca:	89 81       	ldd	r24, Y+1	; 0x01
    62cc:	8f 5f       	subi	r24, 0xFF	; 255
    62ce:	89 83       	std	Y+1, r24	; 0x01

	*(p_value+1) = s_read_byte(ACK);
    62d0:	8c 8d       	ldd	r24, Y+28	; 0x1c
    62d2:	9d 8d       	ldd	r25, Y+29	; 0x1d
    62d4:	8c 01       	movw	r16, r24
    62d6:	0f 5f       	subi	r16, 0xFF	; 255
    62d8:	1f 4f       	sbci	r17, 0xFF	; 255
    62da:	81 e0       	ldi	r24, 0x01	; 1
    62dc:	0e 94 b3 1d 	call	0x3b66	; 0x3b66 <s_read_byte>
    62e0:	f8 01       	movw	r30, r16
    62e2:	80 83       	st	Z, r24

	*(p_value) = s_read_byte(ACK); 
    62e4:	81 e0       	ldi	r24, 0x01	; 1
    62e6:	0e 94 b3 1d 	call	0x3b66	; 0x3b66 <s_read_byte>
    62ea:	28 2f       	mov	r18, r24
    62ec:	8c 8d       	ldd	r24, Y+28	; 0x1c
    62ee:	9d 8d       	ldd	r25, Y+29	; 0x1d
    62f0:	fc 01       	movw	r30, r24
    62f2:	20 83       	st	Z, r18

	*p_checksum = s_read_byte(noACK); 
    62f4:	80 e0       	ldi	r24, 0x00	; 0
    62f6:	0e 94 b3 1d 	call	0x3b66	; 0x3b66 <s_read_byte>
    62fa:	28 2f       	mov	r18, r24
    62fc:	8e 8d       	ldd	r24, Y+30	; 0x1e
    62fe:	9f 8d       	ldd	r25, Y+31	; 0x1f
    6300:	fc 01       	movw	r30, r24
    6302:	20 83       	st	Z, r18

	return error;
    6304:	89 81       	ldd	r24, Y+1	; 0x01
}
    6306:	a0 96       	adiw	r28, 0x20	; 32
    6308:	0f b6       	in	r0, 0x3f	; 63
    630a:	f8 94       	cli
    630c:	de bf       	out	0x3e, r29	; 62
    630e:	0f be       	out	0x3f, r0	; 63
    6310:	cd bf       	out	0x3d, r28	; 61
    6312:	df 91       	pop	r29
    6314:	cf 91       	pop	r28
    6316:	1f 91       	pop	r17
    6318:	0f 91       	pop	r16
    631a:	08 95       	ret

0000631c <calc_sth11>:

void calc_sth11(float  *p_humidity, float  *p_temperature) 
{
    631c:	cf 92       	push	r12
    631e:	df 92       	push	r13
    6320:	ef 92       	push	r14
    6322:	ff 92       	push	r15
    6324:	cf 93       	push	r28
    6326:	df 93       	push	r29
    6328:	cd b7       	in	r28, 0x3d	; 61
    632a:	de b7       	in	r29, 0x3e	; 62
    632c:	ac 97       	sbiw	r28, 0x2c	; 44
    632e:	0f b6       	in	r0, 0x3f	; 63
    6330:	f8 94       	cli
    6332:	de bf       	out	0x3e, r29	; 62
    6334:	0f be       	out	0x3f, r0	; 63
    6336:	cd bf       	out	0x3d, r28	; 61
    6338:	9a a7       	std	Y+42, r25	; 0x2a
    633a:	89 a7       	std	Y+41, r24	; 0x29
    633c:	7c a7       	std	Y+44, r23	; 0x2c
    633e:	6b a7       	std	Y+43, r22	; 0x2b
	const float C1 = -4.0; 
    6340:	80 e0       	ldi	r24, 0x00	; 0
    6342:	90 e0       	ldi	r25, 0x00	; 0
    6344:	a0 e8       	ldi	r26, 0x80	; 128
    6346:	b0 ec       	ldi	r27, 0xC0	; 192
    6348:	8d 83       	std	Y+5, r24	; 0x05
    634a:	9e 83       	std	Y+6, r25	; 0x06
    634c:	af 83       	std	Y+7, r26	; 0x07
    634e:	b8 87       	std	Y+8, r27	; 0x08
	const float C2 = +0.0405;
    6350:	84 e5       	ldi	r24, 0x54	; 84
    6352:	93 ee       	ldi	r25, 0xE3	; 227
    6354:	a5 e2       	ldi	r26, 0x25	; 37
    6356:	bd e3       	ldi	r27, 0x3D	; 61
    6358:	89 87       	std	Y+9, r24	; 0x09
    635a:	9a 87       	std	Y+10, r25	; 0x0a
    635c:	ab 87       	std	Y+11, r26	; 0x0b
    635e:	bc 87       	std	Y+12, r27	; 0x0c
	const float C3 = -0.0000028;
    6360:	82 ea       	ldi	r24, 0xA2	; 162
    6362:	97 ee       	ldi	r25, 0xE7	; 231
    6364:	ab e3       	ldi	r26, 0x3B	; 59
    6366:	b6 eb       	ldi	r27, 0xB6	; 182
    6368:	8d 87       	std	Y+13, r24	; 0x0d
    636a:	9e 87       	std	Y+14, r25	; 0x0e
    636c:	af 87       	std	Y+15, r26	; 0x0f
    636e:	b8 8b       	std	Y+16, r27	; 0x10
	const float T1 = +0.01; 
    6370:	8a e0       	ldi	r24, 0x0A	; 10
    6372:	97 ed       	ldi	r25, 0xD7	; 215
    6374:	a3 e2       	ldi	r26, 0x23	; 35
    6376:	bc e3       	ldi	r27, 0x3C	; 60
    6378:	89 8b       	std	Y+17, r24	; 0x11
    637a:	9a 8b       	std	Y+18, r25	; 0x12
    637c:	ab 8b       	std	Y+19, r26	; 0x13
    637e:	bc 8b       	std	Y+20, r27	; 0x14
	const float T2 = +0.00008; 
    6380:	8c ea       	ldi	r24, 0xAC	; 172
    6382:	95 ec       	ldi	r25, 0xC5	; 197
    6384:	a7 ea       	ldi	r26, 0xA7	; 167
    6386:	b8 e3       	ldi	r27, 0x38	; 56
    6388:	8d 8b       	std	Y+21, r24	; 0x15
    638a:	9e 8b       	std	Y+22, r25	; 0x16
    638c:	af 8b       	std	Y+23, r26	; 0x17
    638e:	b8 8f       	std	Y+24, r27	; 0x18
	float rh = *p_humidity; 	
    6390:	89 a5       	ldd	r24, Y+41	; 0x29
    6392:	9a a5       	ldd	r25, Y+42	; 0x2a
    6394:	fc 01       	movw	r30, r24
    6396:	80 81       	ld	r24, Z
    6398:	91 81       	ldd	r25, Z+1	; 0x01
    639a:	a2 81       	ldd	r26, Z+2	; 0x02
    639c:	b3 81       	ldd	r27, Z+3	; 0x03
    639e:	89 8f       	std	Y+25, r24	; 0x19
    63a0:	9a 8f       	std	Y+26, r25	; 0x1a
    63a2:	ab 8f       	std	Y+27, r26	; 0x1b
    63a4:	bc 8f       	std	Y+28, r27	; 0x1c
	float t = *p_temperature; 
    63a6:	8b a5       	ldd	r24, Y+43	; 0x2b
    63a8:	9c a5       	ldd	r25, Y+44	; 0x2c
    63aa:	fc 01       	movw	r30, r24
    63ac:	80 81       	ld	r24, Z
    63ae:	91 81       	ldd	r25, Z+1	; 0x01
    63b0:	a2 81       	ldd	r26, Z+2	; 0x02
    63b2:	b3 81       	ldd	r27, Z+3	; 0x03
    63b4:	8d 8f       	std	Y+29, r24	; 0x1d
    63b6:	9e 8f       	std	Y+30, r25	; 0x1e
    63b8:	af 8f       	std	Y+31, r26	; 0x1f
    63ba:	b8 a3       	std	Y+32, r27	; 0x20
	float  rh_lin; 
	float  rh_true;
	float  t_C; 

	t_C = t*0.01 - 40.0;
    63bc:	2a e0       	ldi	r18, 0x0A	; 10
    63be:	37 ed       	ldi	r19, 0xD7	; 215
    63c0:	43 e2       	ldi	r20, 0x23	; 35
    63c2:	5c e3       	ldi	r21, 0x3C	; 60
    63c4:	6d 8d       	ldd	r22, Y+29	; 0x1d
    63c6:	7e 8d       	ldd	r23, Y+30	; 0x1e
    63c8:	8f 8d       	ldd	r24, Y+31	; 0x1f
    63ca:	98 a1       	ldd	r25, Y+32	; 0x20
    63cc:	0e 94 2d 36 	call	0x6c5a	; 0x6c5a <__mulsf3>
    63d0:	dc 01       	movw	r26, r24
    63d2:	cb 01       	movw	r24, r22
    63d4:	20 e0       	ldi	r18, 0x00	; 0
    63d6:	30 e0       	ldi	r19, 0x00	; 0
    63d8:	40 e2       	ldi	r20, 0x20	; 32
    63da:	52 e4       	ldi	r21, 0x42	; 66
    63dc:	bc 01       	movw	r22, r24
    63de:	cd 01       	movw	r24, r26
    63e0:	0e 94 fd 35 	call	0x6bfa	; 0x6bfa <__subsf3>
    63e4:	dc 01       	movw	r26, r24
    63e6:	cb 01       	movw	r24, r22
    63e8:	89 a3       	std	Y+33, r24	; 0x21
    63ea:	9a a3       	std	Y+34, r25	; 0x22
    63ec:	ab a3       	std	Y+35, r26	; 0x23
    63ee:	bc a3       	std	Y+36, r27	; 0x24
	rh_lin = C3*rh*rh + C2*rh + C1;
    63f0:	29 8d       	ldd	r18, Y+25	; 0x19
    63f2:	3a 8d       	ldd	r19, Y+26	; 0x1a
    63f4:	4b 8d       	ldd	r20, Y+27	; 0x1b
    63f6:	5c 8d       	ldd	r21, Y+28	; 0x1c
    63f8:	6d 85       	ldd	r22, Y+13	; 0x0d
    63fa:	7e 85       	ldd	r23, Y+14	; 0x0e
    63fc:	8f 85       	ldd	r24, Y+15	; 0x0f
    63fe:	98 89       	ldd	r25, Y+16	; 0x10
    6400:	0e 94 2d 36 	call	0x6c5a	; 0x6c5a <__mulsf3>
    6404:	dc 01       	movw	r26, r24
    6406:	cb 01       	movw	r24, r22
    6408:	29 8d       	ldd	r18, Y+25	; 0x19
    640a:	3a 8d       	ldd	r19, Y+26	; 0x1a
    640c:	4b 8d       	ldd	r20, Y+27	; 0x1b
    640e:	5c 8d       	ldd	r21, Y+28	; 0x1c
    6410:	bc 01       	movw	r22, r24
    6412:	cd 01       	movw	r24, r26
    6414:	0e 94 2d 36 	call	0x6c5a	; 0x6c5a <__mulsf3>
    6418:	dc 01       	movw	r26, r24
    641a:	cb 01       	movw	r24, r22
    641c:	6c 01       	movw	r12, r24
    641e:	7d 01       	movw	r14, r26
    6420:	29 8d       	ldd	r18, Y+25	; 0x19
    6422:	3a 8d       	ldd	r19, Y+26	; 0x1a
    6424:	4b 8d       	ldd	r20, Y+27	; 0x1b
    6426:	5c 8d       	ldd	r21, Y+28	; 0x1c
    6428:	69 85       	ldd	r22, Y+9	; 0x09
    642a:	7a 85       	ldd	r23, Y+10	; 0x0a
    642c:	8b 85       	ldd	r24, Y+11	; 0x0b
    642e:	9c 85       	ldd	r25, Y+12	; 0x0c
    6430:	0e 94 2d 36 	call	0x6c5a	; 0x6c5a <__mulsf3>
    6434:	dc 01       	movw	r26, r24
    6436:	cb 01       	movw	r24, r22
    6438:	9c 01       	movw	r18, r24
    643a:	ad 01       	movw	r20, r26
    643c:	c7 01       	movw	r24, r14
    643e:	b6 01       	movw	r22, r12
    6440:	0e 94 d1 35 	call	0x6ba2	; 0x6ba2 <__addsf3>
    6444:	dc 01       	movw	r26, r24
    6446:	cb 01       	movw	r24, r22
    6448:	2d 81       	ldd	r18, Y+5	; 0x05
    644a:	3e 81       	ldd	r19, Y+6	; 0x06
    644c:	4f 81       	ldd	r20, Y+7	; 0x07
    644e:	58 85       	ldd	r21, Y+8	; 0x08
    6450:	bc 01       	movw	r22, r24
    6452:	cd 01       	movw	r24, r26
    6454:	0e 94 d1 35 	call	0x6ba2	; 0x6ba2 <__addsf3>
    6458:	dc 01       	movw	r26, r24
    645a:	cb 01       	movw	r24, r22
    645c:	8d a3       	std	Y+37, r24	; 0x25
    645e:	9e a3       	std	Y+38, r25	; 0x26
    6460:	af a3       	std	Y+39, r26	; 0x27
    6462:	b8 a7       	std	Y+40, r27	; 0x28
	rh_true = (t_C-25)*(T1+T2*rh) + rh_lin; 
    6464:	20 e0       	ldi	r18, 0x00	; 0
    6466:	30 e0       	ldi	r19, 0x00	; 0
    6468:	48 ec       	ldi	r20, 0xC8	; 200
    646a:	51 e4       	ldi	r21, 0x41	; 65
    646c:	69 a1       	ldd	r22, Y+33	; 0x21
    646e:	7a a1       	ldd	r23, Y+34	; 0x22
    6470:	8b a1       	ldd	r24, Y+35	; 0x23
    6472:	9c a1       	ldd	r25, Y+36	; 0x24
    6474:	0e 94 fd 35 	call	0x6bfa	; 0x6bfa <__subsf3>
    6478:	dc 01       	movw	r26, r24
    647a:	cb 01       	movw	r24, r22
    647c:	6c 01       	movw	r12, r24
    647e:	7d 01       	movw	r14, r26
    6480:	29 8d       	ldd	r18, Y+25	; 0x19
    6482:	3a 8d       	ldd	r19, Y+26	; 0x1a
    6484:	4b 8d       	ldd	r20, Y+27	; 0x1b
    6486:	5c 8d       	ldd	r21, Y+28	; 0x1c
    6488:	6d 89       	ldd	r22, Y+21	; 0x15
    648a:	7e 89       	ldd	r23, Y+22	; 0x16
    648c:	8f 89       	ldd	r24, Y+23	; 0x17
    648e:	98 8d       	ldd	r25, Y+24	; 0x18
    6490:	0e 94 2d 36 	call	0x6c5a	; 0x6c5a <__mulsf3>
    6494:	dc 01       	movw	r26, r24
    6496:	cb 01       	movw	r24, r22
    6498:	29 89       	ldd	r18, Y+17	; 0x11
    649a:	3a 89       	ldd	r19, Y+18	; 0x12
    649c:	4b 89       	ldd	r20, Y+19	; 0x13
    649e:	5c 89       	ldd	r21, Y+20	; 0x14
    64a0:	bc 01       	movw	r22, r24
    64a2:	cd 01       	movw	r24, r26
    64a4:	0e 94 d1 35 	call	0x6ba2	; 0x6ba2 <__addsf3>
    64a8:	dc 01       	movw	r26, r24
    64aa:	cb 01       	movw	r24, r22
    64ac:	9c 01       	movw	r18, r24
    64ae:	ad 01       	movw	r20, r26
    64b0:	c7 01       	movw	r24, r14
    64b2:	b6 01       	movw	r22, r12
    64b4:	0e 94 2d 36 	call	0x6c5a	; 0x6c5a <__mulsf3>
    64b8:	dc 01       	movw	r26, r24
    64ba:	cb 01       	movw	r24, r22
    64bc:	2d a1       	ldd	r18, Y+37	; 0x25
    64be:	3e a1       	ldd	r19, Y+38	; 0x26
    64c0:	4f a1       	ldd	r20, Y+39	; 0x27
    64c2:	58 a5       	ldd	r21, Y+40	; 0x28
    64c4:	bc 01       	movw	r22, r24
    64c6:	cd 01       	movw	r24, r26
    64c8:	0e 94 d1 35 	call	0x6ba2	; 0x6ba2 <__addsf3>
    64cc:	dc 01       	movw	r26, r24
    64ce:	cb 01       	movw	r24, r22
    64d0:	89 83       	std	Y+1, r24	; 0x01
    64d2:	9a 83       	std	Y+2, r25	; 0x02
    64d4:	ab 83       	std	Y+3, r26	; 0x03
    64d6:	bc 83       	std	Y+4, r27	; 0x04
	if(rh_true > 100)	rh_true = 100; 
    64d8:	20 e0       	ldi	r18, 0x00	; 0
    64da:	30 e0       	ldi	r19, 0x00	; 0
    64dc:	48 ec       	ldi	r20, 0xC8	; 200
    64de:	52 e4       	ldi	r21, 0x42	; 66
    64e0:	69 81       	ldd	r22, Y+1	; 0x01
    64e2:	7a 81       	ldd	r23, Y+2	; 0x02
    64e4:	8b 81       	ldd	r24, Y+3	; 0x03
    64e6:	9c 81       	ldd	r25, Y+4	; 0x04
    64e8:	0e 94 b5 37 	call	0x6f6a	; 0x6f6a <__gtsf2>
    64ec:	18 16       	cp	r1, r24
    64ee:	44 f4       	brge	.+16     	; 0x6500 <calc_sth11+0x1e4>
    64f0:	80 e0       	ldi	r24, 0x00	; 0
    64f2:	90 e0       	ldi	r25, 0x00	; 0
    64f4:	a8 ec       	ldi	r26, 0xC8	; 200
    64f6:	b2 e4       	ldi	r27, 0x42	; 66
    64f8:	89 83       	std	Y+1, r24	; 0x01
    64fa:	9a 83       	std	Y+2, r25	; 0x02
    64fc:	ab 83       	std	Y+3, r26	; 0x03
    64fe:	bc 83       	std	Y+4, r27	; 0x04
	if(rh_true < 0.1)	rh_true = 0.1; 
    6500:	2d ec       	ldi	r18, 0xCD	; 205
    6502:	3c ec       	ldi	r19, 0xCC	; 204
    6504:	4c ec       	ldi	r20, 0xCC	; 204
    6506:	5d e3       	ldi	r21, 0x3D	; 61
    6508:	69 81       	ldd	r22, Y+1	; 0x01
    650a:	7a 81       	ldd	r23, Y+2	; 0x02
    650c:	8b 81       	ldd	r24, Y+3	; 0x03
    650e:	9c 81       	ldd	r25, Y+4	; 0x04
    6510:	0e 94 13 38 	call	0x7026	; 0x7026 <__ltsf2>
    6514:	88 23       	and	r24, r24
    6516:	44 f4       	brge	.+16     	; 0x6528 <calc_sth11+0x20c>
    6518:	8d ec       	ldi	r24, 0xCD	; 205
    651a:	9c ec       	ldi	r25, 0xCC	; 204
    651c:	ac ec       	ldi	r26, 0xCC	; 204
    651e:	bd e3       	ldi	r27, 0x3D	; 61
    6520:	89 83       	std	Y+1, r24	; 0x01
    6522:	9a 83       	std	Y+2, r25	; 0x02
    6524:	ab 83       	std	Y+3, r26	; 0x03
    6526:	bc 83       	std	Y+4, r27	; 0x04
	*p_temperature = t_C; 
    6528:	2b a5       	ldd	r18, Y+43	; 0x2b
    652a:	3c a5       	ldd	r19, Y+44	; 0x2c
    652c:	89 a1       	ldd	r24, Y+33	; 0x21
    652e:	9a a1       	ldd	r25, Y+34	; 0x22
    6530:	ab a1       	ldd	r26, Y+35	; 0x23
    6532:	bc a1       	ldd	r27, Y+36	; 0x24
    6534:	f9 01       	movw	r30, r18
    6536:	80 83       	st	Z, r24
    6538:	91 83       	std	Z+1, r25	; 0x01
    653a:	a2 83       	std	Z+2, r26	; 0x02
    653c:	b3 83       	std	Z+3, r27	; 0x03
	*p_humidity = rh_true;
    653e:	29 a5       	ldd	r18, Y+41	; 0x29
    6540:	3a a5       	ldd	r19, Y+42	; 0x2a
    6542:	89 81       	ldd	r24, Y+1	; 0x01
    6544:	9a 81       	ldd	r25, Y+2	; 0x02
    6546:	ab 81       	ldd	r26, Y+3	; 0x03
    6548:	bc 81       	ldd	r27, Y+4	; 0x04
    654a:	f9 01       	movw	r30, r18
    654c:	80 83       	st	Z, r24
    654e:	91 83       	std	Z+1, r25	; 0x01
    6550:	a2 83       	std	Z+2, r26	; 0x02
    6552:	b3 83       	std	Z+3, r27	; 0x03
}
    6554:	ac 96       	adiw	r28, 0x2c	; 44
    6556:	0f b6       	in	r0, 0x3f	; 63
    6558:	f8 94       	cli
    655a:	de bf       	out	0x3e, r29	; 62
    655c:	0f be       	out	0x3f, r0	; 63
    655e:	cd bf       	out	0x3d, r28	; 61
    6560:	df 91       	pop	r29
    6562:	cf 91       	pop	r28
    6564:	ff 90       	pop	r15
    6566:	ef 90       	pop	r14
    6568:	df 90       	pop	r13
    656a:	cf 90       	pop	r12
    656c:	08 95       	ret

0000656e <calc_dewpoint>:

float calc_dewpoint(float h, float t)
{ 
    656e:	cf 92       	push	r12
    6570:	df 92       	push	r13
    6572:	ef 92       	push	r14
    6574:	ff 92       	push	r15
    6576:	cf 93       	push	r28
    6578:	df 93       	push	r29
    657a:	cd b7       	in	r28, 0x3d	; 61
    657c:	de b7       	in	r29, 0x3e	; 62
    657e:	60 97       	sbiw	r28, 0x10	; 16
    6580:	0f b6       	in	r0, 0x3f	; 63
    6582:	f8 94       	cli
    6584:	de bf       	out	0x3e, r29	; 62
    6586:	0f be       	out	0x3f, r0	; 63
    6588:	cd bf       	out	0x3d, r28	; 61
    658a:	69 87       	std	Y+9, r22	; 0x09
    658c:	7a 87       	std	Y+10, r23	; 0x0a
    658e:	8b 87       	std	Y+11, r24	; 0x0b
    6590:	9c 87       	std	Y+12, r25	; 0x0c
    6592:	2d 87       	std	Y+13, r18	; 0x0d
    6594:	3e 87       	std	Y+14, r19	; 0x0e
    6596:	4f 87       	std	Y+15, r20	; 0x0f
    6598:	58 8b       	std	Y+16, r21	; 0x10
	float dew_point, temp_d;

	if(t >= 0)
    659a:	20 e0       	ldi	r18, 0x00	; 0
    659c:	30 e0       	ldi	r19, 0x00	; 0
    659e:	a9 01       	movw	r20, r18
    65a0:	6d 85       	ldd	r22, Y+13	; 0x0d
    65a2:	7e 85       	ldd	r23, Y+14	; 0x0e
    65a4:	8f 85       	ldd	r24, Y+15	; 0x0f
    65a6:	98 89       	ldd	r25, Y+16	; 0x10
    65a8:	0e 94 e4 37 	call	0x6fc8	; 0x6fc8 <__gesf2>
    65ac:	88 23       	and	r24, r24
    65ae:	0c f4       	brge	.+2      	; 0x65b2 <calc_dewpoint+0x44>
    65b0:	81 c0       	rjmp	.+258    	; 0x66b4 <calc_dewpoint+0x146>
	{
		temp_d = (17.62 * t)/(243.12 + t);
    65b2:	23 ec       	ldi	r18, 0xC3	; 195
    65b4:	35 ef       	ldi	r19, 0xF5	; 245
    65b6:	4c e8       	ldi	r20, 0x8C	; 140
    65b8:	51 e4       	ldi	r21, 0x41	; 65
    65ba:	6d 85       	ldd	r22, Y+13	; 0x0d
    65bc:	7e 85       	ldd	r23, Y+14	; 0x0e
    65be:	8f 85       	ldd	r24, Y+15	; 0x0f
    65c0:	98 89       	ldd	r25, Y+16	; 0x10
    65c2:	0e 94 2d 36 	call	0x6c5a	; 0x6c5a <__mulsf3>
    65c6:	dc 01       	movw	r26, r24
    65c8:	cb 01       	movw	r24, r22
    65ca:	6c 01       	movw	r12, r24
    65cc:	7d 01       	movw	r14, r26
    65ce:	28 eb       	ldi	r18, 0xB8	; 184
    65d0:	3e e1       	ldi	r19, 0x1E	; 30
    65d2:	43 e7       	ldi	r20, 0x73	; 115
    65d4:	53 e4       	ldi	r21, 0x43	; 67
    65d6:	6d 85       	ldd	r22, Y+13	; 0x0d
    65d8:	7e 85       	ldd	r23, Y+14	; 0x0e
    65da:	8f 85       	ldd	r24, Y+15	; 0x0f
    65dc:	98 89       	ldd	r25, Y+16	; 0x10
    65de:	0e 94 d1 35 	call	0x6ba2	; 0x6ba2 <__addsf3>
    65e2:	dc 01       	movw	r26, r24
    65e4:	cb 01       	movw	r24, r22
    65e6:	9c 01       	movw	r18, r24
    65e8:	ad 01       	movw	r20, r26
    65ea:	c7 01       	movw	r24, r14
    65ec:	b6 01       	movw	r22, r12
    65ee:	0e 94 12 37 	call	0x6e24	; 0x6e24 <__divsf3>
    65f2:	dc 01       	movw	r26, r24
    65f4:	cb 01       	movw	r24, r22
    65f6:	8d 83       	std	Y+5, r24	; 0x05
    65f8:	9e 83       	std	Y+6, r25	; 0x06
    65fa:	af 83       	std	Y+7, r26	; 0x07
    65fc:	b8 87       	std	Y+8, r27	; 0x08
		dew_point = 243.12 * (log(h/100) + temp_d) / (17.62 - log(h/100) - temp_d);
    65fe:	20 e0       	ldi	r18, 0x00	; 0
    6600:	30 e0       	ldi	r19, 0x00	; 0
    6602:	48 ec       	ldi	r20, 0xC8	; 200
    6604:	52 e4       	ldi	r21, 0x42	; 66
    6606:	69 85       	ldd	r22, Y+9	; 0x09
    6608:	7a 85       	ldd	r23, Y+10	; 0x0a
    660a:	8b 85       	ldd	r24, Y+11	; 0x0b
    660c:	9c 85       	ldd	r25, Y+12	; 0x0c
    660e:	0e 94 12 37 	call	0x6e24	; 0x6e24 <__divsf3>
    6612:	dc 01       	movw	r26, r24
    6614:	cb 01       	movw	r24, r22
    6616:	bc 01       	movw	r22, r24
    6618:	cd 01       	movw	r24, r26
    661a:	0e 94 67 3a 	call	0x74ce	; 0x74ce <log>
    661e:	dc 01       	movw	r26, r24
    6620:	cb 01       	movw	r24, r22
    6622:	2d 81       	ldd	r18, Y+5	; 0x05
    6624:	3e 81       	ldd	r19, Y+6	; 0x06
    6626:	4f 81       	ldd	r20, Y+7	; 0x07
    6628:	58 85       	ldd	r21, Y+8	; 0x08
    662a:	bc 01       	movw	r22, r24
    662c:	cd 01       	movw	r24, r26
    662e:	0e 94 d1 35 	call	0x6ba2	; 0x6ba2 <__addsf3>
    6632:	dc 01       	movw	r26, r24
    6634:	cb 01       	movw	r24, r22
    6636:	28 eb       	ldi	r18, 0xB8	; 184
    6638:	3e e1       	ldi	r19, 0x1E	; 30
    663a:	43 e7       	ldi	r20, 0x73	; 115
    663c:	53 e4       	ldi	r21, 0x43	; 67
    663e:	bc 01       	movw	r22, r24
    6640:	cd 01       	movw	r24, r26
    6642:	0e 94 2d 36 	call	0x6c5a	; 0x6c5a <__mulsf3>
    6646:	dc 01       	movw	r26, r24
    6648:	cb 01       	movw	r24, r22
    664a:	6c 01       	movw	r12, r24
    664c:	7d 01       	movw	r14, r26
    664e:	20 e0       	ldi	r18, 0x00	; 0
    6650:	30 e0       	ldi	r19, 0x00	; 0
    6652:	48 ec       	ldi	r20, 0xC8	; 200
    6654:	52 e4       	ldi	r21, 0x42	; 66
    6656:	69 85       	ldd	r22, Y+9	; 0x09
    6658:	7a 85       	ldd	r23, Y+10	; 0x0a
    665a:	8b 85       	ldd	r24, Y+11	; 0x0b
    665c:	9c 85       	ldd	r25, Y+12	; 0x0c
    665e:	0e 94 12 37 	call	0x6e24	; 0x6e24 <__divsf3>
    6662:	dc 01       	movw	r26, r24
    6664:	cb 01       	movw	r24, r22
    6666:	bc 01       	movw	r22, r24
    6668:	cd 01       	movw	r24, r26
    666a:	0e 94 67 3a 	call	0x74ce	; 0x74ce <log>
    666e:	dc 01       	movw	r26, r24
    6670:	cb 01       	movw	r24, r22
    6672:	9c 01       	movw	r18, r24
    6674:	ad 01       	movw	r20, r26
    6676:	63 ec       	ldi	r22, 0xC3	; 195
    6678:	75 ef       	ldi	r23, 0xF5	; 245
    667a:	8c e8       	ldi	r24, 0x8C	; 140
    667c:	91 e4       	ldi	r25, 0x41	; 65
    667e:	0e 94 fd 35 	call	0x6bfa	; 0x6bfa <__subsf3>
    6682:	dc 01       	movw	r26, r24
    6684:	cb 01       	movw	r24, r22
    6686:	2d 81       	ldd	r18, Y+5	; 0x05
    6688:	3e 81       	ldd	r19, Y+6	; 0x06
    668a:	4f 81       	ldd	r20, Y+7	; 0x07
    668c:	58 85       	ldd	r21, Y+8	; 0x08
    668e:	bc 01       	movw	r22, r24
    6690:	cd 01       	movw	r24, r26
    6692:	0e 94 fd 35 	call	0x6bfa	; 0x6bfa <__subsf3>
    6696:	dc 01       	movw	r26, r24
    6698:	cb 01       	movw	r24, r22
    669a:	9c 01       	movw	r18, r24
    669c:	ad 01       	movw	r20, r26
    669e:	c7 01       	movw	r24, r14
    66a0:	b6 01       	movw	r22, r12
    66a2:	0e 94 12 37 	call	0x6e24	; 0x6e24 <__divsf3>
    66a6:	dc 01       	movw	r26, r24
    66a8:	cb 01       	movw	r24, r22
    66aa:	89 83       	std	Y+1, r24	; 0x01
    66ac:	9a 83       	std	Y+2, r25	; 0x02
    66ae:	ab 83       	std	Y+3, r26	; 0x03
    66b0:	bc 83       	std	Y+4, r27	; 0x04
    66b2:	80 c0       	rjmp	.+256    	; 0x67b4 <calc_dewpoint+0x246>
	}
	else
	{
		temp_d = (22.46 * t)/(272.62 + t);
    66b4:	24 e1       	ldi	r18, 0x14	; 20
    66b6:	3e ea       	ldi	r19, 0xAE	; 174
    66b8:	43 eb       	ldi	r20, 0xB3	; 179
    66ba:	51 e4       	ldi	r21, 0x41	; 65
    66bc:	6d 85       	ldd	r22, Y+13	; 0x0d
    66be:	7e 85       	ldd	r23, Y+14	; 0x0e
    66c0:	8f 85       	ldd	r24, Y+15	; 0x0f
    66c2:	98 89       	ldd	r25, Y+16	; 0x10
    66c4:	0e 94 2d 36 	call	0x6c5a	; 0x6c5a <__mulsf3>
    66c8:	dc 01       	movw	r26, r24
    66ca:	cb 01       	movw	r24, r22
    66cc:	6c 01       	movw	r12, r24
    66ce:	7d 01       	movw	r14, r26
    66d0:	2c e5       	ldi	r18, 0x5C	; 92
    66d2:	3f e4       	ldi	r19, 0x4F	; 79
    66d4:	48 e8       	ldi	r20, 0x88	; 136
    66d6:	53 e4       	ldi	r21, 0x43	; 67
    66d8:	6d 85       	ldd	r22, Y+13	; 0x0d
    66da:	7e 85       	ldd	r23, Y+14	; 0x0e
    66dc:	8f 85       	ldd	r24, Y+15	; 0x0f
    66de:	98 89       	ldd	r25, Y+16	; 0x10
    66e0:	0e 94 d1 35 	call	0x6ba2	; 0x6ba2 <__addsf3>
    66e4:	dc 01       	movw	r26, r24
    66e6:	cb 01       	movw	r24, r22
    66e8:	9c 01       	movw	r18, r24
    66ea:	ad 01       	movw	r20, r26
    66ec:	c7 01       	movw	r24, r14
    66ee:	b6 01       	movw	r22, r12
    66f0:	0e 94 12 37 	call	0x6e24	; 0x6e24 <__divsf3>
    66f4:	dc 01       	movw	r26, r24
    66f6:	cb 01       	movw	r24, r22
    66f8:	8d 83       	std	Y+5, r24	; 0x05
    66fa:	9e 83       	std	Y+6, r25	; 0x06
    66fc:	af 83       	std	Y+7, r26	; 0x07
    66fe:	b8 87       	std	Y+8, r27	; 0x08
		dew_point = 272.62 * (log(h/100) + temp_d) / (22.46 - log(h/100) - temp_d);
    6700:	20 e0       	ldi	r18, 0x00	; 0
    6702:	30 e0       	ldi	r19, 0x00	; 0
    6704:	48 ec       	ldi	r20, 0xC8	; 200
    6706:	52 e4       	ldi	r21, 0x42	; 66
    6708:	69 85       	ldd	r22, Y+9	; 0x09
    670a:	7a 85       	ldd	r23, Y+10	; 0x0a
    670c:	8b 85       	ldd	r24, Y+11	; 0x0b
    670e:	9c 85       	ldd	r25, Y+12	; 0x0c
    6710:	0e 94 12 37 	call	0x6e24	; 0x6e24 <__divsf3>
    6714:	dc 01       	movw	r26, r24
    6716:	cb 01       	movw	r24, r22
    6718:	bc 01       	movw	r22, r24
    671a:	cd 01       	movw	r24, r26
    671c:	0e 94 67 3a 	call	0x74ce	; 0x74ce <log>
    6720:	dc 01       	movw	r26, r24
    6722:	cb 01       	movw	r24, r22
    6724:	2d 81       	ldd	r18, Y+5	; 0x05
    6726:	3e 81       	ldd	r19, Y+6	; 0x06
    6728:	4f 81       	ldd	r20, Y+7	; 0x07
    672a:	58 85       	ldd	r21, Y+8	; 0x08
    672c:	bc 01       	movw	r22, r24
    672e:	cd 01       	movw	r24, r26
    6730:	0e 94 d1 35 	call	0x6ba2	; 0x6ba2 <__addsf3>
    6734:	dc 01       	movw	r26, r24
    6736:	cb 01       	movw	r24, r22
    6738:	2c e5       	ldi	r18, 0x5C	; 92
    673a:	3f e4       	ldi	r19, 0x4F	; 79
    673c:	48 e8       	ldi	r20, 0x88	; 136
    673e:	53 e4       	ldi	r21, 0x43	; 67
    6740:	bc 01       	movw	r22, r24
    6742:	cd 01       	movw	r24, r26
    6744:	0e 94 2d 36 	call	0x6c5a	; 0x6c5a <__mulsf3>
    6748:	dc 01       	movw	r26, r24
    674a:	cb 01       	movw	r24, r22
    674c:	6c 01       	movw	r12, r24
    674e:	7d 01       	movw	r14, r26
    6750:	20 e0       	ldi	r18, 0x00	; 0
    6752:	30 e0       	ldi	r19, 0x00	; 0
    6754:	48 ec       	ldi	r20, 0xC8	; 200
    6756:	52 e4       	ldi	r21, 0x42	; 66
    6758:	69 85       	ldd	r22, Y+9	; 0x09
    675a:	7a 85       	ldd	r23, Y+10	; 0x0a
    675c:	8b 85       	ldd	r24, Y+11	; 0x0b
    675e:	9c 85       	ldd	r25, Y+12	; 0x0c
    6760:	0e 94 12 37 	call	0x6e24	; 0x6e24 <__divsf3>
    6764:	dc 01       	movw	r26, r24
    6766:	cb 01       	movw	r24, r22
    6768:	bc 01       	movw	r22, r24
    676a:	cd 01       	movw	r24, r26
    676c:	0e 94 67 3a 	call	0x74ce	; 0x74ce <log>
    6770:	dc 01       	movw	r26, r24
    6772:	cb 01       	movw	r24, r22
    6774:	9c 01       	movw	r18, r24
    6776:	ad 01       	movw	r20, r26
    6778:	64 e1       	ldi	r22, 0x14	; 20
    677a:	7e ea       	ldi	r23, 0xAE	; 174
    677c:	83 eb       	ldi	r24, 0xB3	; 179
    677e:	91 e4       	ldi	r25, 0x41	; 65
    6780:	0e 94 fd 35 	call	0x6bfa	; 0x6bfa <__subsf3>
    6784:	dc 01       	movw	r26, r24
    6786:	cb 01       	movw	r24, r22
    6788:	2d 81       	ldd	r18, Y+5	; 0x05
    678a:	3e 81       	ldd	r19, Y+6	; 0x06
    678c:	4f 81       	ldd	r20, Y+7	; 0x07
    678e:	58 85       	ldd	r21, Y+8	; 0x08
    6790:	bc 01       	movw	r22, r24
    6792:	cd 01       	movw	r24, r26
    6794:	0e 94 fd 35 	call	0x6bfa	; 0x6bfa <__subsf3>
    6798:	dc 01       	movw	r26, r24
    679a:	cb 01       	movw	r24, r22
    679c:	9c 01       	movw	r18, r24
    679e:	ad 01       	movw	r20, r26
    67a0:	c7 01       	movw	r24, r14
    67a2:	b6 01       	movw	r22, r12
    67a4:	0e 94 12 37 	call	0x6e24	; 0x6e24 <__divsf3>
    67a8:	dc 01       	movw	r26, r24
    67aa:	cb 01       	movw	r24, r22
    67ac:	89 83       	std	Y+1, r24	; 0x01
    67ae:	9a 83       	std	Y+2, r25	; 0x02
    67b0:	ab 83       	std	Y+3, r26	; 0x03
    67b2:	bc 83       	std	Y+4, r27	; 0x04
	}

	return dew_point;
    67b4:	89 81       	ldd	r24, Y+1	; 0x01
    67b6:	9a 81       	ldd	r25, Y+2	; 0x02
    67b8:	ab 81       	ldd	r26, Y+3	; 0x03
    67ba:	bc 81       	ldd	r27, Y+4	; 0x04
}
    67bc:	bc 01       	movw	r22, r24
    67be:	cd 01       	movw	r24, r26
    67c0:	60 96       	adiw	r28, 0x10	; 16
    67c2:	0f b6       	in	r0, 0x3f	; 63
    67c4:	f8 94       	cli
    67c6:	de bf       	out	0x3e, r29	; 62
    67c8:	0f be       	out	0x3f, r0	; 63
    67ca:	cd bf       	out	0x3d, r28	; 61
    67cc:	df 91       	pop	r29
    67ce:	cf 91       	pop	r28
    67d0:	ff 90       	pop	r15
    67d2:	ef 90       	pop	r14
    67d4:	df 90       	pop	r13
    67d6:	cf 90       	pop	r12
    67d8:	08 95       	ret

000067da <Init_LED_CTRL>:
#define DDRD_LED		DDRD
#define PORTD_LED		PORTD

void Init_LED_CTRL()
{
    67da:	cf 93       	push	r28
    67dc:	df 93       	push	r29
    67de:	cd b7       	in	r28, 0x3d	; 61
    67e0:	de b7       	in	r29, 0x3e	; 62
	DDRD_LED = 0xFF;
    67e2:	81 e3       	ldi	r24, 0x31	; 49
    67e4:	90 e0       	ldi	r25, 0x00	; 0
    67e6:	2f ef       	ldi	r18, 0xFF	; 255
    67e8:	fc 01       	movw	r30, r24
    67ea:	20 83       	st	Z, r18
	PORTD_LED = 0x00;
    67ec:	82 e3       	ldi	r24, 0x32	; 50
    67ee:	90 e0       	ldi	r25, 0x00	; 0
    67f0:	fc 01       	movw	r30, r24
    67f2:	10 82       	st	Z, r1
}
    67f4:	df 91       	pop	r29
    67f6:	cf 91       	pop	r28
    67f8:	08 95       	ret

000067fa <Init_DCMotor_CTRL>:
*/
#define DDRB_DCMOTOR	DDRB
#define PORTB_DCMOTOR	PORTB

void Init_DCMotor_CTRL()
{
    67fa:	cf 93       	push	r28
    67fc:	df 93       	push	r29
    67fe:	cd b7       	in	r28, 0x3d	; 61
    6800:	de b7       	in	r29, 0x3e	; 62
	DDRB_DCMOTOR = 0xFF;
    6802:	87 e3       	ldi	r24, 0x37	; 55
    6804:	90 e0       	ldi	r25, 0x00	; 0
    6806:	2f ef       	ldi	r18, 0xFF	; 255
    6808:	fc 01       	movw	r30, r24
    680a:	20 83       	st	Z, r18
	PORTB_DCMOTOR = 0x00;
    680c:	88 e3       	ldi	r24, 0x38	; 56
    680e:	90 e0       	ldi	r25, 0x00	; 0
    6810:	fc 01       	movw	r30, r24
    6812:	10 82       	st	Z, r1
}
    6814:	df 91       	pop	r29
    6816:	cf 91       	pop	r28
    6818:	08 95       	ret

0000681a <main>:
extern unsigned char error;
extern unsigned char checksum;
 
 
int main()
{	
    681a:	cf 93       	push	r28
    681c:	df 93       	push	r29
    681e:	cd b7       	in	r28, 0x3d	; 61
    6820:	de b7       	in	r29, 0x3e	; 62
    6822:	28 97       	sbiw	r28, 0x08	; 8
    6824:	0f b6       	in	r0, 0x3f	; 63
    6826:	f8 94       	cli
    6828:	de bf       	out	0x3e, r29	; 62
    682a:	0f be       	out	0x3f, r0	; 63
    682c:	cd bf       	out	0x3d, r28	; 61
	value humi_val, temp_val;
	float dew_point;
	unsigned int i;
	
	Init_LED_CTRL();
    682e:	0e 94 ed 33 	call	0x67da	; 0x67da <Init_LED_CTRL>
	Init_DCMotor_CTRL();
    6832:	0e 94 fd 33 	call	0x67fa	; 0x67fa <Init_DCMotor_CTRL>
	Init_BUTTON();
    6836:	0e 94 fd 00 	call	0x1fa	; 0x1fa <Init_BUTTON>
	Init_EXT_ISR();
    683a:	0e 94 f8 01 	call	0x3f0	; 0x3f0 <Init_EXT_ISR>
	//Init_TIMEINT_OVF();
	Init_TIMEINT_CTC();
    683e:	0e 94 e3 00 	call	0x1c6	; 0x1c6 <Init_TIMEINT_CTC>
	Init_UART(); //
    6842:	0e 94 06 15 	call	0x2a0c	; 0x2a0c <Init_UART>

	portOut();
    6846:	0e 94 09 02 	call	0x412	; 0x412 <portOut>
	Init_LCD();
    684a:	0e 94 03 13 	call	0x2606	; 0x2606 <Init_LCD>
	waitBusy(); 
    684e:	0e 94 2c 08 	call	0x1058	; 0x1058 <waitBusy>

	s_connectionreset(); //SHT Sensor Reset
    6852:	0e 94 69 2e 	call	0x5cd2	; 0x5cd2 <s_connectionreset>

	sei(); //Interrupt enable all
    6856:	78 94       	sei

	while(1)
	{
		PORTD_LED = 0xF0;
    6858:	82 e3       	ldi	r24, 0x32	; 50
    685a:	90 e0       	ldi	r25, 0x00	; 0
    685c:	20 ef       	ldi	r18, 0xF0	; 240
    685e:	fc 01       	movw	r30, r24
    6860:	20 83       	st	Z, r18
		delay_s(1000);
    6862:	88 ee       	ldi	r24, 0xE8	; 232
    6864:	93 e0       	ldi	r25, 0x03	; 3
    6866:	0e 94 b3 00 	call	0x166	; 0x166 <delay_s>
		PORTD_LED = 0xFF;
    686a:	82 e3       	ldi	r24, 0x32	; 50
    686c:	90 e0       	ldi	r25, 0x00	; 0
    686e:	2f ef       	ldi	r18, 0xFF	; 255
    6870:	fc 01       	movw	r30, r24
    6872:	20 83       	st	Z, r18
		delay_s(1000);
    6874:	88 ee       	ldi	r24, 0xE8	; 232
    6876:	93 e0       	ldi	r25, 0x03	; 3
    6878:	0e 94 b3 00 	call	0x166	; 0x166 <delay_s>
		PORTD_LED = 0x0F;
    687c:	82 e3       	ldi	r24, 0x32	; 50
    687e:	90 e0       	ldi	r25, 0x00	; 0
    6880:	2f e0       	ldi	r18, 0x0F	; 15
    6882:	fc 01       	movw	r30, r24
    6884:	20 83       	st	Z, r18
		delay_s(1000);
    6886:	88 ee       	ldi	r24, 0xE8	; 232
    6888:	93 e0       	ldi	r25, 0x03	; 3
    688a:	0e 94 b3 00 	call	0x166	; 0x166 <delay_s>
			writeSTR(str);
			waitBusy();
		
		}
		*/
	}
    688e:	e4 cf       	rjmp	.-56     	; 0x6858 <main+0x3e>

00006890 <__fixunssfsi>:
    6890:	cf 92       	push	r12
    6892:	df 92       	push	r13
    6894:	ef 92       	push	r14
    6896:	ff 92       	push	r15
    6898:	0f 93       	push	r16
    689a:	1f 93       	push	r17
    689c:	6b 01       	movw	r12, r22
    689e:	7c 01       	movw	r14, r24
    68a0:	20 e0       	ldi	r18, 0x00	; 0
    68a2:	30 e0       	ldi	r19, 0x00	; 0
    68a4:	40 e0       	ldi	r20, 0x00	; 0
    68a6:	5f e4       	ldi	r21, 0x4F	; 79
    68a8:	0e 94 e4 37 	call	0x6fc8	; 0x6fc8 <__gesf2>
    68ac:	87 fd       	sbrc	r24, 7
    68ae:	0e c0       	rjmp	.+28     	; 0x68cc <__fixunssfsi+0x3c>
    68b0:	20 e0       	ldi	r18, 0x00	; 0
    68b2:	30 e0       	ldi	r19, 0x00	; 0
    68b4:	40 e0       	ldi	r20, 0x00	; 0
    68b6:	5f e4       	ldi	r21, 0x4F	; 79
    68b8:	c7 01       	movw	r24, r14
    68ba:	b6 01       	movw	r22, r12
    68bc:	0e 94 fd 35 	call	0x6bfa	; 0x6bfa <__subsf3>
    68c0:	0e 94 42 38 	call	0x7084	; 0x7084 <__fixsfsi>
    68c4:	8b 01       	movw	r16, r22
    68c6:	9c 01       	movw	r18, r24
    68c8:	30 58       	subi	r19, 0x80	; 128
    68ca:	06 c0       	rjmp	.+12     	; 0x68d8 <__fixunssfsi+0x48>
    68cc:	c7 01       	movw	r24, r14
    68ce:	b6 01       	movw	r22, r12
    68d0:	0e 94 42 38 	call	0x7084	; 0x7084 <__fixsfsi>
    68d4:	8b 01       	movw	r16, r22
    68d6:	9c 01       	movw	r18, r24
    68d8:	b8 01       	movw	r22, r16
    68da:	c9 01       	movw	r24, r18
    68dc:	1f 91       	pop	r17
    68de:	0f 91       	pop	r16
    68e0:	ff 90       	pop	r15
    68e2:	ef 90       	pop	r14
    68e4:	df 90       	pop	r13
    68e6:	cf 90       	pop	r12
    68e8:	08 95       	ret

000068ea <_fpadd_parts>:
    68ea:	a4 e0       	ldi	r26, 0x04	; 4
    68ec:	b0 e0       	ldi	r27, 0x00	; 0
    68ee:	eb e7       	ldi	r30, 0x7B	; 123
    68f0:	f4 e3       	ldi	r31, 0x34	; 52
    68f2:	0c 94 2d 3a 	jmp	0x745a	; 0x745a <__prologue_saves__+0x4>
    68f6:	7c 01       	movw	r14, r24
    68f8:	6a 01       	movw	r12, r20
    68fa:	fc 01       	movw	r30, r24
    68fc:	80 81       	ld	r24, Z
    68fe:	82 30       	cpi	r24, 0x02	; 2
    6900:	08 f4       	brcc	.+2      	; 0x6904 <_fpadd_parts+0x1a>
    6902:	4a c1       	rjmp	.+660    	; 0x6b98 <_fpadd_parts+0x2ae>
    6904:	fb 01       	movw	r30, r22
    6906:	90 81       	ld	r25, Z
    6908:	92 30       	cpi	r25, 0x02	; 2
    690a:	08 f4       	brcc	.+2      	; 0x690e <_fpadd_parts+0x24>
    690c:	42 c1       	rjmp	.+644    	; 0x6b92 <_fpadd_parts+0x2a8>
    690e:	84 30       	cpi	r24, 0x04	; 4
    6910:	79 f4       	brne	.+30     	; 0x6930 <_fpadd_parts+0x46>
    6912:	94 30       	cpi	r25, 0x04	; 4
    6914:	09 f0       	breq	.+2      	; 0x6918 <_fpadd_parts+0x2e>
    6916:	40 c1       	rjmp	.+640    	; 0x6b98 <_fpadd_parts+0x2ae>
    6918:	f7 01       	movw	r30, r14
    691a:	91 81       	ldd	r25, Z+1	; 0x01
    691c:	fb 01       	movw	r30, r22
    691e:	81 81       	ldd	r24, Z+1	; 0x01
    6920:	98 17       	cp	r25, r24
    6922:	09 f4       	brne	.+2      	; 0x6926 <_fpadd_parts+0x3c>
    6924:	39 c1       	rjmp	.+626    	; 0x6b98 <_fpadd_parts+0x2ae>
    6926:	a4 e4       	ldi	r26, 0x44	; 68
    6928:	ea 2e       	mov	r14, r26
    692a:	a1 e0       	ldi	r26, 0x01	; 1
    692c:	fa 2e       	mov	r15, r26
    692e:	34 c1       	rjmp	.+616    	; 0x6b98 <_fpadd_parts+0x2ae>
    6930:	94 30       	cpi	r25, 0x04	; 4
    6932:	09 f4       	brne	.+2      	; 0x6936 <_fpadd_parts+0x4c>
    6934:	2e c1       	rjmp	.+604    	; 0x6b92 <_fpadd_parts+0x2a8>
    6936:	92 30       	cpi	r25, 0x02	; 2
    6938:	91 f4       	brne	.+36     	; 0x695e <_fpadd_parts+0x74>
    693a:	82 30       	cpi	r24, 0x02	; 2
    693c:	09 f0       	breq	.+2      	; 0x6940 <_fpadd_parts+0x56>
    693e:	2c c1       	rjmp	.+600    	; 0x6b98 <_fpadd_parts+0x2ae>
    6940:	88 e0       	ldi	r24, 0x08	; 8
    6942:	f7 01       	movw	r30, r14
    6944:	da 01       	movw	r26, r20
    6946:	01 90       	ld	r0, Z+
    6948:	0d 92       	st	X+, r0
    694a:	8a 95       	dec	r24
    694c:	e1 f7       	brne	.-8      	; 0x6946 <_fpadd_parts+0x5c>
    694e:	fb 01       	movw	r30, r22
    6950:	81 81       	ldd	r24, Z+1	; 0x01
    6952:	f7 01       	movw	r30, r14
    6954:	91 81       	ldd	r25, Z+1	; 0x01
    6956:	89 23       	and	r24, r25
    6958:	fa 01       	movw	r30, r20
    695a:	81 83       	std	Z+1, r24	; 0x01
    695c:	1c c1       	rjmp	.+568    	; 0x6b96 <_fpadd_parts+0x2ac>
    695e:	82 30       	cpi	r24, 0x02	; 2
    6960:	09 f4       	brne	.+2      	; 0x6964 <_fpadd_parts+0x7a>
    6962:	17 c1       	rjmp	.+558    	; 0x6b92 <_fpadd_parts+0x2a8>
    6964:	f7 01       	movw	r30, r14
    6966:	82 81       	ldd	r24, Z+2	; 0x02
    6968:	93 81       	ldd	r25, Z+3	; 0x03
    696a:	fb 01       	movw	r30, r22
    696c:	a2 81       	ldd	r26, Z+2	; 0x02
    696e:	b3 81       	ldd	r27, Z+3	; 0x03
    6970:	f7 01       	movw	r30, r14
    6972:	04 81       	ldd	r16, Z+4	; 0x04
    6974:	15 81       	ldd	r17, Z+5	; 0x05
    6976:	26 81       	ldd	r18, Z+6	; 0x06
    6978:	37 81       	ldd	r19, Z+7	; 0x07
    697a:	fb 01       	movw	r30, r22
    697c:	84 80       	ldd	r8, Z+4	; 0x04
    697e:	95 80       	ldd	r9, Z+5	; 0x05
    6980:	a6 80       	ldd	r10, Z+6	; 0x06
    6982:	b7 80       	ldd	r11, Z+7	; 0x07
    6984:	fc 01       	movw	r30, r24
    6986:	ea 1b       	sub	r30, r26
    6988:	fb 0b       	sbc	r31, r27
    698a:	af 01       	movw	r20, r30
    698c:	f7 ff       	sbrs	r31, 7
    698e:	04 c0       	rjmp	.+8      	; 0x6998 <_fpadd_parts+0xae>
    6990:	44 27       	eor	r20, r20
    6992:	55 27       	eor	r21, r21
    6994:	4e 1b       	sub	r20, r30
    6996:	5f 0b       	sbc	r21, r31
    6998:	40 32       	cpi	r20, 0x20	; 32
    699a:	51 05       	cpc	r21, r1
    699c:	0c f0       	brlt	.+2      	; 0x69a0 <_fpadd_parts+0xb6>
    699e:	74 c0       	rjmp	.+232    	; 0x6a88 <_fpadd_parts+0x19e>
    69a0:	1e 16       	cp	r1, r30
    69a2:	1f 06       	cpc	r1, r31
    69a4:	b4 f5       	brge	.+108    	; 0x6a12 <_fpadd_parts+0x128>
    69a6:	24 01       	movw	r4, r8
    69a8:	35 01       	movw	r6, r10
    69aa:	04 2e       	mov	r0, r20
    69ac:	04 c0       	rjmp	.+8      	; 0x69b6 <_fpadd_parts+0xcc>
    69ae:	76 94       	lsr	r7
    69b0:	67 94       	ror	r6
    69b2:	57 94       	ror	r5
    69b4:	47 94       	ror	r4
    69b6:	0a 94       	dec	r0
    69b8:	d2 f7       	brpl	.-12     	; 0x69ae <_fpadd_parts+0xc4>
    69ba:	49 82       	std	Y+1, r4	; 0x01
    69bc:	5a 82       	std	Y+2, r5	; 0x02
    69be:	6b 82       	std	Y+3, r6	; 0x03
    69c0:	7c 82       	std	Y+4, r7	; 0x04
    69c2:	41 2c       	mov	r4, r1
    69c4:	51 2c       	mov	r5, r1
    69c6:	32 01       	movw	r6, r4
    69c8:	43 94       	inc	r4
    69ca:	04 c0       	rjmp	.+8      	; 0x69d4 <_fpadd_parts+0xea>
    69cc:	44 0c       	add	r4, r4
    69ce:	55 1c       	adc	r5, r5
    69d0:	66 1c       	adc	r6, r6
    69d2:	77 1c       	adc	r7, r7
    69d4:	4a 95       	dec	r20
    69d6:	d2 f7       	brpl	.-12     	; 0x69cc <_fpadd_parts+0xe2>
    69d8:	41 e0       	ldi	r20, 0x01	; 1
    69da:	44 1a       	sub	r4, r20
    69dc:	51 08       	sbc	r5, r1
    69de:	61 08       	sbc	r6, r1
    69e0:	71 08       	sbc	r7, r1
    69e2:	48 20       	and	r4, r8
    69e4:	59 20       	and	r5, r9
    69e6:	6a 20       	and	r6, r10
    69e8:	7b 20       	and	r7, r11
    69ea:	81 2c       	mov	r8, r1
    69ec:	91 2c       	mov	r9, r1
    69ee:	54 01       	movw	r10, r8
    69f0:	83 94       	inc	r8
    69f2:	45 28       	or	r4, r5
    69f4:	46 28       	or	r4, r6
    69f6:	47 28       	or	r4, r7
    69f8:	19 f4       	brne	.+6      	; 0x6a00 <_fpadd_parts+0x116>
    69fa:	81 2c       	mov	r8, r1
    69fc:	91 2c       	mov	r9, r1
    69fe:	54 01       	movw	r10, r8
    6a00:	49 80       	ldd	r4, Y+1	; 0x01
    6a02:	5a 80       	ldd	r5, Y+2	; 0x02
    6a04:	6b 80       	ldd	r6, Y+3	; 0x03
    6a06:	7c 80       	ldd	r7, Y+4	; 0x04
    6a08:	84 28       	or	r8, r4
    6a0a:	95 28       	or	r9, r5
    6a0c:	a6 28       	or	r10, r6
    6a0e:	b7 28       	or	r11, r7
    6a10:	46 c0       	rjmp	.+140    	; 0x6a9e <_fpadd_parts+0x1b4>
    6a12:	ef 2b       	or	r30, r31
    6a14:	09 f4       	brne	.+2      	; 0x6a18 <_fpadd_parts+0x12e>
    6a16:	43 c0       	rjmp	.+134    	; 0x6a9e <_fpadd_parts+0x1b4>
    6a18:	84 0f       	add	r24, r20
    6a1a:	95 1f       	adc	r25, r21
    6a1c:	28 01       	movw	r4, r16
    6a1e:	39 01       	movw	r6, r18
    6a20:	04 2e       	mov	r0, r20
    6a22:	04 c0       	rjmp	.+8      	; 0x6a2c <_fpadd_parts+0x142>
    6a24:	76 94       	lsr	r7
    6a26:	67 94       	ror	r6
    6a28:	57 94       	ror	r5
    6a2a:	47 94       	ror	r4
    6a2c:	0a 94       	dec	r0
    6a2e:	d2 f7       	brpl	.-12     	; 0x6a24 <_fpadd_parts+0x13a>
    6a30:	49 82       	std	Y+1, r4	; 0x01
    6a32:	5a 82       	std	Y+2, r5	; 0x02
    6a34:	6b 82       	std	Y+3, r6	; 0x03
    6a36:	7c 82       	std	Y+4, r7	; 0x04
    6a38:	41 2c       	mov	r4, r1
    6a3a:	51 2c       	mov	r5, r1
    6a3c:	32 01       	movw	r6, r4
    6a3e:	43 94       	inc	r4
    6a40:	04 c0       	rjmp	.+8      	; 0x6a4a <_fpadd_parts+0x160>
    6a42:	44 0c       	add	r4, r4
    6a44:	55 1c       	adc	r5, r5
    6a46:	66 1c       	adc	r6, r6
    6a48:	77 1c       	adc	r7, r7
    6a4a:	4a 95       	dec	r20
    6a4c:	d2 f7       	brpl	.-12     	; 0x6a42 <_fpadd_parts+0x158>
    6a4e:	41 e0       	ldi	r20, 0x01	; 1
    6a50:	44 1a       	sub	r4, r20
    6a52:	51 08       	sbc	r5, r1
    6a54:	61 08       	sbc	r6, r1
    6a56:	71 08       	sbc	r7, r1
    6a58:	40 22       	and	r4, r16
    6a5a:	51 22       	and	r5, r17
    6a5c:	62 22       	and	r6, r18
    6a5e:	73 22       	and	r7, r19
    6a60:	01 e0       	ldi	r16, 0x01	; 1
    6a62:	10 e0       	ldi	r17, 0x00	; 0
    6a64:	20 e0       	ldi	r18, 0x00	; 0
    6a66:	30 e0       	ldi	r19, 0x00	; 0
    6a68:	45 28       	or	r4, r5
    6a6a:	46 28       	or	r4, r6
    6a6c:	47 28       	or	r4, r7
    6a6e:	19 f4       	brne	.+6      	; 0x6a76 <_fpadd_parts+0x18c>
    6a70:	00 e0       	ldi	r16, 0x00	; 0
    6a72:	10 e0       	ldi	r17, 0x00	; 0
    6a74:	98 01       	movw	r18, r16
    6a76:	49 80       	ldd	r4, Y+1	; 0x01
    6a78:	5a 80       	ldd	r5, Y+2	; 0x02
    6a7a:	6b 80       	ldd	r6, Y+3	; 0x03
    6a7c:	7c 80       	ldd	r7, Y+4	; 0x04
    6a7e:	04 29       	or	r16, r4
    6a80:	15 29       	or	r17, r5
    6a82:	26 29       	or	r18, r6
    6a84:	37 29       	or	r19, r7
    6a86:	0b c0       	rjmp	.+22     	; 0x6a9e <_fpadd_parts+0x1b4>
    6a88:	a8 17       	cp	r26, r24
    6a8a:	b9 07       	cpc	r27, r25
    6a8c:	24 f4       	brge	.+8      	; 0x6a96 <_fpadd_parts+0x1ac>
    6a8e:	81 2c       	mov	r8, r1
    6a90:	91 2c       	mov	r9, r1
    6a92:	54 01       	movw	r10, r8
    6a94:	04 c0       	rjmp	.+8      	; 0x6a9e <_fpadd_parts+0x1b4>
    6a96:	cd 01       	movw	r24, r26
    6a98:	00 e0       	ldi	r16, 0x00	; 0
    6a9a:	10 e0       	ldi	r17, 0x00	; 0
    6a9c:	98 01       	movw	r18, r16
    6a9e:	f7 01       	movw	r30, r14
    6aa0:	41 81       	ldd	r20, Z+1	; 0x01
    6aa2:	fb 01       	movw	r30, r22
    6aa4:	51 81       	ldd	r21, Z+1	; 0x01
    6aa6:	45 17       	cp	r20, r21
    6aa8:	09 f4       	brne	.+2      	; 0x6aac <_fpadd_parts+0x1c2>
    6aaa:	46 c0       	rjmp	.+140    	; 0x6b38 <_fpadd_parts+0x24e>
    6aac:	44 23       	and	r20, r20
    6aae:	49 f0       	breq	.+18     	; 0x6ac2 <_fpadd_parts+0x1d8>
    6ab0:	24 01       	movw	r4, r8
    6ab2:	35 01       	movw	r6, r10
    6ab4:	40 1a       	sub	r4, r16
    6ab6:	51 0a       	sbc	r5, r17
    6ab8:	62 0a       	sbc	r6, r18
    6aba:	73 0a       	sbc	r7, r19
    6abc:	93 01       	movw	r18, r6
    6abe:	82 01       	movw	r16, r4
    6ac0:	04 c0       	rjmp	.+8      	; 0x6aca <_fpadd_parts+0x1e0>
    6ac2:	08 19       	sub	r16, r8
    6ac4:	19 09       	sbc	r17, r9
    6ac6:	2a 09       	sbc	r18, r10
    6ac8:	3b 09       	sbc	r19, r11
    6aca:	37 fd       	sbrc	r19, 7
    6acc:	05 c0       	rjmp	.+10     	; 0x6ad8 <_fpadd_parts+0x1ee>
    6ace:	f6 01       	movw	r30, r12
    6ad0:	11 82       	std	Z+1, r1	; 0x01
    6ad2:	93 83       	std	Z+3, r25	; 0x03
    6ad4:	82 83       	std	Z+2, r24	; 0x02
    6ad6:	0c c0       	rjmp	.+24     	; 0x6af0 <_fpadd_parts+0x206>
    6ad8:	41 e0       	ldi	r20, 0x01	; 1
    6ada:	f6 01       	movw	r30, r12
    6adc:	41 83       	std	Z+1, r20	; 0x01
    6ade:	93 83       	std	Z+3, r25	; 0x03
    6ae0:	82 83       	std	Z+2, r24	; 0x02
    6ae2:	30 95       	com	r19
    6ae4:	20 95       	com	r18
    6ae6:	10 95       	com	r17
    6ae8:	01 95       	neg	r16
    6aea:	1f 4f       	sbci	r17, 0xFF	; 255
    6aec:	2f 4f       	sbci	r18, 0xFF	; 255
    6aee:	3f 4f       	sbci	r19, 0xFF	; 255
    6af0:	04 83       	std	Z+4, r16	; 0x04
    6af2:	15 83       	std	Z+5, r17	; 0x05
    6af4:	26 83       	std	Z+6, r18	; 0x06
    6af6:	37 83       	std	Z+7, r19	; 0x07
    6af8:	0e c0       	rjmp	.+28     	; 0x6b16 <_fpadd_parts+0x22c>
    6afa:	88 0f       	add	r24, r24
    6afc:	99 1f       	adc	r25, r25
    6afe:	aa 1f       	adc	r26, r26
    6b00:	bb 1f       	adc	r27, r27
    6b02:	f6 01       	movw	r30, r12
    6b04:	84 83       	std	Z+4, r24	; 0x04
    6b06:	95 83       	std	Z+5, r25	; 0x05
    6b08:	a6 83       	std	Z+6, r26	; 0x06
    6b0a:	b7 83       	std	Z+7, r27	; 0x07
    6b0c:	82 81       	ldd	r24, Z+2	; 0x02
    6b0e:	93 81       	ldd	r25, Z+3	; 0x03
    6b10:	01 97       	sbiw	r24, 0x01	; 1
    6b12:	93 83       	std	Z+3, r25	; 0x03
    6b14:	82 83       	std	Z+2, r24	; 0x02
    6b16:	f6 01       	movw	r30, r12
    6b18:	84 81       	ldd	r24, Z+4	; 0x04
    6b1a:	95 81       	ldd	r25, Z+5	; 0x05
    6b1c:	a6 81       	ldd	r26, Z+6	; 0x06
    6b1e:	b7 81       	ldd	r27, Z+7	; 0x07
    6b20:	ac 01       	movw	r20, r24
    6b22:	bd 01       	movw	r22, r26
    6b24:	41 50       	subi	r20, 0x01	; 1
    6b26:	51 09       	sbc	r21, r1
    6b28:	61 09       	sbc	r22, r1
    6b2a:	71 09       	sbc	r23, r1
    6b2c:	4f 3f       	cpi	r20, 0xFF	; 255
    6b2e:	5f 4f       	sbci	r21, 0xFF	; 255
    6b30:	6f 4f       	sbci	r22, 0xFF	; 255
    6b32:	7f 43       	sbci	r23, 0x3F	; 63
    6b34:	10 f3       	brcs	.-60     	; 0x6afa <_fpadd_parts+0x210>
    6b36:	0c c0       	rjmp	.+24     	; 0x6b50 <_fpadd_parts+0x266>
    6b38:	f6 01       	movw	r30, r12
    6b3a:	41 83       	std	Z+1, r20	; 0x01
    6b3c:	93 83       	std	Z+3, r25	; 0x03
    6b3e:	82 83       	std	Z+2, r24	; 0x02
    6b40:	08 0d       	add	r16, r8
    6b42:	19 1d       	adc	r17, r9
    6b44:	2a 1d       	adc	r18, r10
    6b46:	3b 1d       	adc	r19, r11
    6b48:	04 83       	std	Z+4, r16	; 0x04
    6b4a:	15 83       	std	Z+5, r17	; 0x05
    6b4c:	26 83       	std	Z+6, r18	; 0x06
    6b4e:	37 83       	std	Z+7, r19	; 0x07
    6b50:	83 e0       	ldi	r24, 0x03	; 3
    6b52:	f6 01       	movw	r30, r12
    6b54:	80 83       	st	Z, r24
    6b56:	44 81       	ldd	r20, Z+4	; 0x04
    6b58:	55 81       	ldd	r21, Z+5	; 0x05
    6b5a:	66 81       	ldd	r22, Z+6	; 0x06
    6b5c:	77 81       	ldd	r23, Z+7	; 0x07
    6b5e:	77 ff       	sbrs	r23, 7
    6b60:	1a c0       	rjmp	.+52     	; 0x6b96 <_fpadd_parts+0x2ac>
    6b62:	db 01       	movw	r26, r22
    6b64:	ca 01       	movw	r24, r20
    6b66:	81 70       	andi	r24, 0x01	; 1
    6b68:	99 27       	eor	r25, r25
    6b6a:	aa 27       	eor	r26, r26
    6b6c:	bb 27       	eor	r27, r27
    6b6e:	76 95       	lsr	r23
    6b70:	67 95       	ror	r22
    6b72:	57 95       	ror	r21
    6b74:	47 95       	ror	r20
    6b76:	84 2b       	or	r24, r20
    6b78:	95 2b       	or	r25, r21
    6b7a:	a6 2b       	or	r26, r22
    6b7c:	b7 2b       	or	r27, r23
    6b7e:	84 83       	std	Z+4, r24	; 0x04
    6b80:	95 83       	std	Z+5, r25	; 0x05
    6b82:	a6 83       	std	Z+6, r26	; 0x06
    6b84:	b7 83       	std	Z+7, r27	; 0x07
    6b86:	82 81       	ldd	r24, Z+2	; 0x02
    6b88:	93 81       	ldd	r25, Z+3	; 0x03
    6b8a:	01 96       	adiw	r24, 0x01	; 1
    6b8c:	93 83       	std	Z+3, r25	; 0x03
    6b8e:	82 83       	std	Z+2, r24	; 0x02
    6b90:	02 c0       	rjmp	.+4      	; 0x6b96 <_fpadd_parts+0x2ac>
    6b92:	7b 01       	movw	r14, r22
    6b94:	01 c0       	rjmp	.+2      	; 0x6b98 <_fpadd_parts+0x2ae>
    6b96:	76 01       	movw	r14, r12
    6b98:	c7 01       	movw	r24, r14
    6b9a:	24 96       	adiw	r28, 0x04	; 4
    6b9c:	e0 e1       	ldi	r30, 0x10	; 16
    6b9e:	0c 94 49 3a 	jmp	0x7492	; 0x7492 <__epilogue_restores__+0x4>

00006ba2 <__addsf3>:
    6ba2:	a0 e2       	ldi	r26, 0x20	; 32
    6ba4:	b0 e0       	ldi	r27, 0x00	; 0
    6ba6:	e7 ed       	ldi	r30, 0xD7	; 215
    6ba8:	f5 e3       	ldi	r31, 0x35	; 53
    6baa:	0c 94 3b 3a 	jmp	0x7476	; 0x7476 <__prologue_saves__+0x20>
    6bae:	6d 8f       	std	Y+29, r22	; 0x1d
    6bb0:	7e 8f       	std	Y+30, r23	; 0x1e
    6bb2:	8f 8f       	std	Y+31, r24	; 0x1f
    6bb4:	98 a3       	std	Y+32, r25	; 0x20
    6bb6:	29 8f       	std	Y+25, r18	; 0x19
    6bb8:	3a 8f       	std	Y+26, r19	; 0x1a
    6bba:	4b 8f       	std	Y+27, r20	; 0x1b
    6bbc:	5c 8f       	std	Y+28, r21	; 0x1c
    6bbe:	be 01       	movw	r22, r28
    6bc0:	6f 5e       	subi	r22, 0xEF	; 239
    6bc2:	7f 4f       	sbci	r23, 0xFF	; 255
    6bc4:	ce 01       	movw	r24, r28
    6bc6:	4d 96       	adiw	r24, 0x1d	; 29
    6bc8:	0e 94 5b 39 	call	0x72b6	; 0x72b6 <__unpack_f>
    6bcc:	be 01       	movw	r22, r28
    6bce:	67 5f       	subi	r22, 0xF7	; 247
    6bd0:	7f 4f       	sbci	r23, 0xFF	; 255
    6bd2:	ce 01       	movw	r24, r28
    6bd4:	49 96       	adiw	r24, 0x19	; 25
    6bd6:	0e 94 5b 39 	call	0x72b6	; 0x72b6 <__unpack_f>
    6bda:	ae 01       	movw	r20, r28
    6bdc:	4f 5f       	subi	r20, 0xFF	; 255
    6bde:	5f 4f       	sbci	r21, 0xFF	; 255
    6be0:	be 01       	movw	r22, r28
    6be2:	67 5f       	subi	r22, 0xF7	; 247
    6be4:	7f 4f       	sbci	r23, 0xFF	; 255
    6be6:	ce 01       	movw	r24, r28
    6be8:	41 96       	adiw	r24, 0x11	; 17
    6bea:	0e 94 75 34 	call	0x68ea	; 0x68ea <_fpadd_parts>
    6bee:	0e 94 91 38 	call	0x7122	; 0x7122 <__pack_f>
    6bf2:	a0 96       	adiw	r28, 0x20	; 32
    6bf4:	e2 e0       	ldi	r30, 0x02	; 2
    6bf6:	0c 94 57 3a 	jmp	0x74ae	; 0x74ae <__epilogue_restores__+0x20>

00006bfa <__subsf3>:
    6bfa:	a0 e2       	ldi	r26, 0x20	; 32
    6bfc:	b0 e0       	ldi	r27, 0x00	; 0
    6bfe:	e3 e0       	ldi	r30, 0x03	; 3
    6c00:	f6 e3       	ldi	r31, 0x36	; 54
    6c02:	0c 94 3b 3a 	jmp	0x7476	; 0x7476 <__prologue_saves__+0x20>
    6c06:	6d 8f       	std	Y+29, r22	; 0x1d
    6c08:	7e 8f       	std	Y+30, r23	; 0x1e
    6c0a:	8f 8f       	std	Y+31, r24	; 0x1f
    6c0c:	98 a3       	std	Y+32, r25	; 0x20
    6c0e:	29 8f       	std	Y+25, r18	; 0x19
    6c10:	3a 8f       	std	Y+26, r19	; 0x1a
    6c12:	4b 8f       	std	Y+27, r20	; 0x1b
    6c14:	5c 8f       	std	Y+28, r21	; 0x1c
    6c16:	be 01       	movw	r22, r28
    6c18:	6f 5e       	subi	r22, 0xEF	; 239
    6c1a:	7f 4f       	sbci	r23, 0xFF	; 255
    6c1c:	ce 01       	movw	r24, r28
    6c1e:	4d 96       	adiw	r24, 0x1d	; 29
    6c20:	0e 94 5b 39 	call	0x72b6	; 0x72b6 <__unpack_f>
    6c24:	be 01       	movw	r22, r28
    6c26:	67 5f       	subi	r22, 0xF7	; 247
    6c28:	7f 4f       	sbci	r23, 0xFF	; 255
    6c2a:	ce 01       	movw	r24, r28
    6c2c:	49 96       	adiw	r24, 0x19	; 25
    6c2e:	0e 94 5b 39 	call	0x72b6	; 0x72b6 <__unpack_f>
    6c32:	8a 85       	ldd	r24, Y+10	; 0x0a
    6c34:	91 e0       	ldi	r25, 0x01	; 1
    6c36:	89 27       	eor	r24, r25
    6c38:	8a 87       	std	Y+10, r24	; 0x0a
    6c3a:	ae 01       	movw	r20, r28
    6c3c:	4f 5f       	subi	r20, 0xFF	; 255
    6c3e:	5f 4f       	sbci	r21, 0xFF	; 255
    6c40:	be 01       	movw	r22, r28
    6c42:	67 5f       	subi	r22, 0xF7	; 247
    6c44:	7f 4f       	sbci	r23, 0xFF	; 255
    6c46:	ce 01       	movw	r24, r28
    6c48:	41 96       	adiw	r24, 0x11	; 17
    6c4a:	0e 94 75 34 	call	0x68ea	; 0x68ea <_fpadd_parts>
    6c4e:	0e 94 91 38 	call	0x7122	; 0x7122 <__pack_f>
    6c52:	a0 96       	adiw	r28, 0x20	; 32
    6c54:	e2 e0       	ldi	r30, 0x02	; 2
    6c56:	0c 94 57 3a 	jmp	0x74ae	; 0x74ae <__epilogue_restores__+0x20>

00006c5a <__mulsf3>:
    6c5a:	a0 e2       	ldi	r26, 0x20	; 32
    6c5c:	b0 e0       	ldi	r27, 0x00	; 0
    6c5e:	e3 e3       	ldi	r30, 0x33	; 51
    6c60:	f6 e3       	ldi	r31, 0x36	; 54
    6c62:	0c 94 2d 3a 	jmp	0x745a	; 0x745a <__prologue_saves__+0x4>
    6c66:	6d 8f       	std	Y+29, r22	; 0x1d
    6c68:	7e 8f       	std	Y+30, r23	; 0x1e
    6c6a:	8f 8f       	std	Y+31, r24	; 0x1f
    6c6c:	98 a3       	std	Y+32, r25	; 0x20
    6c6e:	29 8f       	std	Y+25, r18	; 0x19
    6c70:	3a 8f       	std	Y+26, r19	; 0x1a
    6c72:	4b 8f       	std	Y+27, r20	; 0x1b
    6c74:	5c 8f       	std	Y+28, r21	; 0x1c
    6c76:	be 01       	movw	r22, r28
    6c78:	6f 5e       	subi	r22, 0xEF	; 239
    6c7a:	7f 4f       	sbci	r23, 0xFF	; 255
    6c7c:	ce 01       	movw	r24, r28
    6c7e:	4d 96       	adiw	r24, 0x1d	; 29
    6c80:	0e 94 5b 39 	call	0x72b6	; 0x72b6 <__unpack_f>
    6c84:	be 01       	movw	r22, r28
    6c86:	67 5f       	subi	r22, 0xF7	; 247
    6c88:	7f 4f       	sbci	r23, 0xFF	; 255
    6c8a:	ce 01       	movw	r24, r28
    6c8c:	49 96       	adiw	r24, 0x19	; 25
    6c8e:	0e 94 5b 39 	call	0x72b6	; 0x72b6 <__unpack_f>
    6c92:	99 89       	ldd	r25, Y+17	; 0x11
    6c94:	92 30       	cpi	r25, 0x02	; 2
    6c96:	08 f4       	brcc	.+2      	; 0x6c9a <__mulsf3+0x40>
    6c98:	12 c0       	rjmp	.+36     	; 0x6cbe <__mulsf3+0x64>
    6c9a:	89 85       	ldd	r24, Y+9	; 0x09
    6c9c:	82 30       	cpi	r24, 0x02	; 2
    6c9e:	08 f4       	brcc	.+2      	; 0x6ca2 <__mulsf3+0x48>
    6ca0:	1a c0       	rjmp	.+52     	; 0x6cd6 <__mulsf3+0x7c>
    6ca2:	94 30       	cpi	r25, 0x04	; 4
    6ca4:	21 f4       	brne	.+8      	; 0x6cae <__mulsf3+0x54>
    6ca6:	82 30       	cpi	r24, 0x02	; 2
    6ca8:	09 f4       	brne	.+2      	; 0x6cac <__mulsf3+0x52>
    6caa:	b4 c0       	rjmp	.+360    	; 0x6e14 <__mulsf3+0x1ba>
    6cac:	08 c0       	rjmp	.+16     	; 0x6cbe <__mulsf3+0x64>
    6cae:	84 30       	cpi	r24, 0x04	; 4
    6cb0:	21 f4       	brne	.+8      	; 0x6cba <__mulsf3+0x60>
    6cb2:	92 30       	cpi	r25, 0x02	; 2
    6cb4:	09 f4       	brne	.+2      	; 0x6cb8 <__mulsf3+0x5e>
    6cb6:	ae c0       	rjmp	.+348    	; 0x6e14 <__mulsf3+0x1ba>
    6cb8:	0e c0       	rjmp	.+28     	; 0x6cd6 <__mulsf3+0x7c>
    6cba:	92 30       	cpi	r25, 0x02	; 2
    6cbc:	51 f4       	brne	.+20     	; 0x6cd2 <__mulsf3+0x78>
    6cbe:	81 e0       	ldi	r24, 0x01	; 1
    6cc0:	2a 89       	ldd	r18, Y+18	; 0x12
    6cc2:	9a 85       	ldd	r25, Y+10	; 0x0a
    6cc4:	29 13       	cpse	r18, r25
    6cc6:	01 c0       	rjmp	.+2      	; 0x6cca <__mulsf3+0x70>
    6cc8:	80 e0       	ldi	r24, 0x00	; 0
    6cca:	8a 8b       	std	Y+18, r24	; 0x12
    6ccc:	ce 01       	movw	r24, r28
    6cce:	41 96       	adiw	r24, 0x11	; 17
    6cd0:	a3 c0       	rjmp	.+326    	; 0x6e18 <__mulsf3+0x1be>
    6cd2:	82 30       	cpi	r24, 0x02	; 2
    6cd4:	51 f4       	brne	.+20     	; 0x6cea <__mulsf3+0x90>
    6cd6:	81 e0       	ldi	r24, 0x01	; 1
    6cd8:	2a 89       	ldd	r18, Y+18	; 0x12
    6cda:	9a 85       	ldd	r25, Y+10	; 0x0a
    6cdc:	29 13       	cpse	r18, r25
    6cde:	01 c0       	rjmp	.+2      	; 0x6ce2 <__mulsf3+0x88>
    6ce0:	80 e0       	ldi	r24, 0x00	; 0
    6ce2:	8a 87       	std	Y+10, r24	; 0x0a
    6ce4:	ce 01       	movw	r24, r28
    6ce6:	09 96       	adiw	r24, 0x09	; 9
    6ce8:	97 c0       	rjmp	.+302    	; 0x6e18 <__mulsf3+0x1be>
    6cea:	8d 88       	ldd	r8, Y+21	; 0x15
    6cec:	9e 88       	ldd	r9, Y+22	; 0x16
    6cee:	af 88       	ldd	r10, Y+23	; 0x17
    6cf0:	b8 8c       	ldd	r11, Y+24	; 0x18
    6cf2:	0d 85       	ldd	r16, Y+13	; 0x0d
    6cf4:	1e 85       	ldd	r17, Y+14	; 0x0e
    6cf6:	2f 85       	ldd	r18, Y+15	; 0x0f
    6cf8:	38 89       	ldd	r19, Y+16	; 0x10
    6cfa:	e0 e2       	ldi	r30, 0x20	; 32
    6cfc:	f0 e0       	ldi	r31, 0x00	; 0
    6cfe:	80 e0       	ldi	r24, 0x00	; 0
    6d00:	90 e0       	ldi	r25, 0x00	; 0
    6d02:	dc 01       	movw	r26, r24
    6d04:	c1 2c       	mov	r12, r1
    6d06:	d1 2c       	mov	r13, r1
    6d08:	76 01       	movw	r14, r12
    6d0a:	40 e0       	ldi	r20, 0x00	; 0
    6d0c:	50 e0       	ldi	r21, 0x00	; 0
    6d0e:	ba 01       	movw	r22, r20
    6d10:	80 fe       	sbrs	r8, 0
    6d12:	18 c0       	rjmp	.+48     	; 0x6d44 <__mulsf3+0xea>
    6d14:	40 0f       	add	r20, r16
    6d16:	51 1f       	adc	r21, r17
    6d18:	62 1f       	adc	r22, r18
    6d1a:	73 1f       	adc	r23, r19
    6d1c:	8c 0d       	add	r24, r12
    6d1e:	9d 1d       	adc	r25, r13
    6d20:	ae 1d       	adc	r26, r14
    6d22:	bf 1d       	adc	r27, r15
    6d24:	41 2c       	mov	r4, r1
    6d26:	51 2c       	mov	r5, r1
    6d28:	32 01       	movw	r6, r4
    6d2a:	43 94       	inc	r4
    6d2c:	40 17       	cp	r20, r16
    6d2e:	51 07       	cpc	r21, r17
    6d30:	62 07       	cpc	r22, r18
    6d32:	73 07       	cpc	r23, r19
    6d34:	18 f0       	brcs	.+6      	; 0x6d3c <__mulsf3+0xe2>
    6d36:	41 2c       	mov	r4, r1
    6d38:	51 2c       	mov	r5, r1
    6d3a:	32 01       	movw	r6, r4
    6d3c:	84 0d       	add	r24, r4
    6d3e:	95 1d       	adc	r25, r5
    6d40:	a6 1d       	adc	r26, r6
    6d42:	b7 1d       	adc	r27, r7
    6d44:	cc 0c       	add	r12, r12
    6d46:	dd 1c       	adc	r13, r13
    6d48:	ee 1c       	adc	r14, r14
    6d4a:	ff 1c       	adc	r15, r15
    6d4c:	37 ff       	sbrs	r19, 7
    6d4e:	02 c0       	rjmp	.+4      	; 0x6d54 <__mulsf3+0xfa>
    6d50:	68 94       	set
    6d52:	c0 f8       	bld	r12, 0
    6d54:	00 0f       	add	r16, r16
    6d56:	11 1f       	adc	r17, r17
    6d58:	22 1f       	adc	r18, r18
    6d5a:	33 1f       	adc	r19, r19
    6d5c:	b6 94       	lsr	r11
    6d5e:	a7 94       	ror	r10
    6d60:	97 94       	ror	r9
    6d62:	87 94       	ror	r8
    6d64:	31 97       	sbiw	r30, 0x01	; 1
    6d66:	a1 f6       	brne	.-88     	; 0x6d10 <__mulsf3+0xb6>
    6d68:	2b 89       	ldd	r18, Y+19	; 0x13
    6d6a:	3c 89       	ldd	r19, Y+20	; 0x14
    6d6c:	eb 85       	ldd	r30, Y+11	; 0x0b
    6d6e:	fc 85       	ldd	r31, Y+12	; 0x0c
    6d70:	2e 0f       	add	r18, r30
    6d72:	3f 1f       	adc	r19, r31
    6d74:	2e 5f       	subi	r18, 0xFE	; 254
    6d76:	3f 4f       	sbci	r19, 0xFF	; 255
    6d78:	3c 83       	std	Y+4, r19	; 0x04
    6d7a:	2b 83       	std	Y+3, r18	; 0x03
    6d7c:	21 e0       	ldi	r18, 0x01	; 1
    6d7e:	ea 89       	ldd	r30, Y+18	; 0x12
    6d80:	3a 85       	ldd	r19, Y+10	; 0x0a
    6d82:	e3 13       	cpse	r30, r19
    6d84:	01 c0       	rjmp	.+2      	; 0x6d88 <__mulsf3+0x12e>
    6d86:	20 e0       	ldi	r18, 0x00	; 0
    6d88:	2a 83       	std	Y+2, r18	; 0x02
    6d8a:	eb 81       	ldd	r30, Y+3	; 0x03
    6d8c:	fc 81       	ldd	r31, Y+4	; 0x04
    6d8e:	0c c0       	rjmp	.+24     	; 0x6da8 <__mulsf3+0x14e>
    6d90:	80 ff       	sbrs	r24, 0
    6d92:	05 c0       	rjmp	.+10     	; 0x6d9e <__mulsf3+0x144>
    6d94:	76 95       	lsr	r23
    6d96:	67 95       	ror	r22
    6d98:	57 95       	ror	r21
    6d9a:	47 95       	ror	r20
    6d9c:	70 68       	ori	r23, 0x80	; 128
    6d9e:	b6 95       	lsr	r27
    6da0:	a7 95       	ror	r26
    6da2:	97 95       	ror	r25
    6da4:	87 95       	ror	r24
    6da6:	31 96       	adiw	r30, 0x01	; 1
    6da8:	b7 fd       	sbrc	r27, 7
    6daa:	f2 cf       	rjmp	.-28     	; 0x6d90 <__mulsf3+0x136>
    6dac:	9f 01       	movw	r18, r30
    6dae:	0c c0       	rjmp	.+24     	; 0x6dc8 <__mulsf3+0x16e>
    6db0:	88 0f       	add	r24, r24
    6db2:	99 1f       	adc	r25, r25
    6db4:	aa 1f       	adc	r26, r26
    6db6:	bb 1f       	adc	r27, r27
    6db8:	77 fd       	sbrc	r23, 7
    6dba:	81 60       	ori	r24, 0x01	; 1
    6dbc:	44 0f       	add	r20, r20
    6dbe:	55 1f       	adc	r21, r21
    6dc0:	66 1f       	adc	r22, r22
    6dc2:	77 1f       	adc	r23, r23
    6dc4:	21 50       	subi	r18, 0x01	; 1
    6dc6:	31 09       	sbc	r19, r1
    6dc8:	00 97       	sbiw	r24, 0x00	; 0
    6dca:	a1 05       	cpc	r26, r1
    6dcc:	e0 e4       	ldi	r30, 0x40	; 64
    6dce:	be 07       	cpc	r27, r30
    6dd0:	78 f3       	brcs	.-34     	; 0x6db0 <__mulsf3+0x156>
    6dd2:	2b 83       	std	Y+3, r18	; 0x03
    6dd4:	3c 83       	std	Y+4, r19	; 0x04
    6dd6:	8c 01       	movw	r16, r24
    6dd8:	9d 01       	movw	r18, r26
    6dda:	0f 77       	andi	r16, 0x7F	; 127
    6ddc:	11 27       	eor	r17, r17
    6dde:	22 27       	eor	r18, r18
    6de0:	33 27       	eor	r19, r19
    6de2:	00 34       	cpi	r16, 0x40	; 64
    6de4:	11 05       	cpc	r17, r1
    6de6:	21 05       	cpc	r18, r1
    6de8:	31 05       	cpc	r19, r1
    6dea:	59 f4       	brne	.+22     	; 0x6e02 <__mulsf3+0x1a8>
    6dec:	87 fd       	sbrc	r24, 7
    6dee:	09 c0       	rjmp	.+18     	; 0x6e02 <__mulsf3+0x1a8>
    6df0:	45 2b       	or	r20, r21
    6df2:	46 2b       	or	r20, r22
    6df4:	47 2b       	or	r20, r23
    6df6:	29 f0       	breq	.+10     	; 0x6e02 <__mulsf3+0x1a8>
    6df8:	80 5c       	subi	r24, 0xC0	; 192
    6dfa:	9f 4f       	sbci	r25, 0xFF	; 255
    6dfc:	af 4f       	sbci	r26, 0xFF	; 255
    6dfe:	bf 4f       	sbci	r27, 0xFF	; 255
    6e00:	80 78       	andi	r24, 0x80	; 128
    6e02:	8d 83       	std	Y+5, r24	; 0x05
    6e04:	9e 83       	std	Y+6, r25	; 0x06
    6e06:	af 83       	std	Y+7, r26	; 0x07
    6e08:	b8 87       	std	Y+8, r27	; 0x08
    6e0a:	83 e0       	ldi	r24, 0x03	; 3
    6e0c:	89 83       	std	Y+1, r24	; 0x01
    6e0e:	ce 01       	movw	r24, r28
    6e10:	01 96       	adiw	r24, 0x01	; 1
    6e12:	02 c0       	rjmp	.+4      	; 0x6e18 <__mulsf3+0x1be>
    6e14:	84 e4       	ldi	r24, 0x44	; 68
    6e16:	91 e0       	ldi	r25, 0x01	; 1
    6e18:	0e 94 91 38 	call	0x7122	; 0x7122 <__pack_f>
    6e1c:	a0 96       	adiw	r28, 0x20	; 32
    6e1e:	e0 e1       	ldi	r30, 0x10	; 16
    6e20:	0c 94 49 3a 	jmp	0x7492	; 0x7492 <__epilogue_restores__+0x4>

00006e24 <__divsf3>:
    6e24:	a8 e1       	ldi	r26, 0x18	; 24
    6e26:	b0 e0       	ldi	r27, 0x00	; 0
    6e28:	e8 e1       	ldi	r30, 0x18	; 24
    6e2a:	f7 e3       	ldi	r31, 0x37	; 55
    6e2c:	0c 94 35 3a 	jmp	0x746a	; 0x746a <__prologue_saves__+0x14>
    6e30:	6d 8b       	std	Y+21, r22	; 0x15
    6e32:	7e 8b       	std	Y+22, r23	; 0x16
    6e34:	8f 8b       	std	Y+23, r24	; 0x17
    6e36:	98 8f       	std	Y+24, r25	; 0x18
    6e38:	29 8b       	std	Y+17, r18	; 0x11
    6e3a:	3a 8b       	std	Y+18, r19	; 0x12
    6e3c:	4b 8b       	std	Y+19, r20	; 0x13
    6e3e:	5c 8b       	std	Y+20, r21	; 0x14
    6e40:	be 01       	movw	r22, r28
    6e42:	67 5f       	subi	r22, 0xF7	; 247
    6e44:	7f 4f       	sbci	r23, 0xFF	; 255
    6e46:	ce 01       	movw	r24, r28
    6e48:	45 96       	adiw	r24, 0x15	; 21
    6e4a:	0e 94 5b 39 	call	0x72b6	; 0x72b6 <__unpack_f>
    6e4e:	be 01       	movw	r22, r28
    6e50:	6f 5f       	subi	r22, 0xFF	; 255
    6e52:	7f 4f       	sbci	r23, 0xFF	; 255
    6e54:	ce 01       	movw	r24, r28
    6e56:	41 96       	adiw	r24, 0x11	; 17
    6e58:	0e 94 5b 39 	call	0x72b6	; 0x72b6 <__unpack_f>
    6e5c:	99 85       	ldd	r25, Y+9	; 0x09
    6e5e:	92 30       	cpi	r25, 0x02	; 2
    6e60:	08 f4       	brcc	.+2      	; 0x6e64 <__divsf3+0x40>
    6e62:	75 c0       	rjmp	.+234    	; 0x6f4e <__divsf3+0x12a>
    6e64:	89 81       	ldd	r24, Y+1	; 0x01
    6e66:	82 30       	cpi	r24, 0x02	; 2
    6e68:	08 f4       	brcc	.+2      	; 0x6e6c <__divsf3+0x48>
    6e6a:	74 c0       	rjmp	.+232    	; 0x6f54 <__divsf3+0x130>
    6e6c:	2a 85       	ldd	r18, Y+10	; 0x0a
    6e6e:	3a 81       	ldd	r19, Y+2	; 0x02
    6e70:	23 27       	eor	r18, r19
    6e72:	2a 87       	std	Y+10, r18	; 0x0a
    6e74:	94 30       	cpi	r25, 0x04	; 4
    6e76:	11 f0       	breq	.+4      	; 0x6e7c <__divsf3+0x58>
    6e78:	92 30       	cpi	r25, 0x02	; 2
    6e7a:	19 f4       	brne	.+6      	; 0x6e82 <__divsf3+0x5e>
    6e7c:	98 13       	cpse	r25, r24
    6e7e:	67 c0       	rjmp	.+206    	; 0x6f4e <__divsf3+0x12a>
    6e80:	6c c0       	rjmp	.+216    	; 0x6f5a <__divsf3+0x136>
    6e82:	84 30       	cpi	r24, 0x04	; 4
    6e84:	39 f4       	brne	.+14     	; 0x6e94 <__divsf3+0x70>
    6e86:	1d 86       	std	Y+13, r1	; 0x0d
    6e88:	1e 86       	std	Y+14, r1	; 0x0e
    6e8a:	1f 86       	std	Y+15, r1	; 0x0f
    6e8c:	18 8a       	std	Y+16, r1	; 0x10
    6e8e:	1c 86       	std	Y+12, r1	; 0x0c
    6e90:	1b 86       	std	Y+11, r1	; 0x0b
    6e92:	04 c0       	rjmp	.+8      	; 0x6e9c <__divsf3+0x78>
    6e94:	82 30       	cpi	r24, 0x02	; 2
    6e96:	29 f4       	brne	.+10     	; 0x6ea2 <__divsf3+0x7e>
    6e98:	84 e0       	ldi	r24, 0x04	; 4
    6e9a:	89 87       	std	Y+9, r24	; 0x09
    6e9c:	ce 01       	movw	r24, r28
    6e9e:	09 96       	adiw	r24, 0x09	; 9
    6ea0:	5e c0       	rjmp	.+188    	; 0x6f5e <__divsf3+0x13a>
    6ea2:	8b 85       	ldd	r24, Y+11	; 0x0b
    6ea4:	9c 85       	ldd	r25, Y+12	; 0x0c
    6ea6:	2b 81       	ldd	r18, Y+3	; 0x03
    6ea8:	3c 81       	ldd	r19, Y+4	; 0x04
    6eaa:	82 1b       	sub	r24, r18
    6eac:	93 0b       	sbc	r25, r19
    6eae:	9c 87       	std	Y+12, r25	; 0x0c
    6eb0:	8b 87       	std	Y+11, r24	; 0x0b
    6eb2:	4d 85       	ldd	r20, Y+13	; 0x0d
    6eb4:	5e 85       	ldd	r21, Y+14	; 0x0e
    6eb6:	6f 85       	ldd	r22, Y+15	; 0x0f
    6eb8:	78 89       	ldd	r23, Y+16	; 0x10
    6eba:	cd 80       	ldd	r12, Y+5	; 0x05
    6ebc:	de 80       	ldd	r13, Y+6	; 0x06
    6ebe:	ef 80       	ldd	r14, Y+7	; 0x07
    6ec0:	f8 84       	ldd	r15, Y+8	; 0x08
    6ec2:	4c 15       	cp	r20, r12
    6ec4:	5d 05       	cpc	r21, r13
    6ec6:	6e 05       	cpc	r22, r14
    6ec8:	7f 05       	cpc	r23, r15
    6eca:	38 f4       	brcc	.+14     	; 0x6eda <__divsf3+0xb6>
    6ecc:	44 0f       	add	r20, r20
    6ece:	55 1f       	adc	r21, r21
    6ed0:	66 1f       	adc	r22, r22
    6ed2:	77 1f       	adc	r23, r23
    6ed4:	01 97       	sbiw	r24, 0x01	; 1
    6ed6:	9c 87       	std	Y+12, r25	; 0x0c
    6ed8:	8b 87       	std	Y+11, r24	; 0x0b
    6eda:	ef e1       	ldi	r30, 0x1F	; 31
    6edc:	f0 e0       	ldi	r31, 0x00	; 0
    6ede:	00 e0       	ldi	r16, 0x00	; 0
    6ee0:	10 e0       	ldi	r17, 0x00	; 0
    6ee2:	20 e0       	ldi	r18, 0x00	; 0
    6ee4:	30 e4       	ldi	r19, 0x40	; 64
    6ee6:	80 e0       	ldi	r24, 0x00	; 0
    6ee8:	90 e0       	ldi	r25, 0x00	; 0
    6eea:	dc 01       	movw	r26, r24
    6eec:	4c 15       	cp	r20, r12
    6eee:	5d 05       	cpc	r21, r13
    6ef0:	6e 05       	cpc	r22, r14
    6ef2:	7f 05       	cpc	r23, r15
    6ef4:	40 f0       	brcs	.+16     	; 0x6f06 <__divsf3+0xe2>
    6ef6:	80 2b       	or	r24, r16
    6ef8:	91 2b       	or	r25, r17
    6efa:	a2 2b       	or	r26, r18
    6efc:	b3 2b       	or	r27, r19
    6efe:	4c 19       	sub	r20, r12
    6f00:	5d 09       	sbc	r21, r13
    6f02:	6e 09       	sbc	r22, r14
    6f04:	7f 09       	sbc	r23, r15
    6f06:	36 95       	lsr	r19
    6f08:	27 95       	ror	r18
    6f0a:	17 95       	ror	r17
    6f0c:	07 95       	ror	r16
    6f0e:	44 0f       	add	r20, r20
    6f10:	55 1f       	adc	r21, r21
    6f12:	66 1f       	adc	r22, r22
    6f14:	77 1f       	adc	r23, r23
    6f16:	31 97       	sbiw	r30, 0x01	; 1
    6f18:	49 f7       	brne	.-46     	; 0x6eec <__divsf3+0xc8>
    6f1a:	8c 01       	movw	r16, r24
    6f1c:	9d 01       	movw	r18, r26
    6f1e:	0f 77       	andi	r16, 0x7F	; 127
    6f20:	11 27       	eor	r17, r17
    6f22:	22 27       	eor	r18, r18
    6f24:	33 27       	eor	r19, r19
    6f26:	00 34       	cpi	r16, 0x40	; 64
    6f28:	11 05       	cpc	r17, r1
    6f2a:	21 05       	cpc	r18, r1
    6f2c:	31 05       	cpc	r19, r1
    6f2e:	59 f4       	brne	.+22     	; 0x6f46 <__divsf3+0x122>
    6f30:	87 fd       	sbrc	r24, 7
    6f32:	09 c0       	rjmp	.+18     	; 0x6f46 <__divsf3+0x122>
    6f34:	45 2b       	or	r20, r21
    6f36:	46 2b       	or	r20, r22
    6f38:	47 2b       	or	r20, r23
    6f3a:	29 f0       	breq	.+10     	; 0x6f46 <__divsf3+0x122>
    6f3c:	80 5c       	subi	r24, 0xC0	; 192
    6f3e:	9f 4f       	sbci	r25, 0xFF	; 255
    6f40:	af 4f       	sbci	r26, 0xFF	; 255
    6f42:	bf 4f       	sbci	r27, 0xFF	; 255
    6f44:	80 78       	andi	r24, 0x80	; 128
    6f46:	8d 87       	std	Y+13, r24	; 0x0d
    6f48:	9e 87       	std	Y+14, r25	; 0x0e
    6f4a:	af 87       	std	Y+15, r26	; 0x0f
    6f4c:	b8 8b       	std	Y+16, r27	; 0x10
    6f4e:	ce 01       	movw	r24, r28
    6f50:	09 96       	adiw	r24, 0x09	; 9
    6f52:	05 c0       	rjmp	.+10     	; 0x6f5e <__divsf3+0x13a>
    6f54:	ce 01       	movw	r24, r28
    6f56:	01 96       	adiw	r24, 0x01	; 1
    6f58:	02 c0       	rjmp	.+4      	; 0x6f5e <__divsf3+0x13a>
    6f5a:	84 e4       	ldi	r24, 0x44	; 68
    6f5c:	91 e0       	ldi	r25, 0x01	; 1
    6f5e:	0e 94 91 38 	call	0x7122	; 0x7122 <__pack_f>
    6f62:	68 96       	adiw	r28, 0x18	; 24
    6f64:	e8 e0       	ldi	r30, 0x08	; 8
    6f66:	0c 94 51 3a 	jmp	0x74a2	; 0x74a2 <__epilogue_restores__+0x14>

00006f6a <__gtsf2>:
    6f6a:	a8 e1       	ldi	r26, 0x18	; 24
    6f6c:	b0 e0       	ldi	r27, 0x00	; 0
    6f6e:	eb eb       	ldi	r30, 0xBB	; 187
    6f70:	f7 e3       	ldi	r31, 0x37	; 55
    6f72:	0c 94 3b 3a 	jmp	0x7476	; 0x7476 <__prologue_saves__+0x20>
    6f76:	6d 8b       	std	Y+21, r22	; 0x15
    6f78:	7e 8b       	std	Y+22, r23	; 0x16
    6f7a:	8f 8b       	std	Y+23, r24	; 0x17
    6f7c:	98 8f       	std	Y+24, r25	; 0x18
    6f7e:	29 8b       	std	Y+17, r18	; 0x11
    6f80:	3a 8b       	std	Y+18, r19	; 0x12
    6f82:	4b 8b       	std	Y+19, r20	; 0x13
    6f84:	5c 8b       	std	Y+20, r21	; 0x14
    6f86:	be 01       	movw	r22, r28
    6f88:	67 5f       	subi	r22, 0xF7	; 247
    6f8a:	7f 4f       	sbci	r23, 0xFF	; 255
    6f8c:	ce 01       	movw	r24, r28
    6f8e:	45 96       	adiw	r24, 0x15	; 21
    6f90:	0e 94 5b 39 	call	0x72b6	; 0x72b6 <__unpack_f>
    6f94:	be 01       	movw	r22, r28
    6f96:	6f 5f       	subi	r22, 0xFF	; 255
    6f98:	7f 4f       	sbci	r23, 0xFF	; 255
    6f9a:	ce 01       	movw	r24, r28
    6f9c:	41 96       	adiw	r24, 0x11	; 17
    6f9e:	0e 94 5b 39 	call	0x72b6	; 0x72b6 <__unpack_f>
    6fa2:	89 85       	ldd	r24, Y+9	; 0x09
    6fa4:	82 30       	cpi	r24, 0x02	; 2
    6fa6:	58 f0       	brcs	.+22     	; 0x6fbe <__gtsf2+0x54>
    6fa8:	89 81       	ldd	r24, Y+1	; 0x01
    6faa:	82 30       	cpi	r24, 0x02	; 2
    6fac:	40 f0       	brcs	.+16     	; 0x6fbe <__gtsf2+0x54>
    6fae:	be 01       	movw	r22, r28
    6fb0:	6f 5f       	subi	r22, 0xFF	; 255
    6fb2:	7f 4f       	sbci	r23, 0xFF	; 255
    6fb4:	ce 01       	movw	r24, r28
    6fb6:	09 96       	adiw	r24, 0x09	; 9
    6fb8:	0e 94 ca 39 	call	0x7394	; 0x7394 <__fpcmp_parts_f>
    6fbc:	01 c0       	rjmp	.+2      	; 0x6fc0 <__gtsf2+0x56>
    6fbe:	8f ef       	ldi	r24, 0xFF	; 255
    6fc0:	68 96       	adiw	r28, 0x18	; 24
    6fc2:	e2 e0       	ldi	r30, 0x02	; 2
    6fc4:	0c 94 57 3a 	jmp	0x74ae	; 0x74ae <__epilogue_restores__+0x20>

00006fc8 <__gesf2>:
    6fc8:	a8 e1       	ldi	r26, 0x18	; 24
    6fca:	b0 e0       	ldi	r27, 0x00	; 0
    6fcc:	ea ee       	ldi	r30, 0xEA	; 234
    6fce:	f7 e3       	ldi	r31, 0x37	; 55
    6fd0:	0c 94 3b 3a 	jmp	0x7476	; 0x7476 <__prologue_saves__+0x20>
    6fd4:	6d 8b       	std	Y+21, r22	; 0x15
    6fd6:	7e 8b       	std	Y+22, r23	; 0x16
    6fd8:	8f 8b       	std	Y+23, r24	; 0x17
    6fda:	98 8f       	std	Y+24, r25	; 0x18
    6fdc:	29 8b       	std	Y+17, r18	; 0x11
    6fde:	3a 8b       	std	Y+18, r19	; 0x12
    6fe0:	4b 8b       	std	Y+19, r20	; 0x13
    6fe2:	5c 8b       	std	Y+20, r21	; 0x14
    6fe4:	be 01       	movw	r22, r28
    6fe6:	67 5f       	subi	r22, 0xF7	; 247
    6fe8:	7f 4f       	sbci	r23, 0xFF	; 255
    6fea:	ce 01       	movw	r24, r28
    6fec:	45 96       	adiw	r24, 0x15	; 21
    6fee:	0e 94 5b 39 	call	0x72b6	; 0x72b6 <__unpack_f>
    6ff2:	be 01       	movw	r22, r28
    6ff4:	6f 5f       	subi	r22, 0xFF	; 255
    6ff6:	7f 4f       	sbci	r23, 0xFF	; 255
    6ff8:	ce 01       	movw	r24, r28
    6ffa:	41 96       	adiw	r24, 0x11	; 17
    6ffc:	0e 94 5b 39 	call	0x72b6	; 0x72b6 <__unpack_f>
    7000:	89 85       	ldd	r24, Y+9	; 0x09
    7002:	82 30       	cpi	r24, 0x02	; 2
    7004:	58 f0       	brcs	.+22     	; 0x701c <__gesf2+0x54>
    7006:	89 81       	ldd	r24, Y+1	; 0x01
    7008:	82 30       	cpi	r24, 0x02	; 2
    700a:	40 f0       	brcs	.+16     	; 0x701c <__gesf2+0x54>
    700c:	be 01       	movw	r22, r28
    700e:	6f 5f       	subi	r22, 0xFF	; 255
    7010:	7f 4f       	sbci	r23, 0xFF	; 255
    7012:	ce 01       	movw	r24, r28
    7014:	09 96       	adiw	r24, 0x09	; 9
    7016:	0e 94 ca 39 	call	0x7394	; 0x7394 <__fpcmp_parts_f>
    701a:	01 c0       	rjmp	.+2      	; 0x701e <__gesf2+0x56>
    701c:	8f ef       	ldi	r24, 0xFF	; 255
    701e:	68 96       	adiw	r28, 0x18	; 24
    7020:	e2 e0       	ldi	r30, 0x02	; 2
    7022:	0c 94 57 3a 	jmp	0x74ae	; 0x74ae <__epilogue_restores__+0x20>

00007026 <__ltsf2>:
    7026:	a8 e1       	ldi	r26, 0x18	; 24
    7028:	b0 e0       	ldi	r27, 0x00	; 0
    702a:	e9 e1       	ldi	r30, 0x19	; 25
    702c:	f8 e3       	ldi	r31, 0x38	; 56
    702e:	0c 94 3b 3a 	jmp	0x7476	; 0x7476 <__prologue_saves__+0x20>
    7032:	6d 8b       	std	Y+21, r22	; 0x15
    7034:	7e 8b       	std	Y+22, r23	; 0x16
    7036:	8f 8b       	std	Y+23, r24	; 0x17
    7038:	98 8f       	std	Y+24, r25	; 0x18
    703a:	29 8b       	std	Y+17, r18	; 0x11
    703c:	3a 8b       	std	Y+18, r19	; 0x12
    703e:	4b 8b       	std	Y+19, r20	; 0x13
    7040:	5c 8b       	std	Y+20, r21	; 0x14
    7042:	be 01       	movw	r22, r28
    7044:	67 5f       	subi	r22, 0xF7	; 247
    7046:	7f 4f       	sbci	r23, 0xFF	; 255
    7048:	ce 01       	movw	r24, r28
    704a:	45 96       	adiw	r24, 0x15	; 21
    704c:	0e 94 5b 39 	call	0x72b6	; 0x72b6 <__unpack_f>
    7050:	be 01       	movw	r22, r28
    7052:	6f 5f       	subi	r22, 0xFF	; 255
    7054:	7f 4f       	sbci	r23, 0xFF	; 255
    7056:	ce 01       	movw	r24, r28
    7058:	41 96       	adiw	r24, 0x11	; 17
    705a:	0e 94 5b 39 	call	0x72b6	; 0x72b6 <__unpack_f>
    705e:	89 85       	ldd	r24, Y+9	; 0x09
    7060:	82 30       	cpi	r24, 0x02	; 2
    7062:	58 f0       	brcs	.+22     	; 0x707a <__ltsf2+0x54>
    7064:	89 81       	ldd	r24, Y+1	; 0x01
    7066:	82 30       	cpi	r24, 0x02	; 2
    7068:	40 f0       	brcs	.+16     	; 0x707a <__ltsf2+0x54>
    706a:	be 01       	movw	r22, r28
    706c:	6f 5f       	subi	r22, 0xFF	; 255
    706e:	7f 4f       	sbci	r23, 0xFF	; 255
    7070:	ce 01       	movw	r24, r28
    7072:	09 96       	adiw	r24, 0x09	; 9
    7074:	0e 94 ca 39 	call	0x7394	; 0x7394 <__fpcmp_parts_f>
    7078:	01 c0       	rjmp	.+2      	; 0x707c <__ltsf2+0x56>
    707a:	81 e0       	ldi	r24, 0x01	; 1
    707c:	68 96       	adiw	r28, 0x18	; 24
    707e:	e2 e0       	ldi	r30, 0x02	; 2
    7080:	0c 94 57 3a 	jmp	0x74ae	; 0x74ae <__epilogue_restores__+0x20>

00007084 <__fixsfsi>:
    7084:	ac e0       	ldi	r26, 0x0C	; 12
    7086:	b0 e0       	ldi	r27, 0x00	; 0
    7088:	e8 e4       	ldi	r30, 0x48	; 72
    708a:	f8 e3       	ldi	r31, 0x38	; 56
    708c:	0c 94 39 3a 	jmp	0x7472	; 0x7472 <__prologue_saves__+0x1c>
    7090:	69 87       	std	Y+9, r22	; 0x09
    7092:	7a 87       	std	Y+10, r23	; 0x0a
    7094:	8b 87       	std	Y+11, r24	; 0x0b
    7096:	9c 87       	std	Y+12, r25	; 0x0c
    7098:	be 01       	movw	r22, r28
    709a:	6f 5f       	subi	r22, 0xFF	; 255
    709c:	7f 4f       	sbci	r23, 0xFF	; 255
    709e:	ce 01       	movw	r24, r28
    70a0:	09 96       	adiw	r24, 0x09	; 9
    70a2:	0e 94 5b 39 	call	0x72b6	; 0x72b6 <__unpack_f>
    70a6:	89 81       	ldd	r24, Y+1	; 0x01
    70a8:	82 30       	cpi	r24, 0x02	; 2
    70aa:	91 f1       	breq	.+100    	; 0x7110 <__fixsfsi+0x8c>
    70ac:	82 30       	cpi	r24, 0x02	; 2
    70ae:	80 f1       	brcs	.+96     	; 0x7110 <__fixsfsi+0x8c>
    70b0:	84 30       	cpi	r24, 0x04	; 4
    70b2:	41 f4       	brne	.+16     	; 0x70c4 <__fixsfsi+0x40>
    70b4:	8a 81       	ldd	r24, Y+2	; 0x02
    70b6:	88 23       	and	r24, r24
    70b8:	31 f1       	breq	.+76     	; 0x7106 <__fixsfsi+0x82>
    70ba:	00 e0       	ldi	r16, 0x00	; 0
    70bc:	10 e0       	ldi	r17, 0x00	; 0
    70be:	20 e0       	ldi	r18, 0x00	; 0
    70c0:	30 e8       	ldi	r19, 0x80	; 128
    70c2:	29 c0       	rjmp	.+82     	; 0x7116 <__fixsfsi+0x92>
    70c4:	2b 81       	ldd	r18, Y+3	; 0x03
    70c6:	3c 81       	ldd	r19, Y+4	; 0x04
    70c8:	37 fd       	sbrc	r19, 7
    70ca:	22 c0       	rjmp	.+68     	; 0x7110 <__fixsfsi+0x8c>
    70cc:	2f 31       	cpi	r18, 0x1F	; 31
    70ce:	31 05       	cpc	r19, r1
    70d0:	8c f7       	brge	.-30     	; 0x70b4 <__fixsfsi+0x30>
    70d2:	8e e1       	ldi	r24, 0x1E	; 30
    70d4:	90 e0       	ldi	r25, 0x00	; 0
    70d6:	82 1b       	sub	r24, r18
    70d8:	93 0b       	sbc	r25, r19
    70da:	0d 81       	ldd	r16, Y+5	; 0x05
    70dc:	1e 81       	ldd	r17, Y+6	; 0x06
    70de:	2f 81       	ldd	r18, Y+7	; 0x07
    70e0:	38 85       	ldd	r19, Y+8	; 0x08
    70e2:	04 c0       	rjmp	.+8      	; 0x70ec <__fixsfsi+0x68>
    70e4:	36 95       	lsr	r19
    70e6:	27 95       	ror	r18
    70e8:	17 95       	ror	r17
    70ea:	07 95       	ror	r16
    70ec:	8a 95       	dec	r24
    70ee:	d2 f7       	brpl	.-12     	; 0x70e4 <__fixsfsi+0x60>
    70f0:	8a 81       	ldd	r24, Y+2	; 0x02
    70f2:	88 23       	and	r24, r24
    70f4:	81 f0       	breq	.+32     	; 0x7116 <__fixsfsi+0x92>
    70f6:	30 95       	com	r19
    70f8:	20 95       	com	r18
    70fa:	10 95       	com	r17
    70fc:	01 95       	neg	r16
    70fe:	1f 4f       	sbci	r17, 0xFF	; 255
    7100:	2f 4f       	sbci	r18, 0xFF	; 255
    7102:	3f 4f       	sbci	r19, 0xFF	; 255
    7104:	08 c0       	rjmp	.+16     	; 0x7116 <__fixsfsi+0x92>
    7106:	0f ef       	ldi	r16, 0xFF	; 255
    7108:	1f ef       	ldi	r17, 0xFF	; 255
    710a:	2f ef       	ldi	r18, 0xFF	; 255
    710c:	3f e7       	ldi	r19, 0x7F	; 127
    710e:	03 c0       	rjmp	.+6      	; 0x7116 <__fixsfsi+0x92>
    7110:	00 e0       	ldi	r16, 0x00	; 0
    7112:	10 e0       	ldi	r17, 0x00	; 0
    7114:	98 01       	movw	r18, r16
    7116:	b8 01       	movw	r22, r16
    7118:	c9 01       	movw	r24, r18
    711a:	2c 96       	adiw	r28, 0x0c	; 12
    711c:	e4 e0       	ldi	r30, 0x04	; 4
    711e:	0c 94 55 3a 	jmp	0x74aa	; 0x74aa <__epilogue_restores__+0x1c>

00007122 <__pack_f>:
    7122:	0f 93       	push	r16
    7124:	1f 93       	push	r17
    7126:	cf 93       	push	r28
    7128:	df 93       	push	r29
    712a:	dc 01       	movw	r26, r24
    712c:	14 96       	adiw	r26, 0x04	; 4
    712e:	4d 91       	ld	r20, X+
    7130:	5d 91       	ld	r21, X+
    7132:	6d 91       	ld	r22, X+
    7134:	7c 91       	ld	r23, X
    7136:	17 97       	sbiw	r26, 0x07	; 7
    7138:	11 96       	adiw	r26, 0x01	; 1
    713a:	ec 91       	ld	r30, X
    713c:	11 97       	sbiw	r26, 0x01	; 1
    713e:	8c 91       	ld	r24, X
    7140:	82 30       	cpi	r24, 0x02	; 2
    7142:	20 f4       	brcc	.+8      	; 0x714c <__pack_f+0x2a>
    7144:	60 61       	ori	r22, 0x10	; 16
    7146:	8f ef       	ldi	r24, 0xFF	; 255
    7148:	90 e0       	ldi	r25, 0x00	; 0
    714a:	a6 c0       	rjmp	.+332    	; 0x7298 <__pack_f+0x176>
    714c:	84 30       	cpi	r24, 0x04	; 4
    714e:	09 f4       	brne	.+2      	; 0x7152 <__pack_f+0x30>
    7150:	9e c0       	rjmp	.+316    	; 0x728e <__pack_f+0x16c>
    7152:	82 30       	cpi	r24, 0x02	; 2
    7154:	09 f4       	brne	.+2      	; 0x7158 <__pack_f+0x36>
    7156:	95 c0       	rjmp	.+298    	; 0x7282 <__pack_f+0x160>
    7158:	41 15       	cp	r20, r1
    715a:	51 05       	cpc	r21, r1
    715c:	61 05       	cpc	r22, r1
    715e:	71 05       	cpc	r23, r1
    7160:	09 f4       	brne	.+2      	; 0x7164 <__pack_f+0x42>
    7162:	92 c0       	rjmp	.+292    	; 0x7288 <__pack_f+0x166>
    7164:	12 96       	adiw	r26, 0x02	; 2
    7166:	2d 91       	ld	r18, X+
    7168:	3c 91       	ld	r19, X
    716a:	13 97       	sbiw	r26, 0x03	; 3
    716c:	22 38       	cpi	r18, 0x82	; 130
    716e:	8f ef       	ldi	r24, 0xFF	; 255
    7170:	38 07       	cpc	r19, r24
    7172:	0c f0       	brlt	.+2      	; 0x7176 <__pack_f+0x54>
    7174:	58 c0       	rjmp	.+176    	; 0x7226 <__pack_f+0x104>
    7176:	c2 e8       	ldi	r28, 0x82	; 130
    7178:	df ef       	ldi	r29, 0xFF	; 255
    717a:	c2 1b       	sub	r28, r18
    717c:	d3 0b       	sbc	r29, r19
    717e:	ca 31       	cpi	r28, 0x1A	; 26
    7180:	d1 05       	cpc	r29, r1
    7182:	6c f5       	brge	.+90     	; 0x71de <__pack_f+0xbc>
    7184:	8a 01       	movw	r16, r20
    7186:	9b 01       	movw	r18, r22
    7188:	0c 2e       	mov	r0, r28
    718a:	04 c0       	rjmp	.+8      	; 0x7194 <__pack_f+0x72>
    718c:	36 95       	lsr	r19
    718e:	27 95       	ror	r18
    7190:	17 95       	ror	r17
    7192:	07 95       	ror	r16
    7194:	0a 94       	dec	r0
    7196:	d2 f7       	brpl	.-12     	; 0x718c <__pack_f+0x6a>
    7198:	81 e0       	ldi	r24, 0x01	; 1
    719a:	90 e0       	ldi	r25, 0x00	; 0
    719c:	a0 e0       	ldi	r26, 0x00	; 0
    719e:	b0 e0       	ldi	r27, 0x00	; 0
    71a0:	0c 2e       	mov	r0, r28
    71a2:	04 c0       	rjmp	.+8      	; 0x71ac <__pack_f+0x8a>
    71a4:	88 0f       	add	r24, r24
    71a6:	99 1f       	adc	r25, r25
    71a8:	aa 1f       	adc	r26, r26
    71aa:	bb 1f       	adc	r27, r27
    71ac:	0a 94       	dec	r0
    71ae:	d2 f7       	brpl	.-12     	; 0x71a4 <__pack_f+0x82>
    71b0:	01 97       	sbiw	r24, 0x01	; 1
    71b2:	a1 09       	sbc	r26, r1
    71b4:	b1 09       	sbc	r27, r1
    71b6:	84 23       	and	r24, r20
    71b8:	95 23       	and	r25, r21
    71ba:	a6 23       	and	r26, r22
    71bc:	b7 23       	and	r27, r23
    71be:	41 e0       	ldi	r20, 0x01	; 1
    71c0:	50 e0       	ldi	r21, 0x00	; 0
    71c2:	60 e0       	ldi	r22, 0x00	; 0
    71c4:	70 e0       	ldi	r23, 0x00	; 0
    71c6:	89 2b       	or	r24, r25
    71c8:	8a 2b       	or	r24, r26
    71ca:	8b 2b       	or	r24, r27
    71cc:	19 f4       	brne	.+6      	; 0x71d4 <__pack_f+0xb2>
    71ce:	40 e0       	ldi	r20, 0x00	; 0
    71d0:	50 e0       	ldi	r21, 0x00	; 0
    71d2:	ba 01       	movw	r22, r20
    71d4:	40 2b       	or	r20, r16
    71d6:	51 2b       	or	r21, r17
    71d8:	62 2b       	or	r22, r18
    71da:	73 2b       	or	r23, r19
    71dc:	03 c0       	rjmp	.+6      	; 0x71e4 <__pack_f+0xc2>
    71de:	40 e0       	ldi	r20, 0x00	; 0
    71e0:	50 e0       	ldi	r21, 0x00	; 0
    71e2:	ba 01       	movw	r22, r20
    71e4:	db 01       	movw	r26, r22
    71e6:	ca 01       	movw	r24, r20
    71e8:	8f 77       	andi	r24, 0x7F	; 127
    71ea:	99 27       	eor	r25, r25
    71ec:	aa 27       	eor	r26, r26
    71ee:	bb 27       	eor	r27, r27
    71f0:	80 34       	cpi	r24, 0x40	; 64
    71f2:	91 05       	cpc	r25, r1
    71f4:	a1 05       	cpc	r26, r1
    71f6:	b1 05       	cpc	r27, r1
    71f8:	39 f4       	brne	.+14     	; 0x7208 <__pack_f+0xe6>
    71fa:	47 ff       	sbrs	r20, 7
    71fc:	09 c0       	rjmp	.+18     	; 0x7210 <__pack_f+0xee>
    71fe:	40 5c       	subi	r20, 0xC0	; 192
    7200:	5f 4f       	sbci	r21, 0xFF	; 255
    7202:	6f 4f       	sbci	r22, 0xFF	; 255
    7204:	7f 4f       	sbci	r23, 0xFF	; 255
    7206:	04 c0       	rjmp	.+8      	; 0x7210 <__pack_f+0xee>
    7208:	41 5c       	subi	r20, 0xC1	; 193
    720a:	5f 4f       	sbci	r21, 0xFF	; 255
    720c:	6f 4f       	sbci	r22, 0xFF	; 255
    720e:	7f 4f       	sbci	r23, 0xFF	; 255
    7210:	81 e0       	ldi	r24, 0x01	; 1
    7212:	90 e0       	ldi	r25, 0x00	; 0
    7214:	41 15       	cp	r20, r1
    7216:	51 05       	cpc	r21, r1
    7218:	61 05       	cpc	r22, r1
    721a:	20 e4       	ldi	r18, 0x40	; 64
    721c:	72 07       	cpc	r23, r18
    721e:	48 f5       	brcc	.+82     	; 0x7272 <__pack_f+0x150>
    7220:	80 e0       	ldi	r24, 0x00	; 0
    7222:	90 e0       	ldi	r25, 0x00	; 0
    7224:	26 c0       	rjmp	.+76     	; 0x7272 <__pack_f+0x150>
    7226:	20 38       	cpi	r18, 0x80	; 128
    7228:	31 05       	cpc	r19, r1
    722a:	8c f5       	brge	.+98     	; 0x728e <__pack_f+0x16c>
    722c:	db 01       	movw	r26, r22
    722e:	ca 01       	movw	r24, r20
    7230:	8f 77       	andi	r24, 0x7F	; 127
    7232:	99 27       	eor	r25, r25
    7234:	aa 27       	eor	r26, r26
    7236:	bb 27       	eor	r27, r27
    7238:	80 34       	cpi	r24, 0x40	; 64
    723a:	91 05       	cpc	r25, r1
    723c:	a1 05       	cpc	r26, r1
    723e:	b1 05       	cpc	r27, r1
    7240:	39 f4       	brne	.+14     	; 0x7250 <__pack_f+0x12e>
    7242:	47 ff       	sbrs	r20, 7
    7244:	09 c0       	rjmp	.+18     	; 0x7258 <__pack_f+0x136>
    7246:	40 5c       	subi	r20, 0xC0	; 192
    7248:	5f 4f       	sbci	r21, 0xFF	; 255
    724a:	6f 4f       	sbci	r22, 0xFF	; 255
    724c:	7f 4f       	sbci	r23, 0xFF	; 255
    724e:	04 c0       	rjmp	.+8      	; 0x7258 <__pack_f+0x136>
    7250:	41 5c       	subi	r20, 0xC1	; 193
    7252:	5f 4f       	sbci	r21, 0xFF	; 255
    7254:	6f 4f       	sbci	r22, 0xFF	; 255
    7256:	7f 4f       	sbci	r23, 0xFF	; 255
    7258:	77 fd       	sbrc	r23, 7
    725a:	04 c0       	rjmp	.+8      	; 0x7264 <__pack_f+0x142>
    725c:	c9 01       	movw	r24, r18
    725e:	81 58       	subi	r24, 0x81	; 129
    7260:	9f 4f       	sbci	r25, 0xFF	; 255
    7262:	07 c0       	rjmp	.+14     	; 0x7272 <__pack_f+0x150>
    7264:	76 95       	lsr	r23
    7266:	67 95       	ror	r22
    7268:	57 95       	ror	r21
    726a:	47 95       	ror	r20
    726c:	c9 01       	movw	r24, r18
    726e:	80 58       	subi	r24, 0x80	; 128
    7270:	9f 4f       	sbci	r25, 0xFF	; 255
    7272:	97 e0       	ldi	r25, 0x07	; 7
    7274:	76 95       	lsr	r23
    7276:	67 95       	ror	r22
    7278:	57 95       	ror	r21
    727a:	47 95       	ror	r20
    727c:	9a 95       	dec	r25
    727e:	d1 f7       	brne	.-12     	; 0x7274 <__pack_f+0x152>
    7280:	0b c0       	rjmp	.+22     	; 0x7298 <__pack_f+0x176>
    7282:	80 e0       	ldi	r24, 0x00	; 0
    7284:	90 e0       	ldi	r25, 0x00	; 0
    7286:	05 c0       	rjmp	.+10     	; 0x7292 <__pack_f+0x170>
    7288:	80 e0       	ldi	r24, 0x00	; 0
    728a:	90 e0       	ldi	r25, 0x00	; 0
    728c:	05 c0       	rjmp	.+10     	; 0x7298 <__pack_f+0x176>
    728e:	8f ef       	ldi	r24, 0xFF	; 255
    7290:	90 e0       	ldi	r25, 0x00	; 0
    7292:	40 e0       	ldi	r20, 0x00	; 0
    7294:	50 e0       	ldi	r21, 0x00	; 0
    7296:	ba 01       	movw	r22, r20
    7298:	98 2f       	mov	r25, r24
    729a:	96 95       	lsr	r25
    729c:	e0 fb       	bst	r30, 0
    729e:	97 f9       	bld	r25, 7
    72a0:	36 2f       	mov	r19, r22
    72a2:	80 fb       	bst	r24, 0
    72a4:	37 f9       	bld	r19, 7
    72a6:	64 2f       	mov	r22, r20
    72a8:	75 2f       	mov	r23, r21
    72aa:	83 2f       	mov	r24, r19
    72ac:	df 91       	pop	r29
    72ae:	cf 91       	pop	r28
    72b0:	1f 91       	pop	r17
    72b2:	0f 91       	pop	r16
    72b4:	08 95       	ret

000072b6 <__unpack_f>:
    72b6:	cf 92       	push	r12
    72b8:	df 92       	push	r13
    72ba:	ef 92       	push	r14
    72bc:	dc 01       	movw	r26, r24
    72be:	fb 01       	movw	r30, r22
    72c0:	cc 90       	ld	r12, X
    72c2:	11 96       	adiw	r26, 0x01	; 1
    72c4:	dc 90       	ld	r13, X
    72c6:	11 97       	sbiw	r26, 0x01	; 1
    72c8:	12 96       	adiw	r26, 0x02	; 2
    72ca:	8c 91       	ld	r24, X
    72cc:	12 97       	sbiw	r26, 0x02	; 2
    72ce:	3f e7       	ldi	r19, 0x7F	; 127
    72d0:	e3 2e       	mov	r14, r19
    72d2:	e8 22       	and	r14, r24
    72d4:	6e 2d       	mov	r22, r14
    72d6:	a6 01       	movw	r20, r12
    72d8:	70 e0       	ldi	r23, 0x00	; 0
    72da:	98 2f       	mov	r25, r24
    72dc:	99 1f       	adc	r25, r25
    72de:	99 27       	eor	r25, r25
    72e0:	99 1f       	adc	r25, r25
    72e2:	13 96       	adiw	r26, 0x03	; 3
    72e4:	2c 91       	ld	r18, X
    72e6:	82 2f       	mov	r24, r18
    72e8:	88 0f       	add	r24, r24
    72ea:	89 2b       	or	r24, r25
    72ec:	90 e0       	ldi	r25, 0x00	; 0
    72ee:	27 fb       	bst	r18, 7
    72f0:	22 27       	eor	r18, r18
    72f2:	20 f9       	bld	r18, 0
    72f4:	21 83       	std	Z+1, r18	; 0x01
    72f6:	00 97       	sbiw	r24, 0x00	; 0
    72f8:	29 f5       	brne	.+74     	; 0x7344 <__unpack_f+0x8e>
    72fa:	41 15       	cp	r20, r1
    72fc:	51 05       	cpc	r21, r1
    72fe:	61 05       	cpc	r22, r1
    7300:	71 05       	cpc	r23, r1
    7302:	11 f4       	brne	.+4      	; 0x7308 <__unpack_f+0x52>
    7304:	82 e0       	ldi	r24, 0x02	; 2
    7306:	27 c0       	rjmp	.+78     	; 0x7356 <__unpack_f+0xa0>
    7308:	82 e8       	ldi	r24, 0x82	; 130
    730a:	9f ef       	ldi	r25, 0xFF	; 255
    730c:	93 83       	std	Z+3, r25	; 0x03
    730e:	82 83       	std	Z+2, r24	; 0x02
    7310:	27 e0       	ldi	r18, 0x07	; 7
    7312:	44 0f       	add	r20, r20
    7314:	55 1f       	adc	r21, r21
    7316:	66 1f       	adc	r22, r22
    7318:	77 1f       	adc	r23, r23
    731a:	2a 95       	dec	r18
    731c:	d1 f7       	brne	.-12     	; 0x7312 <__unpack_f+0x5c>
    731e:	83 e0       	ldi	r24, 0x03	; 3
    7320:	80 83       	st	Z, r24
    7322:	09 c0       	rjmp	.+18     	; 0x7336 <__unpack_f+0x80>
    7324:	44 0f       	add	r20, r20
    7326:	55 1f       	adc	r21, r21
    7328:	66 1f       	adc	r22, r22
    732a:	77 1f       	adc	r23, r23
    732c:	82 81       	ldd	r24, Z+2	; 0x02
    732e:	93 81       	ldd	r25, Z+3	; 0x03
    7330:	01 97       	sbiw	r24, 0x01	; 1
    7332:	93 83       	std	Z+3, r25	; 0x03
    7334:	82 83       	std	Z+2, r24	; 0x02
    7336:	41 15       	cp	r20, r1
    7338:	51 05       	cpc	r21, r1
    733a:	61 05       	cpc	r22, r1
    733c:	80 e4       	ldi	r24, 0x40	; 64
    733e:	78 07       	cpc	r23, r24
    7340:	88 f3       	brcs	.-30     	; 0x7324 <__unpack_f+0x6e>
    7342:	20 c0       	rjmp	.+64     	; 0x7384 <__unpack_f+0xce>
    7344:	8f 3f       	cpi	r24, 0xFF	; 255
    7346:	91 05       	cpc	r25, r1
    7348:	79 f4       	brne	.+30     	; 0x7368 <__unpack_f+0xb2>
    734a:	41 15       	cp	r20, r1
    734c:	51 05       	cpc	r21, r1
    734e:	61 05       	cpc	r22, r1
    7350:	71 05       	cpc	r23, r1
    7352:	19 f4       	brne	.+6      	; 0x735a <__unpack_f+0xa4>
    7354:	84 e0       	ldi	r24, 0x04	; 4
    7356:	80 83       	st	Z, r24
    7358:	19 c0       	rjmp	.+50     	; 0x738c <__unpack_f+0xd6>
    735a:	e4 fe       	sbrs	r14, 4
    735c:	03 c0       	rjmp	.+6      	; 0x7364 <__unpack_f+0xae>
    735e:	81 e0       	ldi	r24, 0x01	; 1
    7360:	80 83       	st	Z, r24
    7362:	10 c0       	rjmp	.+32     	; 0x7384 <__unpack_f+0xce>
    7364:	10 82       	st	Z, r1
    7366:	0e c0       	rjmp	.+28     	; 0x7384 <__unpack_f+0xce>
    7368:	8f 57       	subi	r24, 0x7F	; 127
    736a:	91 09       	sbc	r25, r1
    736c:	93 83       	std	Z+3, r25	; 0x03
    736e:	82 83       	std	Z+2, r24	; 0x02
    7370:	83 e0       	ldi	r24, 0x03	; 3
    7372:	80 83       	st	Z, r24
    7374:	87 e0       	ldi	r24, 0x07	; 7
    7376:	44 0f       	add	r20, r20
    7378:	55 1f       	adc	r21, r21
    737a:	66 1f       	adc	r22, r22
    737c:	77 1f       	adc	r23, r23
    737e:	8a 95       	dec	r24
    7380:	d1 f7       	brne	.-12     	; 0x7376 <__unpack_f+0xc0>
    7382:	70 64       	ori	r23, 0x40	; 64
    7384:	44 83       	std	Z+4, r20	; 0x04
    7386:	55 83       	std	Z+5, r21	; 0x05
    7388:	66 83       	std	Z+6, r22	; 0x06
    738a:	77 83       	std	Z+7, r23	; 0x07
    738c:	ef 90       	pop	r14
    738e:	df 90       	pop	r13
    7390:	cf 90       	pop	r12
    7392:	08 95       	ret

00007394 <__fpcmp_parts_f>:
    7394:	cf 93       	push	r28
    7396:	fc 01       	movw	r30, r24
    7398:	db 01       	movw	r26, r22
    739a:	90 81       	ld	r25, Z
    739c:	92 30       	cpi	r25, 0x02	; 2
    739e:	08 f4       	brcc	.+2      	; 0x73a2 <__fpcmp_parts_f+0xe>
    73a0:	52 c0       	rjmp	.+164    	; 0x7446 <__fpcmp_parts_f+0xb2>
    73a2:	8c 91       	ld	r24, X
    73a4:	82 30       	cpi	r24, 0x02	; 2
    73a6:	08 f4       	brcc	.+2      	; 0x73aa <__fpcmp_parts_f+0x16>
    73a8:	4e c0       	rjmp	.+156    	; 0x7446 <__fpcmp_parts_f+0xb2>
    73aa:	94 30       	cpi	r25, 0x04	; 4
    73ac:	71 f4       	brne	.+28     	; 0x73ca <__fpcmp_parts_f+0x36>
    73ae:	84 30       	cpi	r24, 0x04	; 4
    73b0:	39 f4       	brne	.+14     	; 0x73c0 <__fpcmp_parts_f+0x2c>
    73b2:	11 96       	adiw	r26, 0x01	; 1
    73b4:	2c 91       	ld	r18, X
    73b6:	30 e0       	ldi	r19, 0x00	; 0
    73b8:	81 81       	ldd	r24, Z+1	; 0x01
    73ba:	28 1b       	sub	r18, r24
    73bc:	31 09       	sbc	r19, r1
    73be:	48 c0       	rjmp	.+144    	; 0x7450 <__fpcmp_parts_f+0xbc>
    73c0:	81 81       	ldd	r24, Z+1	; 0x01
    73c2:	88 23       	and	r24, r24
    73c4:	09 f4       	brne	.+2      	; 0x73c8 <__fpcmp_parts_f+0x34>
    73c6:	3f c0       	rjmp	.+126    	; 0x7446 <__fpcmp_parts_f+0xb2>
    73c8:	3b c0       	rjmp	.+118    	; 0x7440 <__fpcmp_parts_f+0xac>
    73ca:	84 30       	cpi	r24, 0x04	; 4
    73cc:	29 f4       	brne	.+10     	; 0x73d8 <__fpcmp_parts_f+0x44>
    73ce:	11 96       	adiw	r26, 0x01	; 1
    73d0:	8c 91       	ld	r24, X
    73d2:	81 11       	cpse	r24, r1
    73d4:	38 c0       	rjmp	.+112    	; 0x7446 <__fpcmp_parts_f+0xb2>
    73d6:	34 c0       	rjmp	.+104    	; 0x7440 <__fpcmp_parts_f+0xac>
    73d8:	92 30       	cpi	r25, 0x02	; 2
    73da:	19 f4       	brne	.+6      	; 0x73e2 <__fpcmp_parts_f+0x4e>
    73dc:	82 30       	cpi	r24, 0x02	; 2
    73de:	b9 f7       	brne	.-18     	; 0x73ce <__fpcmp_parts_f+0x3a>
    73e0:	35 c0       	rjmp	.+106    	; 0x744c <__fpcmp_parts_f+0xb8>
    73e2:	82 30       	cpi	r24, 0x02	; 2
    73e4:	69 f3       	breq	.-38     	; 0x73c0 <__fpcmp_parts_f+0x2c>
    73e6:	c1 81       	ldd	r28, Z+1	; 0x01
    73e8:	11 96       	adiw	r26, 0x01	; 1
    73ea:	8c 91       	ld	r24, X
    73ec:	11 97       	sbiw	r26, 0x01	; 1
    73ee:	c8 13       	cpse	r28, r24
    73f0:	1d c0       	rjmp	.+58     	; 0x742c <__fpcmp_parts_f+0x98>
    73f2:	22 81       	ldd	r18, Z+2	; 0x02
    73f4:	33 81       	ldd	r19, Z+3	; 0x03
    73f6:	12 96       	adiw	r26, 0x02	; 2
    73f8:	8d 91       	ld	r24, X+
    73fa:	9c 91       	ld	r25, X
    73fc:	13 97       	sbiw	r26, 0x03	; 3
    73fe:	82 17       	cp	r24, r18
    7400:	93 07       	cpc	r25, r19
    7402:	0c f4       	brge	.+2      	; 0x7406 <__fpcmp_parts_f+0x72>
    7404:	13 c0       	rjmp	.+38     	; 0x742c <__fpcmp_parts_f+0x98>
    7406:	28 17       	cp	r18, r24
    7408:	39 07       	cpc	r19, r25
    740a:	0c f4       	brge	.+2      	; 0x740e <__fpcmp_parts_f+0x7a>
    740c:	17 c0       	rjmp	.+46     	; 0x743c <__fpcmp_parts_f+0xa8>
    740e:	44 81       	ldd	r20, Z+4	; 0x04
    7410:	55 81       	ldd	r21, Z+5	; 0x05
    7412:	66 81       	ldd	r22, Z+6	; 0x06
    7414:	77 81       	ldd	r23, Z+7	; 0x07
    7416:	14 96       	adiw	r26, 0x04	; 4
    7418:	8d 91       	ld	r24, X+
    741a:	9d 91       	ld	r25, X+
    741c:	0d 90       	ld	r0, X+
    741e:	bc 91       	ld	r27, X
    7420:	a0 2d       	mov	r26, r0
    7422:	84 17       	cp	r24, r20
    7424:	95 07       	cpc	r25, r21
    7426:	a6 07       	cpc	r26, r22
    7428:	b7 07       	cpc	r27, r23
    742a:	18 f4       	brcc	.+6      	; 0x7432 <__fpcmp_parts_f+0x9e>
    742c:	c1 11       	cpse	r28, r1
    742e:	08 c0       	rjmp	.+16     	; 0x7440 <__fpcmp_parts_f+0xac>
    7430:	0a c0       	rjmp	.+20     	; 0x7446 <__fpcmp_parts_f+0xb2>
    7432:	48 17       	cp	r20, r24
    7434:	59 07       	cpc	r21, r25
    7436:	6a 07       	cpc	r22, r26
    7438:	7b 07       	cpc	r23, r27
    743a:	40 f4       	brcc	.+16     	; 0x744c <__fpcmp_parts_f+0xb8>
    743c:	c1 11       	cpse	r28, r1
    743e:	03 c0       	rjmp	.+6      	; 0x7446 <__fpcmp_parts_f+0xb2>
    7440:	2f ef       	ldi	r18, 0xFF	; 255
    7442:	3f ef       	ldi	r19, 0xFF	; 255
    7444:	05 c0       	rjmp	.+10     	; 0x7450 <__fpcmp_parts_f+0xbc>
    7446:	21 e0       	ldi	r18, 0x01	; 1
    7448:	30 e0       	ldi	r19, 0x00	; 0
    744a:	02 c0       	rjmp	.+4      	; 0x7450 <__fpcmp_parts_f+0xbc>
    744c:	20 e0       	ldi	r18, 0x00	; 0
    744e:	30 e0       	ldi	r19, 0x00	; 0
    7450:	c9 01       	movw	r24, r18
    7452:	cf 91       	pop	r28
    7454:	08 95       	ret

00007456 <__prologue_saves__>:
    7456:	2f 92       	push	r2
    7458:	3f 92       	push	r3
    745a:	4f 92       	push	r4
    745c:	5f 92       	push	r5
    745e:	6f 92       	push	r6
    7460:	7f 92       	push	r7
    7462:	8f 92       	push	r8
    7464:	9f 92       	push	r9
    7466:	af 92       	push	r10
    7468:	bf 92       	push	r11
    746a:	cf 92       	push	r12
    746c:	df 92       	push	r13
    746e:	ef 92       	push	r14
    7470:	ff 92       	push	r15
    7472:	0f 93       	push	r16
    7474:	1f 93       	push	r17
    7476:	cf 93       	push	r28
    7478:	df 93       	push	r29
    747a:	cd b7       	in	r28, 0x3d	; 61
    747c:	de b7       	in	r29, 0x3e	; 62
    747e:	ca 1b       	sub	r28, r26
    7480:	db 0b       	sbc	r29, r27
    7482:	0f b6       	in	r0, 0x3f	; 63
    7484:	f8 94       	cli
    7486:	de bf       	out	0x3e, r29	; 62
    7488:	0f be       	out	0x3f, r0	; 63
    748a:	cd bf       	out	0x3d, r28	; 61
    748c:	09 94       	ijmp

0000748e <__epilogue_restores__>:
    748e:	2a 88       	ldd	r2, Y+18	; 0x12
    7490:	39 88       	ldd	r3, Y+17	; 0x11
    7492:	48 88       	ldd	r4, Y+16	; 0x10
    7494:	5f 84       	ldd	r5, Y+15	; 0x0f
    7496:	6e 84       	ldd	r6, Y+14	; 0x0e
    7498:	7d 84       	ldd	r7, Y+13	; 0x0d
    749a:	8c 84       	ldd	r8, Y+12	; 0x0c
    749c:	9b 84       	ldd	r9, Y+11	; 0x0b
    749e:	aa 84       	ldd	r10, Y+10	; 0x0a
    74a0:	b9 84       	ldd	r11, Y+9	; 0x09
    74a2:	c8 84       	ldd	r12, Y+8	; 0x08
    74a4:	df 80       	ldd	r13, Y+7	; 0x07
    74a6:	ee 80       	ldd	r14, Y+6	; 0x06
    74a8:	fd 80       	ldd	r15, Y+5	; 0x05
    74aa:	0c 81       	ldd	r16, Y+4	; 0x04
    74ac:	1b 81       	ldd	r17, Y+3	; 0x03
    74ae:	aa 81       	ldd	r26, Y+2	; 0x02
    74b0:	b9 81       	ldd	r27, Y+1	; 0x01
    74b2:	ce 0f       	add	r28, r30
    74b4:	d1 1d       	adc	r29, r1
    74b6:	0f b6       	in	r0, 0x3f	; 63
    74b8:	f8 94       	cli
    74ba:	de bf       	out	0x3e, r29	; 62
    74bc:	0f be       	out	0x3f, r0	; 63
    74be:	cd bf       	out	0x3d, r28	; 61
    74c0:	ed 01       	movw	r28, r26
    74c2:	08 95       	ret
    74c4:	0e f0       	brts	.+2      	; 0x74c8 <__epilogue_restores__+0x3a>
    74c6:	47 c1       	rjmp	.+654    	; 0x7756 <__fp_mpack>
    74c8:	54 c1       	rjmp	.+680    	; 0x7772 <__fp_nan>
    74ca:	68 94       	set
    74cc:	3e c1       	rjmp	.+636    	; 0x774a <__fp_inf>

000074ce <log>:
    74ce:	a0 d1       	rcall	.+832    	; 0x7810 <__fp_splitA>
    74d0:	c8 f3       	brcs	.-14     	; 0x74c4 <__epilogue_restores__+0x36>
    74d2:	99 23       	and	r25, r25
    74d4:	d1 f3       	breq	.-12     	; 0x74ca <__epilogue_restores__+0x3c>
    74d6:	c6 f3       	brts	.-16     	; 0x74c8 <__epilogue_restores__+0x3a>
    74d8:	df 93       	push	r29
    74da:	cf 93       	push	r28
    74dc:	1f 93       	push	r17
    74de:	0f 93       	push	r16
    74e0:	ff 92       	push	r15
    74e2:	c9 2f       	mov	r28, r25
    74e4:	dd 27       	eor	r29, r29
    74e6:	88 23       	and	r24, r24
    74e8:	2a f0       	brmi	.+10     	; 0x74f4 <log+0x26>
    74ea:	21 97       	sbiw	r28, 0x01	; 1
    74ec:	66 0f       	add	r22, r22
    74ee:	77 1f       	adc	r23, r23
    74f0:	88 1f       	adc	r24, r24
    74f2:	da f7       	brpl	.-10     	; 0x74ea <log+0x1c>
    74f4:	20 e0       	ldi	r18, 0x00	; 0
    74f6:	30 e0       	ldi	r19, 0x00	; 0
    74f8:	40 e8       	ldi	r20, 0x80	; 128
    74fa:	5f eb       	ldi	r21, 0xBF	; 191
    74fc:	9f e3       	ldi	r25, 0x3F	; 63
    74fe:	88 39       	cpi	r24, 0x98	; 152
    7500:	20 f0       	brcs	.+8      	; 0x750a <log+0x3c>
    7502:	80 3e       	cpi	r24, 0xE0	; 224
    7504:	30 f0       	brcs	.+12     	; 0x7512 <log+0x44>
    7506:	21 96       	adiw	r28, 0x01	; 1
    7508:	8f 77       	andi	r24, 0x7F	; 127
    750a:	4b db       	rcall	.-2410   	; 0x6ba2 <__addsf3>
    750c:	ec e8       	ldi	r30, 0x8C	; 140
    750e:	f0 e0       	ldi	r31, 0x00	; 0
    7510:	03 c0       	rjmp	.+6      	; 0x7518 <log+0x4a>
    7512:	47 db       	rcall	.-2418   	; 0x6ba2 <__addsf3>
    7514:	e9 eb       	ldi	r30, 0xB9	; 185
    7516:	f0 e0       	ldi	r31, 0x00	; 0
    7518:	2f d1       	rcall	.+606    	; 0x7778 <__fp_powser>
    751a:	8b 01       	movw	r16, r22
    751c:	be 01       	movw	r22, r28
    751e:	ec 01       	movw	r28, r24
    7520:	fb 2e       	mov	r15, r27
    7522:	6f 57       	subi	r22, 0x7F	; 127
    7524:	71 09       	sbc	r23, r1
    7526:	75 95       	asr	r23
    7528:	77 1f       	adc	r23, r23
    752a:	88 0b       	sbc	r24, r24
    752c:	99 0b       	sbc	r25, r25
    752e:	d2 d0       	rcall	.+420    	; 0x76d4 <__floatsisf>
    7530:	28 e1       	ldi	r18, 0x18	; 24
    7532:	32 e7       	ldi	r19, 0x72	; 114
    7534:	41 e3       	ldi	r20, 0x31	; 49
    7536:	5f e3       	ldi	r21, 0x3F	; 63
    7538:	14 d0       	rcall	.+40     	; 0x7562 <__mulsf3x>
    753a:	af 2d       	mov	r26, r15
    753c:	98 01       	movw	r18, r16
    753e:	ae 01       	movw	r20, r28
    7540:	ff 90       	pop	r15
    7542:	0f 91       	pop	r16
    7544:	1f 91       	pop	r17
    7546:	cf 91       	pop	r28
    7548:	df 91       	pop	r29
    754a:	6f d0       	rcall	.+222    	; 0x762a <__addsf3x>
    754c:	48 c1       	rjmp	.+656    	; 0x77de <__fp_round>
    754e:	39 d1       	rcall	.+626    	; 0x77c2 <__fp_pscA>
    7550:	28 f0       	brcs	.+10     	; 0x755c <log+0x8e>
    7552:	3e d1       	rcall	.+636    	; 0x77d0 <__fp_pscB>
    7554:	18 f0       	brcs	.+6      	; 0x755c <log+0x8e>
    7556:	95 23       	and	r25, r21
    7558:	09 f0       	breq	.+2      	; 0x755c <log+0x8e>
    755a:	f7 c0       	rjmp	.+494    	; 0x774a <__fp_inf>
    755c:	0a c1       	rjmp	.+532    	; 0x7772 <__fp_nan>
    755e:	11 24       	eor	r1, r1
    7560:	72 c1       	rjmp	.+740    	; 0x7846 <__fp_szero>

00007562 <__mulsf3x>:
    7562:	4e d1       	rcall	.+668    	; 0x7800 <__fp_split3>
    7564:	a0 f3       	brcs	.-24     	; 0x754e <log+0x80>

00007566 <__mulsf3_pse>:
    7566:	95 9f       	mul	r25, r21
    7568:	d1 f3       	breq	.-12     	; 0x755e <log+0x90>
    756a:	95 0f       	add	r25, r21
    756c:	50 e0       	ldi	r21, 0x00	; 0
    756e:	55 1f       	adc	r21, r21
    7570:	62 9f       	mul	r22, r18
    7572:	f0 01       	movw	r30, r0
    7574:	72 9f       	mul	r23, r18
    7576:	bb 27       	eor	r27, r27
    7578:	f0 0d       	add	r31, r0
    757a:	b1 1d       	adc	r27, r1
    757c:	63 9f       	mul	r22, r19
    757e:	aa 27       	eor	r26, r26
    7580:	f0 0d       	add	r31, r0
    7582:	b1 1d       	adc	r27, r1
    7584:	aa 1f       	adc	r26, r26
    7586:	64 9f       	mul	r22, r20
    7588:	66 27       	eor	r22, r22
    758a:	b0 0d       	add	r27, r0
    758c:	a1 1d       	adc	r26, r1
    758e:	66 1f       	adc	r22, r22
    7590:	82 9f       	mul	r24, r18
    7592:	22 27       	eor	r18, r18
    7594:	b0 0d       	add	r27, r0
    7596:	a1 1d       	adc	r26, r1
    7598:	62 1f       	adc	r22, r18
    759a:	73 9f       	mul	r23, r19
    759c:	b0 0d       	add	r27, r0
    759e:	a1 1d       	adc	r26, r1
    75a0:	62 1f       	adc	r22, r18
    75a2:	83 9f       	mul	r24, r19
    75a4:	a0 0d       	add	r26, r0
    75a6:	61 1d       	adc	r22, r1
    75a8:	22 1f       	adc	r18, r18
    75aa:	74 9f       	mul	r23, r20
    75ac:	33 27       	eor	r19, r19
    75ae:	a0 0d       	add	r26, r0
    75b0:	61 1d       	adc	r22, r1
    75b2:	23 1f       	adc	r18, r19
    75b4:	84 9f       	mul	r24, r20
    75b6:	60 0d       	add	r22, r0
    75b8:	21 1d       	adc	r18, r1
    75ba:	82 2f       	mov	r24, r18
    75bc:	76 2f       	mov	r23, r22
    75be:	6a 2f       	mov	r22, r26
    75c0:	11 24       	eor	r1, r1
    75c2:	9f 57       	subi	r25, 0x7F	; 127
    75c4:	50 40       	sbci	r21, 0x00	; 0
    75c6:	8a f0       	brmi	.+34     	; 0x75ea <__mulsf3_pse+0x84>
    75c8:	e1 f0       	breq	.+56     	; 0x7602 <__mulsf3_pse+0x9c>
    75ca:	88 23       	and	r24, r24
    75cc:	4a f0       	brmi	.+18     	; 0x75e0 <__mulsf3_pse+0x7a>
    75ce:	ee 0f       	add	r30, r30
    75d0:	ff 1f       	adc	r31, r31
    75d2:	bb 1f       	adc	r27, r27
    75d4:	66 1f       	adc	r22, r22
    75d6:	77 1f       	adc	r23, r23
    75d8:	88 1f       	adc	r24, r24
    75da:	91 50       	subi	r25, 0x01	; 1
    75dc:	50 40       	sbci	r21, 0x00	; 0
    75de:	a9 f7       	brne	.-22     	; 0x75ca <__mulsf3_pse+0x64>
    75e0:	9e 3f       	cpi	r25, 0xFE	; 254
    75e2:	51 05       	cpc	r21, r1
    75e4:	70 f0       	brcs	.+28     	; 0x7602 <__mulsf3_pse+0x9c>
    75e6:	b1 c0       	rjmp	.+354    	; 0x774a <__fp_inf>
    75e8:	2e c1       	rjmp	.+604    	; 0x7846 <__fp_szero>
    75ea:	5f 3f       	cpi	r21, 0xFF	; 255
    75ec:	ec f3       	brlt	.-6      	; 0x75e8 <__mulsf3_pse+0x82>
    75ee:	98 3e       	cpi	r25, 0xE8	; 232
    75f0:	dc f3       	brlt	.-10     	; 0x75e8 <__mulsf3_pse+0x82>
    75f2:	86 95       	lsr	r24
    75f4:	77 95       	ror	r23
    75f6:	67 95       	ror	r22
    75f8:	b7 95       	ror	r27
    75fa:	f7 95       	ror	r31
    75fc:	e7 95       	ror	r30
    75fe:	9f 5f       	subi	r25, 0xFF	; 255
    7600:	c1 f7       	brne	.-16     	; 0x75f2 <__mulsf3_pse+0x8c>
    7602:	fe 2b       	or	r31, r30
    7604:	88 0f       	add	r24, r24
    7606:	91 1d       	adc	r25, r1
    7608:	96 95       	lsr	r25
    760a:	87 95       	ror	r24
    760c:	97 f9       	bld	r25, 7
    760e:	08 95       	ret
    7610:	d8 d0       	rcall	.+432    	; 0x77c2 <__fp_pscA>
    7612:	30 f0       	brcs	.+12     	; 0x7620 <__mulsf3_pse+0xba>
    7614:	dd d0       	rcall	.+442    	; 0x77d0 <__fp_pscB>
    7616:	20 f0       	brcs	.+8      	; 0x7620 <__mulsf3_pse+0xba>
    7618:	31 f4       	brne	.+12     	; 0x7626 <__mulsf3_pse+0xc0>
    761a:	9f 3f       	cpi	r25, 0xFF	; 255
    761c:	11 f4       	brne	.+4      	; 0x7622 <__mulsf3_pse+0xbc>
    761e:	1e f4       	brtc	.+6      	; 0x7626 <__mulsf3_pse+0xc0>
    7620:	a8 c0       	rjmp	.+336    	; 0x7772 <__fp_nan>
    7622:	0e f4       	brtc	.+2      	; 0x7626 <__mulsf3_pse+0xc0>
    7624:	e0 95       	com	r30
    7626:	e7 fb       	bst	r30, 7
    7628:	90 c0       	rjmp	.+288    	; 0x774a <__fp_inf>

0000762a <__addsf3x>:
    762a:	e9 2f       	mov	r30, r25
    762c:	e9 d0       	rcall	.+466    	; 0x7800 <__fp_split3>
    762e:	80 f3       	brcs	.-32     	; 0x7610 <__mulsf3_pse+0xaa>
    7630:	ba 17       	cp	r27, r26
    7632:	62 07       	cpc	r22, r18
    7634:	73 07       	cpc	r23, r19
    7636:	84 07       	cpc	r24, r20
    7638:	95 07       	cpc	r25, r21
    763a:	18 f0       	brcs	.+6      	; 0x7642 <__addsf3x+0x18>
    763c:	71 f4       	brne	.+28     	; 0x765a <__addsf3x+0x30>
    763e:	9e f5       	brtc	.+102    	; 0x76a6 <__addsf3x+0x7c>
    7640:	01 c1       	rjmp	.+514    	; 0x7844 <__fp_zero>
    7642:	0e f4       	brtc	.+2      	; 0x7646 <__addsf3x+0x1c>
    7644:	e0 95       	com	r30
    7646:	0b 2e       	mov	r0, r27
    7648:	ba 2f       	mov	r27, r26
    764a:	a0 2d       	mov	r26, r0
    764c:	0b 01       	movw	r0, r22
    764e:	b9 01       	movw	r22, r18
    7650:	90 01       	movw	r18, r0
    7652:	0c 01       	movw	r0, r24
    7654:	ca 01       	movw	r24, r20
    7656:	a0 01       	movw	r20, r0
    7658:	11 24       	eor	r1, r1
    765a:	ff 27       	eor	r31, r31
    765c:	59 1b       	sub	r21, r25
    765e:	99 f0       	breq	.+38     	; 0x7686 <__addsf3x+0x5c>
    7660:	59 3f       	cpi	r21, 0xF9	; 249
    7662:	50 f4       	brcc	.+20     	; 0x7678 <__addsf3x+0x4e>
    7664:	50 3e       	cpi	r21, 0xE0	; 224
    7666:	68 f1       	brcs	.+90     	; 0x76c2 <__addsf3x+0x98>
    7668:	1a 16       	cp	r1, r26
    766a:	f0 40       	sbci	r31, 0x00	; 0
    766c:	a2 2f       	mov	r26, r18
    766e:	23 2f       	mov	r18, r19
    7670:	34 2f       	mov	r19, r20
    7672:	44 27       	eor	r20, r20
    7674:	58 5f       	subi	r21, 0xF8	; 248
    7676:	f3 cf       	rjmp	.-26     	; 0x765e <__addsf3x+0x34>
    7678:	46 95       	lsr	r20
    767a:	37 95       	ror	r19
    767c:	27 95       	ror	r18
    767e:	a7 95       	ror	r26
    7680:	f0 40       	sbci	r31, 0x00	; 0
    7682:	53 95       	inc	r21
    7684:	c9 f7       	brne	.-14     	; 0x7678 <__addsf3x+0x4e>
    7686:	7e f4       	brtc	.+30     	; 0x76a6 <__addsf3x+0x7c>
    7688:	1f 16       	cp	r1, r31
    768a:	ba 0b       	sbc	r27, r26
    768c:	62 0b       	sbc	r22, r18
    768e:	73 0b       	sbc	r23, r19
    7690:	84 0b       	sbc	r24, r20
    7692:	ba f0       	brmi	.+46     	; 0x76c2 <__addsf3x+0x98>
    7694:	91 50       	subi	r25, 0x01	; 1
    7696:	a1 f0       	breq	.+40     	; 0x76c0 <__addsf3x+0x96>
    7698:	ff 0f       	add	r31, r31
    769a:	bb 1f       	adc	r27, r27
    769c:	66 1f       	adc	r22, r22
    769e:	77 1f       	adc	r23, r23
    76a0:	88 1f       	adc	r24, r24
    76a2:	c2 f7       	brpl	.-16     	; 0x7694 <__addsf3x+0x6a>
    76a4:	0e c0       	rjmp	.+28     	; 0x76c2 <__addsf3x+0x98>
    76a6:	ba 0f       	add	r27, r26
    76a8:	62 1f       	adc	r22, r18
    76aa:	73 1f       	adc	r23, r19
    76ac:	84 1f       	adc	r24, r20
    76ae:	48 f4       	brcc	.+18     	; 0x76c2 <__addsf3x+0x98>
    76b0:	87 95       	ror	r24
    76b2:	77 95       	ror	r23
    76b4:	67 95       	ror	r22
    76b6:	b7 95       	ror	r27
    76b8:	f7 95       	ror	r31
    76ba:	9e 3f       	cpi	r25, 0xFE	; 254
    76bc:	08 f0       	brcs	.+2      	; 0x76c0 <__addsf3x+0x96>
    76be:	b3 cf       	rjmp	.-154    	; 0x7626 <__mulsf3_pse+0xc0>
    76c0:	93 95       	inc	r25
    76c2:	88 0f       	add	r24, r24
    76c4:	08 f0       	brcs	.+2      	; 0x76c8 <__addsf3x+0x9e>
    76c6:	99 27       	eor	r25, r25
    76c8:	ee 0f       	add	r30, r30
    76ca:	97 95       	ror	r25
    76cc:	87 95       	ror	r24
    76ce:	08 95       	ret

000076d0 <__floatunsisf>:
    76d0:	e8 94       	clt
    76d2:	09 c0       	rjmp	.+18     	; 0x76e6 <__floatsisf+0x12>

000076d4 <__floatsisf>:
    76d4:	97 fb       	bst	r25, 7
    76d6:	3e f4       	brtc	.+14     	; 0x76e6 <__floatsisf+0x12>
    76d8:	90 95       	com	r25
    76da:	80 95       	com	r24
    76dc:	70 95       	com	r23
    76de:	61 95       	neg	r22
    76e0:	7f 4f       	sbci	r23, 0xFF	; 255
    76e2:	8f 4f       	sbci	r24, 0xFF	; 255
    76e4:	9f 4f       	sbci	r25, 0xFF	; 255
    76e6:	99 23       	and	r25, r25
    76e8:	a9 f0       	breq	.+42     	; 0x7714 <__floatsisf+0x40>
    76ea:	f9 2f       	mov	r31, r25
    76ec:	96 e9       	ldi	r25, 0x96	; 150
    76ee:	bb 27       	eor	r27, r27
    76f0:	93 95       	inc	r25
    76f2:	f6 95       	lsr	r31
    76f4:	87 95       	ror	r24
    76f6:	77 95       	ror	r23
    76f8:	67 95       	ror	r22
    76fa:	b7 95       	ror	r27
    76fc:	f1 11       	cpse	r31, r1
    76fe:	f8 cf       	rjmp	.-16     	; 0x76f0 <__floatsisf+0x1c>
    7700:	fa f4       	brpl	.+62     	; 0x7740 <__floatsisf+0x6c>
    7702:	bb 0f       	add	r27, r27
    7704:	11 f4       	brne	.+4      	; 0x770a <__floatsisf+0x36>
    7706:	60 ff       	sbrs	r22, 0
    7708:	1b c0       	rjmp	.+54     	; 0x7740 <__floatsisf+0x6c>
    770a:	6f 5f       	subi	r22, 0xFF	; 255
    770c:	7f 4f       	sbci	r23, 0xFF	; 255
    770e:	8f 4f       	sbci	r24, 0xFF	; 255
    7710:	9f 4f       	sbci	r25, 0xFF	; 255
    7712:	16 c0       	rjmp	.+44     	; 0x7740 <__floatsisf+0x6c>
    7714:	88 23       	and	r24, r24
    7716:	11 f0       	breq	.+4      	; 0x771c <__floatsisf+0x48>
    7718:	96 e9       	ldi	r25, 0x96	; 150
    771a:	11 c0       	rjmp	.+34     	; 0x773e <__floatsisf+0x6a>
    771c:	77 23       	and	r23, r23
    771e:	21 f0       	breq	.+8      	; 0x7728 <__floatsisf+0x54>
    7720:	9e e8       	ldi	r25, 0x8E	; 142
    7722:	87 2f       	mov	r24, r23
    7724:	76 2f       	mov	r23, r22
    7726:	05 c0       	rjmp	.+10     	; 0x7732 <__floatsisf+0x5e>
    7728:	66 23       	and	r22, r22
    772a:	71 f0       	breq	.+28     	; 0x7748 <__floatsisf+0x74>
    772c:	96 e8       	ldi	r25, 0x86	; 134
    772e:	86 2f       	mov	r24, r22
    7730:	70 e0       	ldi	r23, 0x00	; 0
    7732:	60 e0       	ldi	r22, 0x00	; 0
    7734:	2a f0       	brmi	.+10     	; 0x7740 <__floatsisf+0x6c>
    7736:	9a 95       	dec	r25
    7738:	66 0f       	add	r22, r22
    773a:	77 1f       	adc	r23, r23
    773c:	88 1f       	adc	r24, r24
    773e:	da f7       	brpl	.-10     	; 0x7736 <__floatsisf+0x62>
    7740:	88 0f       	add	r24, r24
    7742:	96 95       	lsr	r25
    7744:	87 95       	ror	r24
    7746:	97 f9       	bld	r25, 7
    7748:	08 95       	ret

0000774a <__fp_inf>:
    774a:	97 f9       	bld	r25, 7
    774c:	9f 67       	ori	r25, 0x7F	; 127
    774e:	80 e8       	ldi	r24, 0x80	; 128
    7750:	70 e0       	ldi	r23, 0x00	; 0
    7752:	60 e0       	ldi	r22, 0x00	; 0
    7754:	08 95       	ret

00007756 <__fp_mpack>:
    7756:	9f 3f       	cpi	r25, 0xFF	; 255
    7758:	31 f0       	breq	.+12     	; 0x7766 <__fp_mpack_finite+0xc>

0000775a <__fp_mpack_finite>:
    775a:	91 50       	subi	r25, 0x01	; 1
    775c:	20 f4       	brcc	.+8      	; 0x7766 <__fp_mpack_finite+0xc>
    775e:	87 95       	ror	r24
    7760:	77 95       	ror	r23
    7762:	67 95       	ror	r22
    7764:	b7 95       	ror	r27
    7766:	88 0f       	add	r24, r24
    7768:	91 1d       	adc	r25, r1
    776a:	96 95       	lsr	r25
    776c:	87 95       	ror	r24
    776e:	97 f9       	bld	r25, 7
    7770:	08 95       	ret

00007772 <__fp_nan>:
    7772:	9f ef       	ldi	r25, 0xFF	; 255
    7774:	80 ec       	ldi	r24, 0xC0	; 192
    7776:	08 95       	ret

00007778 <__fp_powser>:
    7778:	df 93       	push	r29
    777a:	cf 93       	push	r28
    777c:	1f 93       	push	r17
    777e:	0f 93       	push	r16
    7780:	ff 92       	push	r15
    7782:	ef 92       	push	r14
    7784:	df 92       	push	r13
    7786:	7b 01       	movw	r14, r22
    7788:	8c 01       	movw	r16, r24
    778a:	68 94       	set
    778c:	05 c0       	rjmp	.+10     	; 0x7798 <__fp_powser+0x20>
    778e:	da 2e       	mov	r13, r26
    7790:	ef 01       	movw	r28, r30
    7792:	e7 de       	rcall	.-562    	; 0x7562 <__mulsf3x>
    7794:	fe 01       	movw	r30, r28
    7796:	e8 94       	clt
    7798:	a5 91       	lpm	r26, Z+
    779a:	25 91       	lpm	r18, Z+
    779c:	35 91       	lpm	r19, Z+
    779e:	45 91       	lpm	r20, Z+
    77a0:	55 91       	lpm	r21, Z+
    77a2:	ae f3       	brts	.-22     	; 0x778e <__fp_powser+0x16>
    77a4:	ef 01       	movw	r28, r30
    77a6:	41 df       	rcall	.-382    	; 0x762a <__addsf3x>
    77a8:	fe 01       	movw	r30, r28
    77aa:	97 01       	movw	r18, r14
    77ac:	a8 01       	movw	r20, r16
    77ae:	da 94       	dec	r13
    77b0:	79 f7       	brne	.-34     	; 0x7790 <__fp_powser+0x18>
    77b2:	df 90       	pop	r13
    77b4:	ef 90       	pop	r14
    77b6:	ff 90       	pop	r15
    77b8:	0f 91       	pop	r16
    77ba:	1f 91       	pop	r17
    77bc:	cf 91       	pop	r28
    77be:	df 91       	pop	r29
    77c0:	08 95       	ret

000077c2 <__fp_pscA>:
    77c2:	00 24       	eor	r0, r0
    77c4:	0a 94       	dec	r0
    77c6:	16 16       	cp	r1, r22
    77c8:	17 06       	cpc	r1, r23
    77ca:	18 06       	cpc	r1, r24
    77cc:	09 06       	cpc	r0, r25
    77ce:	08 95       	ret

000077d0 <__fp_pscB>:
    77d0:	00 24       	eor	r0, r0
    77d2:	0a 94       	dec	r0
    77d4:	12 16       	cp	r1, r18
    77d6:	13 06       	cpc	r1, r19
    77d8:	14 06       	cpc	r1, r20
    77da:	05 06       	cpc	r0, r21
    77dc:	08 95       	ret

000077de <__fp_round>:
    77de:	09 2e       	mov	r0, r25
    77e0:	03 94       	inc	r0
    77e2:	00 0c       	add	r0, r0
    77e4:	11 f4       	brne	.+4      	; 0x77ea <__fp_round+0xc>
    77e6:	88 23       	and	r24, r24
    77e8:	52 f0       	brmi	.+20     	; 0x77fe <__fp_round+0x20>
    77ea:	bb 0f       	add	r27, r27
    77ec:	40 f4       	brcc	.+16     	; 0x77fe <__fp_round+0x20>
    77ee:	bf 2b       	or	r27, r31
    77f0:	11 f4       	brne	.+4      	; 0x77f6 <__fp_round+0x18>
    77f2:	60 ff       	sbrs	r22, 0
    77f4:	04 c0       	rjmp	.+8      	; 0x77fe <__fp_round+0x20>
    77f6:	6f 5f       	subi	r22, 0xFF	; 255
    77f8:	7f 4f       	sbci	r23, 0xFF	; 255
    77fa:	8f 4f       	sbci	r24, 0xFF	; 255
    77fc:	9f 4f       	sbci	r25, 0xFF	; 255
    77fe:	08 95       	ret

00007800 <__fp_split3>:
    7800:	57 fd       	sbrc	r21, 7
    7802:	90 58       	subi	r25, 0x80	; 128
    7804:	44 0f       	add	r20, r20
    7806:	55 1f       	adc	r21, r21
    7808:	59 f0       	breq	.+22     	; 0x7820 <__fp_splitA+0x10>
    780a:	5f 3f       	cpi	r21, 0xFF	; 255
    780c:	71 f0       	breq	.+28     	; 0x782a <__fp_splitA+0x1a>
    780e:	47 95       	ror	r20

00007810 <__fp_splitA>:
    7810:	88 0f       	add	r24, r24
    7812:	97 fb       	bst	r25, 7
    7814:	99 1f       	adc	r25, r25
    7816:	61 f0       	breq	.+24     	; 0x7830 <__fp_splitA+0x20>
    7818:	9f 3f       	cpi	r25, 0xFF	; 255
    781a:	79 f0       	breq	.+30     	; 0x783a <__fp_splitA+0x2a>
    781c:	87 95       	ror	r24
    781e:	08 95       	ret
    7820:	12 16       	cp	r1, r18
    7822:	13 06       	cpc	r1, r19
    7824:	14 06       	cpc	r1, r20
    7826:	55 1f       	adc	r21, r21
    7828:	f2 cf       	rjmp	.-28     	; 0x780e <__fp_split3+0xe>
    782a:	46 95       	lsr	r20
    782c:	f1 df       	rcall	.-30     	; 0x7810 <__fp_splitA>
    782e:	08 c0       	rjmp	.+16     	; 0x7840 <__fp_splitA+0x30>
    7830:	16 16       	cp	r1, r22
    7832:	17 06       	cpc	r1, r23
    7834:	18 06       	cpc	r1, r24
    7836:	99 1f       	adc	r25, r25
    7838:	f1 cf       	rjmp	.-30     	; 0x781c <__fp_splitA+0xc>
    783a:	86 95       	lsr	r24
    783c:	71 05       	cpc	r23, r1
    783e:	61 05       	cpc	r22, r1
    7840:	08 94       	sec
    7842:	08 95       	ret

00007844 <__fp_zero>:
    7844:	e8 94       	clt

00007846 <__fp_szero>:
    7846:	bb 27       	eor	r27, r27
    7848:	66 27       	eor	r22, r22
    784a:	77 27       	eor	r23, r23
    784c:	cb 01       	movw	r24, r22
    784e:	97 f9       	bld	r25, 7
    7850:	08 95       	ret

00007852 <_exit>:
    7852:	f8 94       	cli

00007854 <__stop_program>:
    7854:	ff cf       	rjmp	.-2      	; 0x7854 <__stop_program>
